Certificate:
    Data:
        Version: 3 (0x2)
        Serial Number: 4096 (0x1000)
        Signature Algorithm: sha256WithRSAEncryption
        Issuer: CN=ZeroC Test Intermediate 1 CA, C=US, ST=Florida, L=Jupiter, O=ZeroC, OU=Ice Test Infrastructure/emailAddress=tests@zeroc.com
        Validity
            Not Before: May 22 15:10:18 2025 GMT
            Not After : Jun 24 15:10:18 2026 GMT
        Subject: CN=Server, C=US, ST=Florida, L=Jupiter, O=ZeroC, Inc., OU=Ice/emailAddress=info@zeroc.com
        Subject Public Key Info:
            Public Key Algorithm: rsaEncryption
                Public-Key: (2048 bit)
                Modulus:
                    00:c7:2c:a7:e0:4b:ce:75:28:f2:e5:95:11:53:fc:
                    31:b3:a9:70:c1:d0:54:02:3c:99:63:70:2c:2f:40:
                    6a:af:02:ba:ec:c5:8c:32:0d:40:a7:62:67:d4:fb:
                    5c:27:cf:38:9e:0e:be:46:b5:25:7b:1f:72:81:87:
                    b0:be:00:6d:03:51:a2:f7:c9:06:5a:0f:81:ee:ed:
                    ac:9c:8c:9a:d7:63:7a:ba:cb:d8:64:ad:bf:17:77:
                    39:d5:34:b6:09:12:ea:3f:85:f5:9e:b8:75:1c:19:
                    e6:f4:31:53:ba:e5:0f:e4:40:4d:10:47:bb:f9:9b:
                    fd:66:be:4b:c2:08:b3:c7:ae:ef:64:e2:0e:a1:09:
                    89:aa:0b:0c:aa:a2:3e:b2:ce:c6:b1:a1:b4:10:fc:
                    18:6a:dc:23:d1:63:08:51:a1:07:82:34:6f:7d:3c:
                    c7:75:fb:40:74:5b:de:2f:82:e0:b7:b1:45:09:b7:
                    92:ce:27:d4:eb:9d:fc:a3:77:e6:81:21:05:67:9a:
                    f4:48:11:27:81:3f:d5:37:1c:bc:5d:64:7d:20:b6:
                    a8:cb:bc:90:87:43:ff:25:aa:57:4b:37:e4:7a:08:
                    d2:16:a9:6d:ba:32:81:1c:4f:3c:40:68:6a:b7:6f:
                    f1:cf:0d:2b:80:9d:30:7a:5a:f7:7b:1f:c8:56:c7:
                    6b:93
                Exponent: 65537 (0x10001)
        X509v3 extensions:
            X509v3 Subject Key Identifier: 
                3C:56:5A:12:4E:6B:B4:AD:3A:5B:7A:7E:07:C9:46:94:69:0C:01:BC
            X509v3 Authority Key Identifier: 
                14:7C:49:2A:40:64:EA:0D:02:B2:A3:4F:AC:96:2E:9E:E0:E5:9C:3A
            X509v3 Key Usage: critical
                Digital Signature, Non Repudiation, Key Encipherment
            X509v3 Extended Key Usage: 
                TLS Web Server Authentication
            X509v3 Subject Alternative Name: 
                IP Address:127.0.0.1, DNS:server
            X509v3 CRL Distribution Points: 
                Full Name:
                  URI:http://127.0.0.1:20001/ca3.crl.pem
    Signature Algorithm: sha256WithRSAEncryption
    Signature Value:
        83:5a:01:1f:00:29:ef:50:51:48:d3:68:0e:02:cb:54:19:a7:
        03:c5:79:ff:ee:d1:75:05:ab:e7:25:40:50:73:52:26:2a:b6:
        df:88:e6:49:11:1f:24:f8:e7:00:ec:75:4d:ac:bb:05:4b:06:
        25:7a:e6:ee:f4:74:93:87:b0:a3:7a:0f:7a:c5:ca:b1:62:62:
        26:7e:e4:61:1b:4b:a9:fc:a9:04:0c:86:cf:fd:e1:f6:3d:81:
        6e:6c:b8:52:7c:0c:0e:b5:6b:0e:ef:0a:cf:b3:02:94:e4:50:
        57:32:5b:8a:83:01:e5:4a:58:cc:3e:30:19:69:cc:63:ae:5b:
        c5:2c:d8:13:d0:bf:03:43:d0:54:b4:91:ee:5c:c4:28:57:98:
        7c:8a:cf:f5:b4:2e:02:15:d0:2a:1c:38:18:aa:85:68:6c:8d:
        b8:81:c7:dd:cd:f6:73:f5:24:82:46:1a:c3:62:c4:ca:6d:56:
        37:1e:a6:34:88:b4:e6:e2:ed:b7:10:11:22:34:a8:b8:1b:65:
        9f:9d:bc:8a:e1:7a:cb:30:43:9c:05:ac:75:74:cd:05:b8:3f:
        08:c7:e9:b6:d0:9e:bb:6d:21:61:cd:75:c0:46:bb:09:aa:1d:
        08:f6:a1:c2:dc:c9:1f:a2:01:0c:4e:d1:47:4e:61:5c:a9:d3:
        fc:72:b3:e0
-----BEGIN CERTIFICATE-----
MIIEZDCCA0ygAwIBAgICEAAwDQYJKoZIhvcNAQELBQAwgaoxJTAjBgNVBAMMHFpl
cm9DIFRlc3QgSW50ZXJtZWRpYXRlIDEgQ0ExCzAJBgNVBAYTAlVTMRAwDgYDVQQI
DAdGbG9yaWRhMRAwDgYDVQQHDAdKdXBpdGVyMQ4wDAYDVQQKDAVaZXJvQzEgMB4G
A1UECwwXSWNlIFRlc3QgSW5mcmFzdHJ1Y3R1cmUxHjAcBgkqhkiG9w0BCQEWD3Rl
c3RzQHplcm9jLmNvbTAeFw0yNTA1MjIxNTEwMThaFw0yNjA2MjQxNTEwMThaMIGF
MQ8wDQYDVQQDDAZTZXJ2ZXIxCzAJBgNVBAYTAlVTMRAwDgYDVQQIDAdGbG9yaWRh
MRAwDgYDVQQHDAdKdXBpdGVyMRQwEgYDVQQKDAtaZXJvQywgSW5jLjEMMAoGA1UE
CwwDSWNlMR0wGwYJKoZIhvcNAQkBFg5pbmZvQHplcm9jLmNvbTCCASIwDQYJKoZI
hvcNAQEBBQADggEPADCCAQoCggEBAMcsp+BLznUo8uWVEVP8MbOpcMHQVAI8mWNw
LC9Aaq8CuuzFjDINQKdiZ9T7XCfPOJ4Ovka1JXsfcoGHsL4AbQNRovfJBloPge7t
rJyMmtdjerrL2GStvxd3OdU0tgkS6j+F9Z64dRwZ5vQxU7rlD+RATRBHu/mb/Wa+
S8IIs8eu72TiDqEJiaoLDKqiPrLOxrGhtBD8GGrcI9FjCFGhB4I0b308x3X7QHRb
3i+C4LexRQm3ks4n1Oud/KN35oEhBWea9EgRJ4E/1TccvF1kfSC2qMu8kIdD/yWq
V0s35HoI0hapbboygRxPPEBoardv8c8NK4CdMHpa93sfyFbHa5MCAwEAAaOBtjCB
szAdBgNVHQ4EFgQUPFZaEk5rtK06W3p+B8lGlGkMAbwwHwYDVR0jBBgwFoAUFHxJ
KkBk6g0CsqNPrJYunuDlnDowDgYDVR0PAQH/BAQDAgXgMBMGA1UdJQQMMAoGCCsG
AQUFBwMBMBcGA1UdEQQQMA6HBH8AAAGCBnNlcnZlcjAzBgNVHR8ELDAqMCigJqAk
hiJodHRwOi8vMTI3LjAuMC4xOjIwMDAxL2NhMy5jcmwucGVtMA0GCSqGSIb3DQEB
CwUAA4IBAQCDWgEfACnvUFFI02gOAstUGacDxXn/7tF1BavnJUBQc1ImKrbfiOZJ
ER8k+OcA7HVNrLsFSwYleubu9HSTh7Cjeg96xcqxYmImfuRhG0up/KkEDIbP/eH2
PYFubLhSfAwOtWsO7wrPswKU5FBXMluKgwHlSljMPjAZacxjrlvFLNgT0L8DQ9BU
tJHuXMQoV5h8is/1tC4CFdAqHDgYqoVobI24gcfdzfZz9SSCRhrDYsTKbVY3HqY0
iLTm4u23EBEiNKi4G2WfnbyK4XrLMEOcBax1dM0FuD8Ix+m20J67bSFhzXXARrsJ
qh0I9qHC3MkfogEMTtFHTmFcqdP8crPg
-----END CERTIFICATE-----
