Certificate:
    Data:
        Version: 3 (0x2)
        Serial Number: 4096 (0x1000)
        Signature Algorithm: sha256WithRSAEncryption
        Issuer: CN=ZeroC Test Intermediate 1 CA, C=US, ST=Florida, L=Jupiter, O=ZeroC, OU=Ice Test Infrastructure/emailAddress=tests@zeroc.com
        Validity
            Not Before: May 22 16:16:13 2025 GMT
            Not After : Jun 24 16:16:13 2026 GMT
        Subject: CN=Server, C=US, ST=Florida, L=Jupiter, O=ZeroC, Inc., OU=Ice/emailAddress=info@zeroc.com
        Subject Public Key Info:
            Public Key Algorithm: rsaEncryption
                Public-Key: (2048 bit)
                Modulus:
                    00:c1:98:dd:34:a4:de:f0:f4:76:56:13:8c:cb:58:
                    09:bd:d1:0b:9d:d8:15:66:c7:c9:29:cc:61:e8:9a:
                    b5:9b:c5:ea:5c:17:99:2f:2c:8e:2c:20:93:6a:5f:
                    e1:81:b8:b0:00:e5:ef:bc:f5:68:90:c6:55:fe:82:
                    e0:a7:76:1f:4a:b6:ae:d3:7e:87:0a:d0:9c:b4:62:
                    7c:60:22:bb:bb:4d:61:90:43:54:8c:fa:59:df:ef:
                    cb:14:29:40:32:c1:8d:4c:c6:3d:59:87:a4:74:3f:
                    2b:1a:fe:93:a4:95:f8:35:e0:44:72:e8:0f:58:34:
                    d3:37:16:97:83:64:19:c4:f3:65:63:fa:d9:eb:ac:
                    78:3b:92:17:15:95:1a:c5:09:80:e0:15:f5:ed:d4:
                    52:f7:bb:84:57:31:d0:d0:9b:d3:cc:4a:a1:a4:4d:
                    a2:50:db:5e:59:02:9d:b8:11:75:df:ae:65:53:14:
                    d1:62:c5:63:0d:3d:74:bb:c2:0c:4d:e6:8c:e9:e6:
                    5f:53:d3:c6:06:de:73:cd:72:b5:39:b4:ad:9b:e7:
                    ed:c6:71:53:a6:b0:64:7f:15:2b:81:11:f1:a5:33:
                    7e:07:aa:08:c3:5f:d2:c1:fb:18:21:dc:a8:8c:33:
                    b5:44:98:87:dc:21:6f:84:d3:cd:97:41:2a:b8:cf:
                    53:15
                Exponent: 65537 (0x10001)
        X509v3 extensions:
            X509v3 Subject Key Identifier: 
                EC:56:3A:5C:AC:5A:38:72:B9:17:96:51:49:82:36:89:C8:EA:6D:92
            X509v3 Authority Key Identifier: 
                E6:51:CC:78:A5:3E:6F:61:38:55:FB:0C:FA:AB:53:44:F2:3C:97:99
            X509v3 Key Usage: critical
                Digital Signature, Non Repudiation, Key Encipherment
            X509v3 Extended Key Usage: 
                TLS Web Server Authentication
            X509v3 Subject Alternative Name: 
                IP Address:127.0.0.1, DNS:server
            X509v3 CRL Distribution Points: 
                Full Name:
                  URI:http://127.0.0.1:20001/ca3/ca3.crl.pem
    Signature Algorithm: sha256WithRSAEncryption
    Signature Value:
        29:0c:d9:7d:47:2e:b9:f1:54:07:dc:f8:b0:65:a1:fc:85:aa:
        af:02:59:e6:5a:a5:98:a5:9c:82:10:35:90:42:1b:4d:0d:52:
        52:e0:e6:d1:9c:6b:d2:a9:c5:4e:79:47:75:3f:ad:a5:f7:ba:
        35:f1:01:40:d2:88:d8:60:0b:27:24:ad:b0:80:5b:9f:2b:c5:
        e9:7d:45:bb:d1:b7:34:37:7d:12:b4:88:de:1e:8f:41:98:0e:
        71:8e:96:b5:b2:c3:3a:7d:5f:ae:26:a5:13:93:52:af:7f:b0:
        70:6e:a9:58:7d:66:c0:cd:2a:2b:aa:a8:a0:67:78:95:ea:00:
        60:4f:15:9c:38:08:bb:bd:fe:83:17:6e:92:3c:26:11:d8:41:
        ba:f0:25:5e:34:e3:77:57:9b:0e:03:2f:31:4e:57:56:95:18:
        b9:fd:db:52:16:d6:d9:39:5d:8b:6b:30:c1:71:cd:09:7b:a1:
        72:67:03:8d:88:22:74:22:dd:1e:e5:6a:68:ca:12:58:75:2c:
        fb:2e:16:2f:91:b8:25:23:e2:0f:7c:70:d2:a3:0a:1a:a5:6b:
        1c:ba:65:ec:c5:f6:1f:c0:1f:2f:c9:34:55:de:83:9d:ec:4c:
        f7:bf:34:2c:fa:86:30:b7:56:b5:02:f5:2c:67:e0:f4:a7:6a:
        a8:fa:af:1b
-----BEGIN CERTIFICATE-----
MIIEaDCCA1CgAwIBAgICEAAwDQYJKoZIhvcNAQELBQAwgaoxJTAjBgNVBAMMHFpl
cm9DIFRlc3QgSW50ZXJtZWRpYXRlIDEgQ0ExCzAJBgNVBAYTAlVTMRAwDgYDVQQI
DAdGbG9yaWRhMRAwDgYDVQQHDAdKdXBpdGVyMQ4wDAYDVQQKDAVaZXJvQzEgMB4G
A1UECwwXSWNlIFRlc3QgSW5mcmFzdHJ1Y3R1cmUxHjAcBgkqhkiG9w0BCQEWD3Rl
c3RzQHplcm9jLmNvbTAeFw0yNTA1MjIxNjE2MTNaFw0yNjA2MjQxNjE2MTNaMIGF
MQ8wDQYDVQQDDAZTZXJ2ZXIxCzAJBgNVBAYTAlVTMRAwDgYDVQQIDAdGbG9yaWRh
MRAwDgYDVQQHDAdKdXBpdGVyMRQwEgYDVQQKDAtaZXJvQywgSW5jLjEMMAoGA1UE
CwwDSWNlMR0wGwYJKoZIhvcNAQkBFg5pbmZvQHplcm9jLmNvbTCCASIwDQYJKoZI
hvcNAQEBBQADggEPADCCAQoCggEBAMGY3TSk3vD0dlYTjMtYCb3RC53YFWbHySnM
YeiatZvF6lwXmS8sjiwgk2pf4YG4sADl77z1aJDGVf6C4Kd2H0q2rtN+hwrQnLRi
fGAiu7tNYZBDVIz6Wd/vyxQpQDLBjUzGPVmHpHQ/Kxr+k6SV+DXgRHLoD1g00zcW
l4NkGcTzZWP62euseDuSFxWVGsUJgOAV9e3UUve7hFcx0NCb08xKoaRNolDbXlkC
nbgRdd+uZVMU0WLFYw09dLvCDE3mjOnmX1PTxgbec81ytTm0rZvn7cZxU6awZH8V
K4ER8aUzfgeqCMNf0sH7GCHcqIwztUSYh9whb4TTzZdBKrjPUxUCAwEAAaOBujCB
tzAdBgNVHQ4EFgQU7FY6XKxaOHK5F5ZRSYI2icjqbZIwHwYDVR0jBBgwFoAU5lHM
eKU+b2E4VfsM+qtTRPI8l5kwDgYDVR0PAQH/BAQDAgXgMBMGA1UdJQQMMAoGCCsG
AQUFBwMBMBcGA1UdEQQQMA6HBH8AAAGCBnNlcnZlcjA3BgNVHR8EMDAuMCygKqAo
hiZodHRwOi8vMTI3LjAuMC4xOjIwMDAxL2NhMy9jYTMuY3JsLnBlbTANBgkqhkiG
9w0BAQsFAAOCAQEAKQzZfUcuufFUB9z4sGWh/IWqrwJZ5lqlmKWcghA1kEIbTQ1S
UuDm0Zxr0qnFTnlHdT+tpfe6NfEBQNKI2GALJyStsIBbnyvF6X1Fu9G3NDd9ErSI
3h6PQZgOcY6WtbLDOn1frialE5NSr3+wcG6pWH1mwM0qK6qooGd4leoAYE8VnDgI
u73+gxdukjwmEdhBuvAlXjTjd1ebDgMvMU5XVpUYuf3bUhbW2Tldi2swwXHNCXuh
cmcDjYgidCLdHuVqaMoSWHUs+y4WL5G4JSPiD3xw0qMKGqVrHLpl7MX2H8AfL8k0
Vd6DnexM9780LPqGMLdWtQL1LGfg9KdqqPqvGw==
-----END CERTIFICATE-----
