Certificate:
    Data:
        Version: 3 (0x2)
        Serial Number: 4097 (0x1001)
        Signature Algorithm: sha256WithRSAEncryption
        Issuer: CN=ZeroC Test Intermediate 1 CA, C=US, ST=Florida, L=Jupiter, O=ZeroC, OU=Ice Test Infrastructure/emailAddress=tests@zeroc.com
        Validity
            Not Before: May 22 16:55:17 2025 GMT
            Not After : Jun 24 16:55:17 2026 GMT
        Subject: CN=Server, C=US, ST=Florida, L=Jupiter, O=ZeroC, Inc., OU=Ice/emailAddress=info@zeroc.com
        Subject Public Key Info:
            Public Key Algorithm: rsaEncryption
                Public-Key: (2048 bit)
                Modulus:
                    00:b9:9f:d1:ba:16:f3:22:46:77:64:3f:16:b4:2e:
                    78:5b:96:16:89:93:4d:a1:8b:98:f5:59:5c:e3:90:
                    57:ba:27:c9:d8:a1:cb:ce:b8:e5:c1:90:40:6f:b7:
                    49:b3:58:56:51:c2:85:8d:79:2a:b9:b3:82:b8:19:
                    f8:86:a4:a9:2c:db:1a:fd:13:5f:90:ae:bf:de:55:
                    36:9f:d2:71:24:08:3f:12:e7:3e:5a:f6:cb:c9:84:
                    f5:6f:a7:96:3c:d9:69:9f:00:6d:7d:e7:c1:4f:ba:
                    9d:9c:b6:09:08:b8:a4:f8:97:18:6b:61:7a:fa:f9:
                    b1:ef:fd:08:43:74:85:e4:ed:9a:91:0a:7d:93:fd:
                    8b:bc:33:40:9a:14:02:b9:01:ea:e9:f7:c2:5f:64:
                    8f:99:c6:18:19:8b:bc:35:6b:e9:ff:17:d9:8a:17:
                    23:4b:ac:21:df:41:56:e2:0d:39:ba:51:cc:de:15:
                    e2:30:f5:a0:a2:6c:ac:8b:61:90:1d:be:6a:26:3d:
                    82:28:6e:f1:d9:1c:ea:a8:13:4d:24:c9:9b:07:b8:
                    a9:d7:e4:b5:d0:c0:f7:b5:01:6e:99:7c:ac:61:d0:
                    6f:4a:06:92:90:31:b6:7f:20:1b:11:36:61:0c:50:
                    e8:bc:16:93:c9:3f:68:3c:f6:0e:6f:be:91:4b:95:
                    be:4f
                Exponent: 65537 (0x10001)
        X509v3 extensions:
            X509v3 Subject Key Identifier: 
                D6:6A:AD:AD:A9:74:68:DC:7F:0C:EA:9F:07:7A:64:DC:72:FD:AD:1D
            X509v3 Authority Key Identifier: 
                E5:CB:A9:A1:32:7D:4B:DF:F9:31:5A:0E:9A:15:1B:8E:52:53:B4:4A
            X509v3 Key Usage: critical
                Digital Signature, Non Repudiation, Key Encipherment
            X509v3 Extended Key Usage: 
                TLS Web Server Authentication
            X509v3 Subject Alternative Name: 
                IP Address:127.0.0.1, DNS:server
            X509v3 CRL Distribution Points: 
                Full Name:
                  URI:http://127.0.0.1:20001/ca3/i1/i1.crl.pem
    Signature Algorithm: sha256WithRSAEncryption
    Signature Value:
        45:0e:54:3c:06:9d:e0:52:a6:b3:ba:cd:44:21:26:10:33:29:
        d7:3e:1b:51:76:e7:a1:b6:a3:ea:e9:d3:58:3d:1f:74:1e:41:
        e7:0e:2d:c4:af:da:a7:1c:3d:bd:8a:10:ef:d4:00:4f:51:7a:
        d2:6a:c2:45:95:8b:02:1e:09:77:00:ce:d1:a3:bf:6e:20:ca:
        9a:d2:c4:3c:47:fb:4b:67:f8:d0:da:19:03:51:d0:88:24:89:
        c9:ce:5f:d9:b6:48:82:ad:ad:e8:55:37:90:14:e0:d7:79:99:
        4b:f3:df:7d:ee:70:97:87:11:6c:0f:33:06:7a:44:b9:31:24:
        05:ae:43:24:ad:e8:d8:88:54:99:44:df:9c:31:bc:80:b1:4a:
        be:3f:2e:a1:04:c5:f2:53:7a:58:24:b5:ee:74:54:a6:f9:37:
        56:a2:a4:62:b2:2c:35:40:95:f4:23:9e:d2:57:ed:a0:b1:93:
        ca:3c:8c:b9:96:54:32:de:16:b2:30:62:24:8c:ec:83:1c:bb:
        93:e8:c1:7b:7e:20:80:1a:23:e7:e1:9f:02:8f:3b:73:56:dd:
        21:57:2e:2c:cd:47:48:a4:ed:3d:0f:34:9c:78:2f:75:d7:17:
        b7:35:e8:b3:f9:f5:06:37:84:91:6d:a7:82:6a:56:a4:46:a5:
        e4:0d:17:e8
-----BEGIN CERTIFICATE-----
MIIEajCCA1KgAwIBAgICEAEwDQYJKoZIhvcNAQELBQAwgaoxJTAjBgNVBAMMHFpl
cm9DIFRlc3QgSW50ZXJtZWRpYXRlIDEgQ0ExCzAJBgNVBAYTAlVTMRAwDgYDVQQI
DAdGbG9yaWRhMRAwDgYDVQQHDAdKdXBpdGVyMQ4wDAYDVQQKDAVaZXJvQzEgMB4G
A1UECwwXSWNlIFRlc3QgSW5mcmFzdHJ1Y3R1cmUxHjAcBgkqhkiG9w0BCQEWD3Rl
c3RzQHplcm9jLmNvbTAeFw0yNTA1MjIxNjU1MTdaFw0yNjA2MjQxNjU1MTdaMIGF
MQ8wDQYDVQQDDAZTZXJ2ZXIxCzAJBgNVBAYTAlVTMRAwDgYDVQQIDAdGbG9yaWRh
MRAwDgYDVQQHDAdKdXBpdGVyMRQwEgYDVQQKDAtaZXJvQywgSW5jLjEMMAoGA1UE
CwwDSWNlMR0wGwYJKoZIhvcNAQkBFg5pbmZvQHplcm9jLmNvbTCCASIwDQYJKoZI
hvcNAQEBBQADggEPADCCAQoCggEBALmf0boW8yJGd2Q/FrQueFuWFomTTaGLmPVZ
XOOQV7onydihy8645cGQQG+3SbNYVlHChY15KrmzgrgZ+IakqSzbGv0TX5Cuv95V
Np/ScSQIPxLnPlr2y8mE9W+nljzZaZ8AbX3nwU+6nZy2CQi4pPiXGGthevr5se/9
CEN0heTtmpEKfZP9i7wzQJoUArkB6un3wl9kj5nGGBmLvDVr6f8X2YoXI0usId9B
VuINObpRzN4V4jD1oKJsrIthkB2+aiY9gihu8dkc6qgTTSTJmwe4qdfktdDA97UB
bpl8rGHQb0oGkpAxtn8gGxE2YQxQ6LwWk8k/aDz2Dm++kUuVvk8CAwEAAaOBvDCB
uTAdBgNVHQ4EFgQU1mqtral0aNx/DOqfB3pk3HL9rR0wHwYDVR0jBBgwFoAU5cup
oTJ9S9/5MVoOmhUbjlJTtEowDgYDVR0PAQH/BAQDAgXgMBMGA1UdJQQMMAoGCCsG
AQUFBwMBMBcGA1UdEQQQMA6HBH8AAAGCBnNlcnZlcjA5BgNVHR8EMjAwMC6gLKAq
hihodHRwOi8vMTI3LjAuMC4xOjIwMDAxL2NhMy9pMS9pMS5jcmwucGVtMA0GCSqG
SIb3DQEBCwUAA4IBAQBFDlQ8Bp3gUqazus1EISYQMynXPhtRduehtqPq6dNYPR90
HkHnDi3Er9qnHD29ihDv1ABPUXrSasJFlYsCHgl3AM7Ro79uIMqa0sQ8R/tLZ/jQ
2hkDUdCIJInJzl/ZtkiCra3oVTeQFODXeZlL89997nCXhxFsDzMGekS5MSQFrkMk
rejYiFSZRN+cMbyAsUq+Py6hBMXyU3pYJLXudFSm+TdWoqRisiw1QJX0I57SV+2g
sZPKPIy5llQy3hayMGIkjOyDHLuT6MF7fiCAGiPn4Z8CjztzVt0hVy4szUdIpO09
DzSceC911xe3Neiz+fUGN4SRbaeCalakRqXkDRfo
-----END CERTIFICATE-----
