Certificate:
    Data:
        Version: 3 (0x2)
        Serial Number: 4097 (0x1001)
        Signature Algorithm: sha256WithRSAEncryption
        Issuer: C=US, ST=Florida, L=Jupiter, O=ZeroC, OU=Ice, CN=ZeroC Test CA 4/emailAddress=tests@zeroc.com
        Validity
            Not Before: May 22 15:10:18 2025 GMT
            Not After : Jun 24 15:10:18 2026 GMT
        Subject: CN=Server Revoked, C=US, ST=Florida, L=Jupiter, O=ZeroC, Inc., OU=Ice/emailAddress=info@zeroc.com
        Subject Public Key Info:
            Public Key Algorithm: rsaEncryption
                Public-Key: (2048 bit)
                Modulus:
                    00:b9:73:a9:3e:9b:b7:12:cb:e3:ad:2b:f4:83:6b:
                    ad:47:75:47:76:b4:32:78:68:34:83:f1:c0:b7:8f:
                    1a:a9:41:ca:a1:ba:71:af:fc:be:be:dd:ca:96:26:
                    2d:bb:ce:e6:a6:80:2d:e2:eb:dc:ab:98:f7:7f:1e:
                    df:bb:24:45:3e:ba:1f:81:c1:d3:7b:89:f8:3b:6b:
                    d0:33:e4:43:f5:b3:f4:97:93:f3:8c:86:d9:e1:1b:
                    42:ce:06:07:36:b6:72:58:ef:28:e2:cd:45:ec:9a:
                    5d:15:c5:ab:12:18:63:c5:9d:56:34:63:85:10:81:
                    8f:4a:40:12:fb:b2:a0:c5:2d:73:06:f2:59:1f:49:
                    7d:75:cb:16:f1:47:fe:99:70:78:47:db:82:66:4d:
                    16:b0:57:4a:7d:30:45:c3:9c:72:7e:7d:62:23:c9:
                    74:78:04:41:56:5e:dd:26:cf:b3:85:f3:18:9e:b8:
                    02:15:90:7a:13:fc:a0:9b:10:da:f9:c6:d8:9e:5f:
                    a6:de:bf:21:a1:42:fa:aa:0c:54:d9:a1:6a:e4:6f:
                    6f:89:f3:5e:21:c6:d0:a2:48:6c:95:59:6b:7c:32:
                    2e:9f:36:17:af:f5:74:c3:ce:38:a6:fa:0d:4f:4b:
                    21:ae:1d:12:67:6f:a7:89:33:71:5f:0c:d9:7b:78:
                    c7:7b
                Exponent: 65537 (0x10001)
        X509v3 extensions:
            X509v3 Subject Key Identifier: 
                1A:0D:F8:60:4E:EC:F6:EF:E0:23:72:55:CF:92:6D:33:E4:B3:4C:4E
            X509v3 Authority Key Identifier: 
                5C:34:EB:EC:38:DC:81:06:10:37:FD:EF:21:2E:D4:E5:1C:F8:CA:37
            X509v3 Key Usage: critical
                Digital Signature, Non Repudiation, Key Encipherment
            X509v3 Extended Key Usage: 
                TLS Web Client Authentication
            Authority Information Access: 
                OCSP - URI:http://127.0.0.1:20002
                CA Issuers - URI:http://127.0.0.1:20001/ca4/ca4_cert.der
            X509v3 Subject Alternative Name: 
                IP Address:127.0.0.1, DNS:client
    Signature Algorithm: sha256WithRSAEncryption
    Signature Value:
        c7:1d:ce:9b:68:a0:a4:fd:75:06:4f:99:91:c9:25:15:b1:13:
        75:cd:7b:a1:d4:2b:7d:da:7f:25:5c:0a:55:b0:0b:f0:c8:bf:
        ea:d4:a9:b4:c3:6c:df:d4:3a:69:ff:7e:cb:c9:13:20:bf:9f:
        26:77:7b:07:44:e2:71:d9:8f:81:34:b9:1a:31:b8:ab:b7:47:
        71:8e:1c:7d:26:73:5e:bf:32:33:1d:86:60:d8:0b:5f:41:a6:
        7b:cd:38:28:18:ad:a4:3f:e7:03:f1:92:70:bd:3f:80:60:b1:
        16:3f:d8:cd:7b:d5:8f:57:16:92:c7:0e:e5:d9:7d:bb:7b:6a:
        92:ce:63:68:78:e6:ac:dc:8d:58:3e:c9:72:fb:0a:96:94:08:
        da:8c:21:de:66:b2:b4:16:9a:67:53:f0:e0:6c:58:de:84:39:
        ec:07:28:6f:65:1a:04:9f:0a:e3:6c:9c:59:1e:a6:4d:50:2a:
        50:1d:07:fa:7f:e7:25:05:70:4d:51:d4:b8:77:54:cc:34:7c:
        fc:a3:ed:65:07:0b:6c:fd:da:20:34:78:22:81:32:e7:0a:cc:
        76:4e:35:50:93:d9:8a:d2:7f:28:e2:dc:fd:5a:8d:93:81:a8:
        2e:0d:7a:0b:3e:e6:42:82:bd:28:33:27:59:bd:3a:0d:33:31:
        aa:f2:ed:89
-----BEGIN CERTIFICATE-----
MIIEfzCCA2egAwIBAgICEAEwDQYJKoZIhvcNAQELBQAwgYkxCzAJBgNVBAYTAlVT
MRAwDgYDVQQIDAdGbG9yaWRhMRAwDgYDVQQHDAdKdXBpdGVyMQ4wDAYDVQQKDAVa
ZXJvQzEMMAoGA1UECwwDSWNlMRgwFgYDVQQDDA9aZXJvQyBUZXN0IENBIDQxHjAc
BgkqhkiG9w0BCQEWD3Rlc3RzQHplcm9jLmNvbTAeFw0yNTA1MjIxNTEwMThaFw0y
NjA2MjQxNTEwMThaMIGNMRcwFQYDVQQDDA5TZXJ2ZXIgUmV2b2tlZDELMAkGA1UE
BhMCVVMxEDAOBgNVBAgMB0Zsb3JpZGExEDAOBgNVBAcMB0p1cGl0ZXIxFDASBgNV
BAoMC1plcm9DLCBJbmMuMQwwCgYDVQQLDANJY2UxHTAbBgkqhkiG9w0BCQEWDmlu
Zm9AemVyb2MuY29tMIIBIjANBgkqhkiG9w0BAQEFAAOCAQ8AMIIBCgKCAQEAuXOp
Ppu3EsvjrSv0g2utR3VHdrQyeGg0g/HAt48aqUHKobpxr/y+vt3KliYtu87mpoAt
4uvcq5j3fx7fuyRFProfgcHTe4n4O2vQM+RD9bP0l5PzjIbZ4RtCzgYHNrZyWO8o
4s1F7JpdFcWrEhhjxZ1WNGOFEIGPSkAS+7KgxS1zBvJZH0l9dcsW8Uf+mXB4R9uC
Zk0WsFdKfTBFw5xyfn1iI8l0eARBVl7dJs+zhfMYnrgCFZB6E/ygmxDa+cbYnl+m
3r8hoUL6qgxU2aFq5G9vifNeIcbQokhslVlrfDIunzYXr/V0w844pvoNT0shrh0S
Z2+niTNxXwzZe3jHewIDAQABo4HqMIHnMB0GA1UdDgQWBBQaDfhgTuz27+AjclXP
km0z5LNMTjAfBgNVHSMEGDAWgBRcNOvsONyBBhA3/e8hLtTlHPjKNzAOBgNVHQ8B
Af8EBAMCBeAwEwYDVR0lBAwwCgYIKwYBBQUHAwIwZwYIKwYBBQUHAQEEWzBZMCIG
CCsGAQUFBzABhhZodHRwOi8vMTI3LjAuMC4xOjIwMDAyMDMGCCsGAQUFBzAChido
dHRwOi8vMTI3LjAuMC4xOjIwMDAxL2NhNC9jYTRfY2VydC5kZXIwFwYDVR0RBBAw
DocEfwAAAYIGY2xpZW50MA0GCSqGSIb3DQEBCwUAA4IBAQDHHc6baKCk/XUGT5mR
ySUVsRN1zXuh1Ct92n8lXApVsAvwyL/q1Km0w2zf1Dpp/37LyRMgv58md3sHROJx
2Y+BNLkaMbirt0dxjhx9JnNevzIzHYZg2AtfQaZ7zTgoGK2kP+cD8ZJwvT+AYLEW
P9jNe9WPVxaSxw7l2X27e2qSzmNoeOas3I1YPsly+wqWlAjajCHeZrK0FppnU/Dg
bFjehDnsByhvZRoEnwrjbJxZHqZNUCpQHQf6f+clBXBNUdS4d1TMNHz8o+1lBwts
/dogNHgigTLnCsx2TjVQk9mK0n8o4tz9Wo2TgaguDXoLPuZCgr0oMydZvToNMzGq
8u2J
-----END CERTIFICATE-----
