Certificate:
    Data:
        Version: 3 (0x2)
        Serial Number: 4098 (0x1002)
        Signature Algorithm: sha256WithRSAEncryption
        Issuer: C=US, ST=Florida, L=Jupiter, O=ZeroC, OU=Ice, CN=ZeroC Test CA 4/emailAddress=tests@zeroc.com
        Validity
            Not Before: May 22 16:55:18 2025 GMT
            Not After : Jun 24 16:55:18 2026 GMT
        Subject: CN=Server Unknown, C=US, ST=Florida, L=Jupiter, O=ZeroC, Inc., OU=Ice/emailAddress=info@zeroc.com
        Subject Public Key Info:
            Public Key Algorithm: rsaEncryption
                Public-Key: (2048 bit)
                Modulus:
                    00:b8:3b:32:4e:12:d8:a6:fe:a5:f6:38:01:b2:c6:
                    df:4e:9c:06:d1:21:90:f3:01:7b:2f:6a:80:75:cf:
                    fa:04:bc:4d:a5:eb:50:c3:16:1a:af:9d:25:50:ae:
                    58:5d:e9:31:ac:b9:2e:fb:6d:03:03:96:d8:9d:43:
                    00:c0:dd:54:88:05:f9:48:84:0a:d1:a4:1e:7b:44:
                    1f:64:cc:c5:e7:fc:2e:ce:a2:75:7a:92:ee:0e:22:
                    ce:e3:4e:24:80:93:62:c5:08:d0:e8:e7:49:bc:34:
                    a2:1d:96:62:26:8a:6a:e3:11:ef:c8:c1:ba:7c:d6:
                    3d:9e:b5:a0:84:92:90:58:4d:6b:72:6f:36:77:d0:
                    4c:ff:3b:91:22:98:43:e3:28:a5:09:18:b3:ad:7f:
                    5f:b2:62:cf:2e:d1:bc:b4:5e:e3:2e:8e:0b:d6:f4:
                    2e:2f:99:99:39:19:c5:61:c9:b3:f5:8d:3a:ce:4b:
                    50:c8:e0:18:2a:b5:4f:15:77:43:33:11:3e:5c:af:
                    a8:3f:f0:cf:65:ab:13:f7:2a:6a:6b:1b:22:2e:1c:
                    78:71:5d:39:9c:bc:5b:07:a8:06:a9:aa:10:b6:69:
                    6d:93:d6:e6:db:86:40:c8:db:61:30:46:b7:62:02:
                    2d:23:7a:1b:89:c8:82:a5:c1:4f:94:f0:11:db:3c:
                    5e:99
                Exponent: 65537 (0x10001)
        X509v3 extensions:
            X509v3 Subject Key Identifier: 
                24:F4:6F:17:2D:0B:7F:2E:4C:1A:0D:51:26:63:8D:F6:09:A2:EF:58
            X509v3 Authority Key Identifier: 
                28:B7:50:F2:A4:60:A3:FA:AE:00:DE:C5:9F:48:6D:22:B2:24:9C:0F
            X509v3 Key Usage: critical
                Digital Signature, Non Repudiation, Key Encipherment
            X509v3 Extended Key Usage: 
                TLS Web Server Authentication
            X509v3 Subject Alternative Name: 
                IP Address:127.0.0.1, DNS:server
            Authority Information Access: 
                OCSP - URI:http://127.0.0.1:20002
                CA Issuers - URI:http://127.0.0.1:20001/ca4/ca4_cert.der
    Signature Algorithm: sha256WithRSAEncryption
    Signature Value:
        80:cd:bd:dd:4a:4e:c1:2e:7d:9f:30:ca:e2:34:26:31:9d:0c:
        a8:ff:2a:e0:82:a0:fe:41:2b:46:0a:3c:c9:39:d5:17:6e:35:
        6e:1e:62:d8:2e:ea:a2:5c:6c:b4:02:e2:e4:5b:90:ae:1d:44:
        eb:0f:bc:33:90:e7:48:1a:89:be:ae:49:20:43:6f:61:67:ef:
        f4:7f:c9:0a:a3:09:8b:58:6b:33:38:91:5d:1e:dd:5e:3e:dd:
        c8:65:ec:0c:0e:61:43:cd:c6:9b:15:f6:33:2c:0d:24:9b:a9:
        3c:56:6d:bc:55:3c:bc:ed:f5:06:6f:50:bc:98:1c:fa:42:52:
        70:69:be:7f:b5:3d:a8:0d:b3:4a:58:dc:14:ed:b0:6e:25:e4:
        c3:55:a2:d5:6d:39:e6:22:57:b4:af:b3:9c:11:be:61:68:b5:
        97:cf:2b:37:61:4a:9f:39:61:0e:ff:c8:8b:cb:76:a4:47:32:
        e4:4f:53:de:17:e7:e7:50:47:37:ab:73:10:cf:6f:ca:ec:f1:
        67:be:55:99:60:12:1f:4f:b4:e2:98:91:9c:5b:75:ef:9a:7b:
        8f:c3:96:62:b2:dc:30:a0:cc:eb:e9:ad:89:cb:e0:11:af:b7:
        be:b3:37:c2:ee:8f:c9:c0:4a:73:63:3e:ba:60:d6:b3:c3:16:
        44:30:9c:8d
-----BEGIN CERTIFICATE-----
MIIEfzCCA2egAwIBAgICEAIwDQYJKoZIhvcNAQELBQAwgYkxCzAJBgNVBAYTAlVT
MRAwDgYDVQQIDAdGbG9yaWRhMRAwDgYDVQQHDAdKdXBpdGVyMQ4wDAYDVQQKDAVa
ZXJvQzEMMAoGA1UECwwDSWNlMRgwFgYDVQQDDA9aZXJvQyBUZXN0IENBIDQxHjAc
BgkqhkiG9w0BCQEWD3Rlc3RzQHplcm9jLmNvbTAeFw0yNTA1MjIxNjU1MThaFw0y
NjA2MjQxNjU1MThaMIGNMRcwFQYDVQQDDA5TZXJ2ZXIgVW5rbm93bjELMAkGA1UE
BhMCVVMxEDAOBgNVBAgMB0Zsb3JpZGExEDAOBgNVBAcMB0p1cGl0ZXIxFDASBgNV
BAoMC1plcm9DLCBJbmMuMQwwCgYDVQQLDANJY2UxHTAbBgkqhkiG9w0BCQEWDmlu
Zm9AemVyb2MuY29tMIIBIjANBgkqhkiG9w0BAQEFAAOCAQ8AMIIBCgKCAQEAuDsy
ThLYpv6l9jgBssbfTpwG0SGQ8wF7L2qAdc/6BLxNpetQwxYar50lUK5YXekxrLku
+20DA5bYnUMAwN1UiAX5SIQK0aQee0QfZMzF5/wuzqJ1epLuDiLO404kgJNixQjQ
6OdJvDSiHZZiJopq4xHvyMG6fNY9nrWghJKQWE1rcm82d9BM/zuRIphD4yilCRiz
rX9fsmLPLtG8tF7jLo4L1vQuL5mZORnFYcmz9Y06zktQyOAYKrVPFXdDMxE+XK+o
P/DPZasT9ypqaxsiLhx4cV05nLxbB6gGqaoQtmltk9bm24ZAyNthMEa3YgItI3ob
iciCpcFPlPAR2zxemQIDAQABo4HqMIHnMB0GA1UdDgQWBBQk9G8XLQt/LkwaDVEm
Y432CaLvWDAfBgNVHSMEGDAWgBQot1DypGCj+q4A3sWfSG0isiScDzAOBgNVHQ8B
Af8EBAMCBeAwEwYDVR0lBAwwCgYIKwYBBQUHAwEwFwYDVR0RBBAwDocEfwAAAYIG
c2VydmVyMGcGCCsGAQUFBwEBBFswWTAiBggrBgEFBQcwAYYWaHR0cDovLzEyNy4w
LjAuMToyMDAwMjAzBggrBgEFBQcwAoYnaHR0cDovLzEyNy4wLjAuMToyMDAwMS9j
YTQvY2E0X2NlcnQuZGVyMA0GCSqGSIb3DQEBCwUAA4IBAQCAzb3dSk7BLn2fMMri
NCYxnQyo/yrggqD+QStGCjzJOdUXbjVuHmLYLuqiXGy0AuLkW5CuHUTrD7wzkOdI
Gom+rkkgQ29hZ+/0f8kKowmLWGszOJFdHt1ePt3IZewMDmFDzcabFfYzLA0km6k8
Vm28VTy87fUGb1C8mBz6QlJwab5/tT2oDbNKWNwU7bBuJeTDVaLVbTnmIle0r7Oc
Eb5haLWXzys3YUqfOWEO/8iLy3akRzLkT1PeF+fnUEc3q3MQz2/K7PFnvlWZYBIf
T7TimJGcW3XvmnuPw5ZistwwoMzr6a2Jy+ARr7e+szfC7o/JwEpzYz66YNazwxZE
MJyN
-----END CERTIFICATE-----
