Certificate:
    Data:
        Version: 3 (0x2)
        Serial Number: 4099 (0x1003)
        Signature Algorithm: sha256WithRSAEncryption
        Issuer: C=US, ST=Florida, L=Jupiter, O=ZeroC, OU=Ice, CN=ZeroC Test CA 4/emailAddress=tests@zeroc.com
        Validity
            Not Before: May 22 15:10:19 2025 GMT
            Not After : Jun 24 15:10:19 2026 GMT
        Subject: CN=Server, C=US, ST=Florida, L=Jupiter, O=ZeroC, Inc., OU=Ice/emailAddress=info@zeroc.com
        Subject Public Key Info:
            Public Key Algorithm: rsaEncryption
                Public-Key: (2048 bit)
                Modulus:
                    00:ec:3e:d5:14:c0:86:ab:bd:9d:62:67:04:a8:d3:
                    7b:72:a4:3a:3f:22:25:f3:9e:9e:b7:9c:25:29:cf:
                    16:68:66:3f:df:9c:f0:46:b9:a5:4e:11:73:7f:cd:
                    1a:6d:12:fc:4e:32:f3:a2:60:32:d2:0f:b4:3b:3c:
                    bc:93:7b:4e:04:76:ff:c8:40:7a:34:bd:fe:82:89:
                    eb:a6:f2:04:a8:c9:32:39:d4:17:54:90:eb:5d:8f:
                    b2:32:8b:da:4d:0f:34:f4:af:11:ec:f7:15:6b:46:
                    05:55:0c:4a:c0:b2:18:bd:56:f0:6e:b8:63:24:47:
                    ce:4e:a3:42:b9:aa:68:65:2e:11:74:e0:2d:4c:3d:
                    9e:b1:69:39:48:41:12:9c:98:ef:7e:7d:9d:a5:4d:
                    3c:0a:dd:88:68:df:68:d9:a0:f0:20:c5:b3:a6:60:
                    9c:50:c0:a4:9c:d8:51:cb:92:f6:ec:b6:83:85:f1:
                    d3:c4:21:6c:52:44:a7:5f:ab:ab:ff:88:20:c7:77:
                    1e:12:ef:6a:aa:3a:9a:62:84:32:be:fb:b2:07:09:
                    1b:d7:55:7f:b1:d6:11:a7:06:8a:ac:78:58:b0:75:
                    a9:a0:24:a9:3a:f8:32:06:88:67:95:e8:b3:2a:50:
                    b6:e3:c7:ca:51:00:13:f3:d3:b5:34:bf:91:9a:3f:
                    18:79
                Exponent: 65537 (0x10001)
        X509v3 extensions:
            X509v3 Subject Key Identifier: 
                B0:8F:27:EA:C1:96:F5:0A:6C:55:E8:D0:77:BF:DF:6A:26:93:BC:7B
            X509v3 Authority Key Identifier: 
                5C:34:EB:EC:38:DC:81:06:10:37:FD:EF:21:2E:D4:E5:1C:F8:CA:37
            X509v3 Key Usage: critical
                Digital Signature, Non Repudiation, Key Encipherment
            X509v3 Extended Key Usage: 
                TLS Web Server Authentication
            X509v3 Subject Alternative Name: 
                IP Address:127.0.0.1, DNS:server
            Authority Information Access: 
                OCSP - URI:http://127.0.0.1:20002
                CA Issuers - URI:http://127.0.0.1:20001/ca4/ca4_cert.der
    Signature Algorithm: sha256WithRSAEncryption
    Signature Value:
        6e:05:97:c0:34:4d:95:70:ba:9a:12:23:31:54:94:96:e2:9d:
        68:91:2e:5c:9f:4b:fd:93:9e:9f:a4:b2:3e:f1:76:1e:5e:82:
        ae:1e:83:60:87:e4:4b:98:0c:99:e5:02:3d:28:15:fa:48:0c:
        93:35:3f:bc:7e:74:c8:dd:9b:f8:ee:10:54:4c:5b:47:b9:ad:
        7e:d6:99:7d:13:a2:73:19:e3:c0:10:8e:6e:4e:9d:79:9a:ab:
        a2:d9:ce:6f:7b:00:9a:4c:8b:c8:f9:aa:97:41:66:49:9f:2f:
        64:96:09:89:02:b9:81:5c:85:85:a8:11:7d:e7:81:ae:0d:1e:
        0b:1b:3b:b3:f5:b8:1c:56:38:e8:64:b3:9a:52:66:70:ed:bf:
        f0:8b:15:7f:a9:50:ff:80:2c:a7:7e:e3:cb:40:08:03:9c:a4:
        62:7f:12:d3:e9:a8:f6:ca:44:92:03:a5:75:17:67:fc:c9:01:
        c0:93:5a:9c:73:b8:47:82:9d:bc:74:c1:06:7c:ed:c2:a6:a2:
        28:d1:47:36:a0:1d:59:8a:8a:d9:32:0a:2c:48:b4:9a:3d:c8:
        cf:fe:99:6f:d7:84:72:a1:ba:a9:b9:4f:46:a2:69:a2:e8:4e:
        11:93:2f:85:ef:94:3d:7b:31:84:f1:c0:f0:54:09:3e:99:90:
        6e:ec:5d:bc
-----BEGIN CERTIFICATE-----
MIIEdzCCA1+gAwIBAgICEAMwDQYJKoZIhvcNAQELBQAwgYkxCzAJBgNVBAYTAlVT
MRAwDgYDVQQIDAdGbG9yaWRhMRAwDgYDVQQHDAdKdXBpdGVyMQ4wDAYDVQQKDAVa
ZXJvQzEMMAoGA1UECwwDSWNlMRgwFgYDVQQDDA9aZXJvQyBUZXN0IENBIDQxHjAc
BgkqhkiG9w0BCQEWD3Rlc3RzQHplcm9jLmNvbTAeFw0yNTA1MjIxNTEwMTlaFw0y
NjA2MjQxNTEwMTlaMIGFMQ8wDQYDVQQDDAZTZXJ2ZXIxCzAJBgNVBAYTAlVTMRAw
DgYDVQQIDAdGbG9yaWRhMRAwDgYDVQQHDAdKdXBpdGVyMRQwEgYDVQQKDAtaZXJv
QywgSW5jLjEMMAoGA1UECwwDSWNlMR0wGwYJKoZIhvcNAQkBFg5pbmZvQHplcm9j
LmNvbTCCASIwDQYJKoZIhvcNAQEBBQADggEPADCCAQoCggEBAOw+1RTAhqu9nWJn
BKjTe3KkOj8iJfOenrecJSnPFmhmP9+c8Ea5pU4Rc3/NGm0S/E4y86JgMtIPtDs8
vJN7TgR2/8hAejS9/oKJ66byBKjJMjnUF1SQ612PsjKL2k0PNPSvEez3FWtGBVUM
SsCyGL1W8G64YyRHzk6jQrmqaGUuEXTgLUw9nrFpOUhBEpyY7359naVNPArdiGjf
aNmg8CDFs6ZgnFDApJzYUcuS9uy2g4Xx08QhbFJEp1+rq/+IIMd3HhLvaqo6mmKE
Mr77sgcJG9dVf7HWEacGiqx4WLB1qaAkqTr4MgaIZ5XosypQtuPHylEAE/PTtTS/
kZo/GHkCAwEAAaOB6jCB5zAdBgNVHQ4EFgQUsI8n6sGW9QpsVejQd7/faiaTvHsw
HwYDVR0jBBgwFoAUXDTr7DjcgQYQN/3vIS7U5Rz4yjcwDgYDVR0PAQH/BAQDAgXg
MBMGA1UdJQQMMAoGCCsGAQUFBwMBMBcGA1UdEQQQMA6HBH8AAAGCBnNlcnZlcjBn
BggrBgEFBQcBAQRbMFkwIgYIKwYBBQUHMAGGFmh0dHA6Ly8xMjcuMC4wLjE6MjAw
MDIwMwYIKwYBBQUHMAKGJ2h0dHA6Ly8xMjcuMC4wLjE6MjAwMDEvY2E0L2NhNF9j
ZXJ0LmRlcjANBgkqhkiG9w0BAQsFAAOCAQEAbgWXwDRNlXC6mhIjMVSUluKdaJEu
XJ9L/ZOen6SyPvF2Hl6Crh6DYIfkS5gMmeUCPSgV+kgMkzU/vH50yN2b+O4QVExb
R7mtftaZfROicxnjwBCObk6deZqrotnOb3sAmkyLyPmql0FmSZ8vZJYJiQK5gVyF
hagRfeeBrg0eCxs7s/W4HFY46GSzmlJmcO2/8IsVf6lQ/4Asp37jy0AIA5ykYn8S
0+mo9spEkgOldRdn/MkBwJNanHO4R4KdvHTBBnztwqaiKNFHNqAdWYqK2TIKLEi0
mj3Iz/6Zb9eEcqG6qblPRqJpouhOEZMvhe+UPXsxhPHA8FQJPpmQbuxdvA==
-----END CERTIFICATE-----
