Certificate:
    Data:
        Version: 3 (0x2)
        Serial Number: 4098 (0x1002)
        Signature Algorithm: sha256WithRSAEncryption
        Issuer: C=US, ST=Florida, L=Jupiter, O=ZeroC, OU=Ice, CN=ZeroC Test CA 4/emailAddress=tests@zeroc.com
        Validity
            Not Before: May 22 16:16:14 2025 GMT
            Not After : Jun 24 16:16:14 2026 GMT
        Subject: CN=Server Unknown, C=US, ST=Florida, L=Jupiter, O=ZeroC, Inc., OU=Ice/emailAddress=info@zeroc.com
        Subject Public Key Info:
            Public Key Algorithm: rsaEncryption
                Public-Key: (2048 bit)
                Modulus:
                    00:90:b9:96:53:31:3b:0f:e4:a3:1d:2b:1d:ae:9b:
                    42:98:05:d7:f5:20:57:9f:c5:14:17:b6:d9:75:43:
                    0b:57:64:86:e6:b7:20:fa:b3:fc:63:20:6e:09:79:
                    99:d8:ba:30:1d:23:b1:63:80:8c:50:87:54:e4:2a:
                    70:40:8f:c4:e1:d5:d9:09:4a:5e:f4:98:e8:83:65:
                    e4:af:55:32:e5:c2:32:0c:9b:0e:2a:4d:47:38:48:
                    5a:3e:7a:13:5d:72:23:42:1a:81:c9:b7:72:63:ee:
                    ae:94:2b:6c:fc:55:37:b1:4f:6a:88:64:07:f4:e9:
                    8e:f3:a0:78:46:40:67:c0:de:c8:7d:f2:ba:85:32:
                    b0:4a:32:f4:e8:dc:8e:0b:ac:46:94:0c:eb:6a:03:
                    b2:3d:e8:d0:37:a4:de:f0:9b:d8:56:24:d2:8f:69:
                    a3:28:b0:fd:12:f3:01:89:26:0d:af:6d:2c:27:12:
                    d8:c3:12:8b:95:ed:fd:30:e3:1a:c0:ab:8b:4f:fd:
                    91:f5:f6:30:80:93:2c:25:77:6a:de:b0:ac:63:6d:
                    a2:36:f7:18:87:d2:40:b9:35:50:ea:b5:b7:c1:dd:
                    e5:37:cd:46:1c:74:a0:0a:55:f9:b5:b1:68:28:b7:
                    51:ab:c1:8b:c5:fc:71:aa:9f:f4:b3:5f:2c:8d:11:
                    36:69
                Exponent: 65537 (0x10001)
        X509v3 extensions:
            X509v3 Subject Key Identifier: 
                88:E4:B3:6E:BF:1D:8A:65:58:1B:9E:A0:AD:F7:7A:14:1F:92:7C:D6
            X509v3 Authority Key Identifier: 
                D2:89:F8:AE:77:32:EB:31:02:06:5D:F5:4C:9F:83:51:76:5D:8C:B3
            X509v3 Key Usage: critical
                Digital Signature, Non Repudiation, Key Encipherment
            X509v3 Extended Key Usage: 
                TLS Web Server Authentication
            X509v3 Subject Alternative Name: 
                IP Address:127.0.0.1, DNS:server
            Authority Information Access: 
                OCSP - URI:http://127.0.0.1:20002
                CA Issuers - URI:http://127.0.0.1:20001/ca4/ca4_cert.der
    Signature Algorithm: sha256WithRSAEncryption
    Signature Value:
        9d:27:c7:0f:e7:a0:48:8c:86:23:5a:bf:c0:28:f3:8c:5f:08:
        b6:68:b5:34:a4:59:bd:09:58:80:c0:4c:7f:83:3a:e3:2d:de:
        cf:31:ea:b4:0a:7e:60:24:e7:11:e4:29:b9:d9:a5:d5:9f:71:
        f8:7f:73:53:28:10:aa:ce:6f:8f:38:88:0b:97:f7:db:e1:df:
        2c:d9:3e:9b:46:eb:98:42:10:80:53:2c:a1:20:8b:9e:16:4d:
        ef:8d:23:ed:7d:7b:40:e5:bb:0d:d1:11:6a:2f:32:e5:b6:e9:
        19:84:58:cb:23:34:1a:8b:d0:33:51:b6:0e:31:f5:72:a7:1a:
        36:d3:4b:74:9e:0b:85:91:9f:d6:6a:db:b7:0d:e2:81:d0:64:
        29:68:e7:78:16:ba:4a:5c:0d:b1:15:7a:1a:28:80:22:4f:7b:
        07:8d:41:4e:d1:83:52:5b:a0:48:94:40:c1:f6:3d:49:3e:24:
        d2:10:17:48:29:76:de:ba:23:0c:13:86:5d:97:94:e8:76:56:
        9e:8c:99:da:31:ec:88:42:7c:b1:51:cf:8a:75:31:7a:10:0f:
        45:27:e2:3d:68:d9:13:9f:50:4f:62:4d:6c:13:22:23:5d:0a:
        bf:10:c2:a2:ab:5a:b3:2a:31:e6:93:aa:38:ab:7a:d1:2b:8e:
        29:d5:bf:8b
-----BEGIN CERTIFICATE-----
MIIEfzCCA2egAwIBAgICEAIwDQYJKoZIhvcNAQELBQAwgYkxCzAJBgNVBAYTAlVT
MRAwDgYDVQQIDAdGbG9yaWRhMRAwDgYDVQQHDAdKdXBpdGVyMQ4wDAYDVQQKDAVa
ZXJvQzEMMAoGA1UECwwDSWNlMRgwFgYDVQQDDA9aZXJvQyBUZXN0IENBIDQxHjAc
BgkqhkiG9w0BCQEWD3Rlc3RzQHplcm9jLmNvbTAeFw0yNTA1MjIxNjE2MTRaFw0y
NjA2MjQxNjE2MTRaMIGNMRcwFQYDVQQDDA5TZXJ2ZXIgVW5rbm93bjELMAkGA1UE
BhMCVVMxEDAOBgNVBAgMB0Zsb3JpZGExEDAOBgNVBAcMB0p1cGl0ZXIxFDASBgNV
BAoMC1plcm9DLCBJbmMuMQwwCgYDVQQLDANJY2UxHTAbBgkqhkiG9w0BCQEWDmlu
Zm9AemVyb2MuY29tMIIBIjANBgkqhkiG9w0BAQEFAAOCAQ8AMIIBCgKCAQEAkLmW
UzE7D+SjHSsdrptCmAXX9SBXn8UUF7bZdUMLV2SG5rcg+rP8YyBuCXmZ2LowHSOx
Y4CMUIdU5CpwQI/E4dXZCUpe9Jjog2Xkr1Uy5cIyDJsOKk1HOEhaPnoTXXIjQhqB
ybdyY+6ulCts/FU3sU9qiGQH9OmO86B4RkBnwN7IffK6hTKwSjL06NyOC6xGlAzr
agOyPejQN6Te8JvYViTSj2mjKLD9EvMBiSYNr20sJxLYwxKLle39MOMawKuLT/2R
9fYwgJMsJXdq3rCsY22iNvcYh9JAuTVQ6rW3wd3lN81GHHSgClX5tbFoKLdRq8GL
xfxxqp/0s18sjRE2aQIDAQABo4HqMIHnMB0GA1UdDgQWBBSI5LNuvx2KZVgbnqCt
93oUH5J81jAfBgNVHSMEGDAWgBTSifiudzLrMQIGXfVMn4NRdl2MszAOBgNVHQ8B
Af8EBAMCBeAwEwYDVR0lBAwwCgYIKwYBBQUHAwEwFwYDVR0RBBAwDocEfwAAAYIG
c2VydmVyMGcGCCsGAQUFBwEBBFswWTAiBggrBgEFBQcwAYYWaHR0cDovLzEyNy4w
LjAuMToyMDAwMjAzBggrBgEFBQcwAoYnaHR0cDovLzEyNy4wLjAuMToyMDAwMS9j
YTQvY2E0X2NlcnQuZGVyMA0GCSqGSIb3DQEBCwUAA4IBAQCdJ8cP56BIjIYjWr/A
KPOMXwi2aLU0pFm9CViAwEx/gzrjLd7PMeq0Cn5gJOcR5Cm52aXVn3H4f3NTKBCq
zm+POIgLl/fb4d8s2T6bRuuYQhCAUyyhIIueFk3vjSPtfXtA5bsN0RFqLzLltukZ
hFjLIzQai9AzUbYOMfVypxo200t0nguFkZ/Watu3DeKB0GQpaOd4FrpKXA2xFXoa
KIAiT3sHjUFO0YNSW6BIlEDB9j1JPiTSEBdIKXbeuiMME4Zdl5TodlaejJnaMeyI
QnyxUc+KdTF6EA9FJ+I9aNkTn1BPYk1sEyIjXQq/EMKiq1qzKjHmk6o4q3rRK44p
1b+L
-----END CERTIFICATE-----
