Certificate:
    Data:
        Version: 3 (0x2)
        Serial Number: 4099 (0x1003)
        Signature Algorithm: sha256WithRSAEncryption
        Issuer: C=US, ST=Florida, L=Jupiter, O=ZeroC, OU=Ice, CN=ZeroC Test CA 4/emailAddress=tests@zeroc.com
        Validity
            Not Before: May 22 16:55:19 2025 GMT
            Not After : Jun 24 16:55:19 2026 GMT
        Subject: CN=Server, C=US, ST=Florida, L=Jupiter, O=ZeroC, Inc., OU=Ice/emailAddress=info@zeroc.com
        Subject Public Key Info:
            Public Key Algorithm: rsaEncryption
                Public-Key: (2048 bit)
                Modulus:
                    00:e3:fa:77:72:91:5e:80:94:8c:b6:74:ac:ef:eb:
                    fe:92:72:d8:a3:a1:1a:01:bf:26:1f:6e:7e:ba:41:
                    73:ac:ab:3c:7d:05:23:92:5f:e0:1a:15:e2:eb:7f:
                    33:d2:e2:d3:ce:e8:e5:c7:e8:a8:ee:56:ba:47:14:
                    af:fe:68:7e:58:1f:12:8a:89:5d:53:d0:9a:15:e2:
                    60:cb:f7:d0:ff:ba:67:64:01:22:6d:88:2e:1f:05:
                    a5:3b:c8:d2:36:b7:8e:e6:de:e4:5d:f8:55:c5:5b:
                    12:06:b0:d4:6a:ef:1e:f9:cb:9e:60:7a:6f:b5:fc:
                    08:67:92:cd:ea:e8:4f:3e:3f:f4:68:12:1e:88:d0:
                    51:9b:c1:c9:e2:c5:51:27:33:6d:84:a0:5d:dc:df:
                    79:67:47:d1:44:71:7a:92:c0:9c:ec:90:a0:8d:72:
                    43:c9:f5:69:ee:42:a2:9c:07:ed:67:3a:e8:fd:42:
                    60:e3:36:e8:0e:84:43:1b:d8:6e:2c:b1:12:78:0f:
                    4f:b9:e9:56:5c:c3:81:d9:6a:9f:de:c8:66:9b:93:
                    d8:5a:ca:53:2d:0c:c4:c8:e4:d7:a7:d8:12:d7:31:
                    e2:82:48:d7:bd:9d:f5:4a:d2:7a:51:9f:61:7a:e1:
                    ed:59:76:6b:3d:16:14:6c:fd:5a:d1:6c:c4:b8:a9:
                    41:a1
                Exponent: 65537 (0x10001)
        X509v3 extensions:
            X509v3 Subject Key Identifier: 
                9F:72:C1:4A:82:0A:F6:58:50:10:E1:7E:EB:FF:6A:40:94:2D:D3:C8
            X509v3 Authority Key Identifier: 
                28:B7:50:F2:A4:60:A3:FA:AE:00:DE:C5:9F:48:6D:22:B2:24:9C:0F
            X509v3 Key Usage: critical
                Digital Signature, Non Repudiation, Key Encipherment
            X509v3 Extended Key Usage: 
                TLS Web Server Authentication
            X509v3 Subject Alternative Name: 
                IP Address:127.0.0.1, DNS:server
            Authority Information Access: 
                OCSP - URI:http://127.0.0.1:20002
                CA Issuers - URI:http://127.0.0.1:20001/ca4/ca4_cert.der
    Signature Algorithm: sha256WithRSAEncryption
    Signature Value:
        79:0c:11:1b:90:37:82:70:4d:1b:8e:28:0e:7b:91:33:1f:10:
        c5:97:55:f7:a0:97:08:41:11:b1:3c:c9:b9:27:0c:f1:9b:06:
        e2:dc:2d:61:0e:fc:b2:eb:42:79:5e:6c:96:98:2d:3a:57:7a:
        26:7f:83:c6:86:8d:e6:8e:f3:68:6e:18:c7:62:6b:fe:e6:30:
        db:5d:50:fa:29:d8:a6:d9:e8:c5:a2:b2:70:f7:26:5b:c4:d0:
        5e:77:f4:b7:4a:a7:7d:55:a3:c2:f9:58:bc:bb:f8:e3:b2:63:
        6d:a4:f8:77:1e:98:cc:30:b0:95:48:69:70:fa:d2:63:b2:c9:
        13:e1:52:e4:28:29:f3:7e:35:a1:da:5e:13:a6:d3:67:30:f4:
        45:7f:60:0d:b7:b0:3f:e0:61:7d:40:4d:25:9b:33:7a:5e:bd:
        7c:71:91:f9:bd:d3:ed:e4:7b:4e:37:f7:45:ee:bd:7e:ab:4d:
        d8:6c:69:94:54:26:27:85:52:7f:ff:0d:ce:3d:72:c9:fb:a8:
        68:fe:6a:ea:a6:38:11:75:56:db:90:08:3a:29:44:31:4f:27:
        c2:7b:c4:11:e2:e1:0e:c5:73:65:a9:bb:df:c5:ab:75:e8:42:
        6e:c1:c0:ef:f1:97:92:19:a5:3b:20:f1:08:ce:b8:1c:b6:3d:
        4d:d0:2f:34
-----BEGIN CERTIFICATE-----
MIIEdzCCA1+gAwIBAgICEAMwDQYJKoZIhvcNAQELBQAwgYkxCzAJBgNVBAYTAlVT
MRAwDgYDVQQIDAdGbG9yaWRhMRAwDgYDVQQHDAdKdXBpdGVyMQ4wDAYDVQQKDAVa
ZXJvQzEMMAoGA1UECwwDSWNlMRgwFgYDVQQDDA9aZXJvQyBUZXN0IENBIDQxHjAc
BgkqhkiG9w0BCQEWD3Rlc3RzQHplcm9jLmNvbTAeFw0yNTA1MjIxNjU1MTlaFw0y
NjA2MjQxNjU1MTlaMIGFMQ8wDQYDVQQDDAZTZXJ2ZXIxCzAJBgNVBAYTAlVTMRAw
DgYDVQQIDAdGbG9yaWRhMRAwDgYDVQQHDAdKdXBpdGVyMRQwEgYDVQQKDAtaZXJv
QywgSW5jLjEMMAoGA1UECwwDSWNlMR0wGwYJKoZIhvcNAQkBFg5pbmZvQHplcm9j
LmNvbTCCASIwDQYJKoZIhvcNAQEBBQADggEPADCCAQoCggEBAOP6d3KRXoCUjLZ0
rO/r/pJy2KOhGgG/Jh9ufrpBc6yrPH0FI5Jf4BoV4ut/M9Li087o5cfoqO5WukcU
r/5oflgfEoqJXVPQmhXiYMv30P+6Z2QBIm2ILh8FpTvI0ja3jube5F34VcVbEgaw
1GrvHvnLnmB6b7X8CGeSzeroTz4/9GgSHojQUZvByeLFUSczbYSgXdzfeWdH0URx
epLAnOyQoI1yQ8n1ae5CopwH7Wc66P1CYOM26A6EQxvYbiyxEngPT7npVlzDgdlq
n97IZpuT2FrKUy0MxMjk16fYEtcx4oJI172d9UrSelGfYXrh7Vl2az0WFGz9WtFs
xLipQaECAwEAAaOB6jCB5zAdBgNVHQ4EFgQUn3LBSoIK9lhQEOF+6/9qQJQt08gw
HwYDVR0jBBgwFoAUKLdQ8qRgo/quAN7Fn0htIrIknA8wDgYDVR0PAQH/BAQDAgXg
MBMGA1UdJQQMMAoGCCsGAQUFBwMBMBcGA1UdEQQQMA6HBH8AAAGCBnNlcnZlcjBn
BggrBgEFBQcBAQRbMFkwIgYIKwYBBQUHMAGGFmh0dHA6Ly8xMjcuMC4wLjE6MjAw
MDIwMwYIKwYBBQUHMAKGJ2h0dHA6Ly8xMjcuMC4wLjE6MjAwMDEvY2E0L2NhNF9j
ZXJ0LmRlcjANBgkqhkiG9w0BAQsFAAOCAQEAeQwRG5A3gnBNG44oDnuRMx8QxZdV
96CXCEERsTzJuScM8ZsG4twtYQ78sutCeV5slpgtOld6Jn+DxoaN5o7zaG4Yx2Jr
/uYw211Q+inYptnoxaKycPcmW8TQXnf0t0qnfVWjwvlYvLv447JjbaT4dx6YzDCw
lUhpcPrSY7LJE+FS5Cgp8341odpeE6bTZzD0RX9gDbewP+BhfUBNJZszel69fHGR
+b3T7eR7Tjf3Re69fqtN2GxplFQmJ4VSf/8Nzj1yyfuoaP5q6qY4EXVW25AIOilE
MU8nwnvEEeLhDsVzZam738WrdehCbsHA7/GXkhmlOyDxCM64HLY9TdAvNA==
-----END CERTIFICATE-----
