Certificate:
    Data:
        Version: 3 (0x2)
        Serial Number: 4098 (0x1002)
        Signature Algorithm: sha256WithRSAEncryption
        Issuer: C=US, ST=Florida, L=Jupiter, O=ZeroC, OU=Ice, CN=ZeroC Test CA 4/emailAddress=tests@zeroc.com
        Validity
            Not Before: May 22 15:10:19 2025 GMT
            Not After : Jun 24 15:10:19 2026 GMT
        Subject: CN=Server Unknown, C=US, ST=Florida, L=Jupiter, O=ZeroC, Inc., OU=Ice/emailAddress=info@zeroc.com
        Subject Public Key Info:
            Public Key Algorithm: rsaEncryption
                Public-Key: (2048 bit)
                Modulus:
                    00:c9:09:e5:52:c9:0e:5e:a6:1e:03:85:8f:55:de:
                    f1:59:be:35:a9:81:b0:28:68:8b:c3:8a:e1:be:71:
                    de:5a:16:0e:52:a7:16:dd:ef:59:42:78:46:7c:1c:
                    ff:14:4f:85:8d:8f:a2:b2:82:2b:55:2f:a5:c8:8e:
                    30:cc:9a:8b:d8:f1:1d:a8:4b:f5:f2:4f:ef:3a:5f:
                    46:c5:59:d8:63:84:21:56:ab:1e:a3:ae:78:48:54:
                    45:a5:51:e4:54:40:52:c2:ee:eb:a3:f7:57:3c:f1:
                    a0:75:a7:25:f0:d4:90:22:d9:e6:24:fa:70:60:04:
                    c3:2b:74:4b:bc:24:8f:c2:06:cb:f4:af:b8:b4:08:
                    2d:bf:ca:05:c9:d7:f6:15:bb:cb:17:bb:cc:7d:8a:
                    5e:b8:89:16:66:30:74:38:c4:6c:b1:06:db:54:0b:
                    44:98:80:2f:46:47:c1:1e:90:fa:4b:25:4f:f6:d7:
                    9f:b7:b6:e1:44:9b:ad:b5:b8:4d:a8:88:66:c5:3f:
                    52:56:55:d7:ff:e4:f5:51:7c:7a:9f:43:2e:8c:68:
                    29:d5:ff:ff:37:c1:56:01:11:3e:d0:d8:cb:d1:f5:
                    15:e3:2c:f0:ae:06:03:c4:e7:36:43:15:e7:6a:80:
                    b2:0e:fc:d2:8c:0a:7f:3d:1e:1d:28:0a:e1:7e:a3:
                    7d:47
                Exponent: 65537 (0x10001)
        X509v3 extensions:
            X509v3 Subject Key Identifier: 
                9E:00:8D:51:EC:A0:57:CB:AE:B0:99:E5:E7:2B:A8:8C:C9:BF:23:5F
            X509v3 Authority Key Identifier: 
                5C:34:EB:EC:38:DC:81:06:10:37:FD:EF:21:2E:D4:E5:1C:F8:CA:37
            X509v3 Key Usage: critical
                Digital Signature, Non Repudiation, Key Encipherment
            X509v3 Extended Key Usage: 
                TLS Web Server Authentication
            X509v3 Subject Alternative Name: 
                IP Address:127.0.0.1, DNS:server
            Authority Information Access: 
                OCSP - URI:http://127.0.0.1:20002
                CA Issuers - URI:http://127.0.0.1:20001/ca4/ca4_cert.der
    Signature Algorithm: sha256WithRSAEncryption
    Signature Value:
        a5:2e:a8:e5:8b:08:a5:e0:a6:fd:94:7e:ca:92:cb:bd:e7:57:
        ea:66:25:4e:ee:cd:2b:43:76:61:36:cf:54:9c:0e:02:c4:f1:
        b5:3e:e0:a5:d5:78:d4:c7:d4:57:6a:a6:c7:dc:67:0b:3d:ff:
        98:1c:36:99:f9:93:85:37:b7:e4:e1:51:1c:f9:e4:41:60:f6:
        88:c6:fd:29:a2:35:f7:f6:73:e8:27:e2:ac:43:2e:ff:c2:f2:
        0f:4f:58:36:a0:89:84:ad:ca:2a:ba:fd:61:29:fa:f2:6f:d9:
        82:5f:46:c3:70:32:c4:5a:65:58:82:50:98:6c:46:9f:38:6f:
        b8:04:f2:61:56:ef:f2:83:48:03:21:b3:8d:55:e2:a9:ed:7b:
        84:32:cc:28:41:5a:18:c5:af:35:d7:8c:ee:98:b0:39:ec:07:
        a3:7d:d8:e7:00:b9:61:b4:d7:b0:c5:82:fb:a9:5b:8f:0b:5b:
        76:53:07:43:3f:06:29:5c:22:83:e6:45:80:1a:c5:19:f0:bd:
        bd:6e:bc:52:e9:30:a2:92:f8:eb:6f:2b:5d:d4:ae:a3:53:03:
        66:37:9c:63:7f:75:e0:f7:f9:f2:a7:7d:bd:f2:a8:8e:6b:8b:
        f5:45:4e:70:99:74:be:4b:7a:8b:c0:78:57:51:29:2d:6b:64:
        89:68:92:df
-----BEGIN CERTIFICATE-----
MIIEfzCCA2egAwIBAgICEAIwDQYJKoZIhvcNAQELBQAwgYkxCzAJBgNVBAYTAlVT
MRAwDgYDVQQIDAdGbG9yaWRhMRAwDgYDVQQHDAdKdXBpdGVyMQ4wDAYDVQQKDAVa
ZXJvQzEMMAoGA1UECwwDSWNlMRgwFgYDVQQDDA9aZXJvQyBUZXN0IENBIDQxHjAc
BgkqhkiG9w0BCQEWD3Rlc3RzQHplcm9jLmNvbTAeFw0yNTA1MjIxNTEwMTlaFw0y
NjA2MjQxNTEwMTlaMIGNMRcwFQYDVQQDDA5TZXJ2ZXIgVW5rbm93bjELMAkGA1UE
BhMCVVMxEDAOBgNVBAgMB0Zsb3JpZGExEDAOBgNVBAcMB0p1cGl0ZXIxFDASBgNV
BAoMC1plcm9DLCBJbmMuMQwwCgYDVQQLDANJY2UxHTAbBgkqhkiG9w0BCQEWDmlu
Zm9AemVyb2MuY29tMIIBIjANBgkqhkiG9w0BAQEFAAOCAQ8AMIIBCgKCAQEAyQnl
UskOXqYeA4WPVd7xWb41qYGwKGiLw4rhvnHeWhYOUqcW3e9ZQnhGfBz/FE+FjY+i
soIrVS+lyI4wzJqL2PEdqEv18k/vOl9GxVnYY4QhVqseo654SFRFpVHkVEBSwu7r
o/dXPPGgdacl8NSQItnmJPpwYATDK3RLvCSPwgbL9K+4tAgtv8oFydf2FbvLF7vM
fYpeuIkWZjB0OMRssQbbVAtEmIAvRkfBHpD6SyVP9teft7bhRJuttbhNqIhmxT9S
VlXX/+T1UXx6n0MujGgp1f//N8FWARE+0NjL0fUV4yzwrgYDxOc2QxXnaoCyDvzS
jAp/PR4dKArhfqN9RwIDAQABo4HqMIHnMB0GA1UdDgQWBBSeAI1R7KBXy66wmeXn
K6iMyb8jXzAfBgNVHSMEGDAWgBRcNOvsONyBBhA3/e8hLtTlHPjKNzAOBgNVHQ8B
Af8EBAMCBeAwEwYDVR0lBAwwCgYIKwYBBQUHAwEwFwYDVR0RBBAwDocEfwAAAYIG
c2VydmVyMGcGCCsGAQUFBwEBBFswWTAiBggrBgEFBQcwAYYWaHR0cDovLzEyNy4w
LjAuMToyMDAwMjAzBggrBgEFBQcwAoYnaHR0cDovLzEyNy4wLjAuMToyMDAwMS9j
YTQvY2E0X2NlcnQuZGVyMA0GCSqGSIb3DQEBCwUAA4IBAQClLqjliwil4Kb9lH7K
ksu951fqZiVO7s0rQ3ZhNs9UnA4CxPG1PuCl1XjUx9RXaqbH3GcLPf+YHDaZ+ZOF
N7fk4VEc+eRBYPaIxv0pojX39nPoJ+KsQy7/wvIPT1g2oImErcoquv1hKfryb9mC
X0bDcDLEWmVYglCYbEafOG+4BPJhVu/yg0gDIbONVeKp7XuEMswoQVoYxa8114zu
mLA57AejfdjnALlhtNewxYL7qVuPC1t2UwdDPwYpXCKD5kWAGsUZ8L29brxS6TCi
kvjrbytd1K6jUwNmN5xjf3Xg9/nyp3298qiOa4v1RU5wmXS+S3qLwHhXUSkta2SJ
aJLf
-----END CERTIFICATE-----
