Certificate:
    Data:
        Version: 3 (0x2)
        Serial Number: 4097 (0x1001)
        Signature Algorithm: sha256WithRSAEncryption
        Issuer: C=US, ST=Florida, L=Jupiter, O=ZeroC, OU=Ice, CN=ZeroC Test CA 4/emailAddress=tests@zeroc.com
        Validity
            Not Before: May 22 16:16:13 2025 GMT
            Not After : Jun 24 16:16:13 2026 GMT
        Subject: CN=Server Revoked, C=US, ST=Florida, L=Jupiter, O=ZeroC, Inc., OU=Ice/emailAddress=info@zeroc.com
        Subject Public Key Info:
            Public Key Algorithm: rsaEncryption
                Public-Key: (2048 bit)
                Modulus:
                    00:ce:f2:5c:e4:0a:52:21:43:d5:3a:52:50:9b:d8:
                    9d:78:0b:4c:d1:28:87:89:dd:7b:8e:40:32:7e:b6:
                    73:7d:d1:51:fa:fe:8e:87:b0:3e:50:bd:de:59:da:
                    1f:72:78:e9:f1:a9:e9:ff:4c:a7:4d:6a:08:00:d5:
                    76:a0:45:be:92:1a:ea:6d:ee:c5:49:30:aa:c5:c3:
                    f9:e3:cc:8d:8f:5a:2d:96:82:94:0a:9e:5e:f7:db:
                    97:9b:ce:33:5d:86:5b:88:46:01:b9:d0:bb:a5:86:
                    7d:fd:3c:c0:40:c2:41:ae:90:b9:c0:2d:e6:8b:28:
                    3f:bc:f0:e1:fa:2c:b5:07:8e:b5:b8:84:82:bb:7a:
                    94:68:57:5c:23:97:6b:8a:fa:04:c1:d3:a2:bf:58:
                    69:71:01:ee:c1:14:82:49:9d:2e:bc:a1:5b:cf:f9:
                    fb:c1:87:e2:9a:1a:f3:47:87:35:85:4e:e8:31:52:
                    c7:60:ae:9f:5f:9d:e0:80:45:98:db:4a:36:91:f8:
                    a6:c5:17:e6:a3:eb:70:7d:f8:e4:98:1e:ad:54:e3:
                    8a:36:3c:91:19:4c:96:4c:a5:75:84:13:1b:87:f1:
                    0a:47:bc:1c:9a:f4:3b:e4:fb:38:a7:38:6d:27:62:
                    04:1c:5d:a2:ed:32:49:62:39:9e:79:47:0c:d4:14:
                    b2:ff
                Exponent: 65537 (0x10001)
        X509v3 extensions:
            X509v3 Subject Key Identifier: 
                0B:6A:6A:F0:1B:9E:15:5A:99:A9:CA:1E:A2:7C:F7:9A:CB:55:05:1F
            X509v3 Authority Key Identifier: 
                D2:89:F8:AE:77:32:EB:31:02:06:5D:F5:4C:9F:83:51:76:5D:8C:B3
            X509v3 Key Usage: critical
                Digital Signature, Non Repudiation, Key Encipherment
            X509v3 Extended Key Usage: 
                TLS Web Client Authentication
            Authority Information Access: 
                OCSP - URI:http://127.0.0.1:20002
                CA Issuers - URI:http://127.0.0.1:20001/ca4/ca4_cert.der
            X509v3 Subject Alternative Name: 
                IP Address:127.0.0.1, DNS:client
    Signature Algorithm: sha256WithRSAEncryption
    Signature Value:
        1b:8f:17:e2:2c:7b:a6:9c:8a:b9:93:d6:95:13:4a:b1:e9:60:
        0f:a2:5d:b7:21:27:59:90:06:04:a9:d0:c1:3f:42:c1:1f:53:
        10:f2:29:1b:87:b0:f1:68:b8:ee:39:18:0e:e0:28:4a:45:b2:
        87:f5:81:e8:56:f5:5c:64:51:0f:d4:65:c4:88:01:35:9e:9d:
        c2:d8:44:d8:3c:bb:80:b2:b3:ea:a6:2c:ca:32:38:b3:c5:2b:
        8d:ef:99:22:6c:e9:14:d0:cf:a9:52:1b:f4:48:bf:c0:91:e8:
        8a:52:40:0b:96:56:02:c6:27:08:06:6c:b8:3a:ba:0a:2c:b7:
        24:8f:14:c9:fb:4e:27:62:71:bc:cf:f2:0c:de:fc:88:c7:4b:
        d0:aa:9c:ab:91:64:8b:7e:88:2b:8b:75:3e:31:a8:6b:2e:47:
        fb:55:0b:e4:b8:3f:5c:68:ed:6c:5f:2e:a5:09:7f:cc:1f:ce:
        b9:c2:68:bf:2f:98:e7:d8:22:7e:72:f1:31:ae:28:1e:93:16:
        a0:f7:31:d1:53:d0:9e:d9:7f:14:62:60:ad:7f:63:2c:50:9a:
        f8:c6:5c:03:7c:35:99:4c:d1:93:cf:53:8c:8f:68:ba:b8:c6:
        c4:93:15:9d:61:87:79:36:b4:e8:c3:f2:5d:fb:be:ba:8e:9b:
        d4:4b:69:cb
-----BEGIN CERTIFICATE-----
MIIEfzCCA2egAwIBAgICEAEwDQYJKoZIhvcNAQELBQAwgYkxCzAJBgNVBAYTAlVT
MRAwDgYDVQQIDAdGbG9yaWRhMRAwDgYDVQQHDAdKdXBpdGVyMQ4wDAYDVQQKDAVa
ZXJvQzEMMAoGA1UECwwDSWNlMRgwFgYDVQQDDA9aZXJvQyBUZXN0IENBIDQxHjAc
BgkqhkiG9w0BCQEWD3Rlc3RzQHplcm9jLmNvbTAeFw0yNTA1MjIxNjE2MTNaFw0y
NjA2MjQxNjE2MTNaMIGNMRcwFQYDVQQDDA5TZXJ2ZXIgUmV2b2tlZDELMAkGA1UE
BhMCVVMxEDAOBgNVBAgMB0Zsb3JpZGExEDAOBgNVBAcMB0p1cGl0ZXIxFDASBgNV
BAoMC1plcm9DLCBJbmMuMQwwCgYDVQQLDANJY2UxHTAbBgkqhkiG9w0BCQEWDmlu
Zm9AemVyb2MuY29tMIIBIjANBgkqhkiG9w0BAQEFAAOCAQ8AMIIBCgKCAQEAzvJc
5ApSIUPVOlJQm9ideAtM0SiHid17jkAyfrZzfdFR+v6Oh7A+UL3eWdofcnjp8anp
/0ynTWoIANV2oEW+khrqbe7FSTCqxcP548yNj1otloKUCp5e99uXm84zXYZbiEYB
udC7pYZ9/TzAQMJBrpC5wC3miyg/vPDh+iy1B461uISCu3qUaFdcI5drivoEwdOi
v1hpcQHuwRSCSZ0uvKFbz/n7wYfimhrzR4c1hU7oMVLHYK6fX53ggEWY20o2kfim
xRfmo+twffjkmB6tVOOKNjyRGUyWTKV1hBMbh/EKR7wcmvQ75Ps4pzhtJ2IEHF2i
7TJJYjmeeUcM1BSy/wIDAQABo4HqMIHnMB0GA1UdDgQWBBQLamrwG54VWpmpyh6i
fPeay1UFHzAfBgNVHSMEGDAWgBTSifiudzLrMQIGXfVMn4NRdl2MszAOBgNVHQ8B
Af8EBAMCBeAwEwYDVR0lBAwwCgYIKwYBBQUHAwIwZwYIKwYBBQUHAQEEWzBZMCIG
CCsGAQUFBzABhhZodHRwOi8vMTI3LjAuMC4xOjIwMDAyMDMGCCsGAQUFBzAChido
dHRwOi8vMTI3LjAuMC4xOjIwMDAxL2NhNC9jYTRfY2VydC5kZXIwFwYDVR0RBBAw
DocEfwAAAYIGY2xpZW50MA0GCSqGSIb3DQEBCwUAA4IBAQAbjxfiLHumnIq5k9aV
E0qx6WAPol23ISdZkAYEqdDBP0LBH1MQ8ikbh7DxaLjuORgO4ChKRbKH9YHoVvVc
ZFEP1GXEiAE1np3C2ETYPLuAsrPqpizKMjizxSuN75kibOkU0M+pUhv0SL/AkeiK
UkALllYCxicIBmy4OroKLLckjxTJ+04nYnG8z/IM3vyIx0vQqpyrkWSLfogri3U+
MahrLkf7VQvkuD9caO1sXy6lCX/MH865wmi/L5jn2CJ+cvExrigekxag9zHRU9Ce
2X8UYmCtf2MsUJr4xlwDfDWZTNGTz1OMj2i6uMbEkxWdYYd5NrTow/Jd+766jpvU
S2nL
-----END CERTIFICATE-----
