Certificate:
    Data:
        Version: 3 (0x2)
        Serial Number: 4096 (0x1000)
        Signature Algorithm: sha256WithRSAEncryption
        Issuer: C=US, ST=Florida, L=Jupiter, O=ZeroC, OU=Ice, CN=ZeroC Test CA 5/emailAddress=tests@zeroc.com
        Validity
            Not Before: Jun 25 16:16:03 2026 GMT
            Not After : Jul 28 16:16:03 2027 GMT
        Subject: CN=CA1 Intermediate 5 (Not Yet), C=US, ST=Florida, L=Jupiter, O=ZeroC, OU=Ice/emailAddress=tests@zeroc.com
        Subject Public Key Info:
            Public Key Algorithm: rsaEncryption
                Public-Key: (2048 bit)
                Modulus:
                    00:a6:34:58:7d:4f:b0:b4:a8:c0:ed:8a:2e:3e:44:
                    1f:84:be:e0:10:90:5b:22:89:26:9d:08:db:cf:74:
                    de:79:46:8d:b2:4b:06:27:90:14:f9:c9:3f:d6:ed:
                    5d:ce:10:d8:41:1f:0e:fa:4e:57:1f:9f:38:32:a8:
                    d2:34:df:77:ed:fd:55:4c:5e:e1:bc:e0:0e:7a:2f:
                    13:cb:d1:05:e2:80:ff:27:7b:47:33:36:ef:b8:57:
                    b2:e5:e6:5f:ea:a6:ba:a1:5a:40:37:6c:77:36:89:
                    12:a4:be:1e:ec:26:88:99:8b:eb:db:d7:90:14:48:
                    18:27:5e:ad:8c:80:0e:5d:0c:e7:62:d4:47:75:cb:
                    12:17:a0:52:35:81:4e:54:6e:69:1d:37:22:eb:ea:
                    cf:dc:23:a5:9c:39:56:48:09:f1:5d:70:e4:d9:92:
                    88:b2:e0:5e:64:2d:bf:39:0c:d8:ed:da:94:62:e6:
                    df:ff:9c:a5:8f:61:b7:ab:ed:c7:f8:29:bc:1e:a6:
                    c5:68:16:cd:90:5e:57:29:28:74:fa:01:b1:4e:a4:
                    d7:17:42:66:41:2c:d1:9c:83:f5:65:4b:35:0a:8f:
                    97:b8:8b:39:9c:21:81:27:93:95:97:ca:48:16:10:
                    33:36:dd:bf:b4:f4:0f:c9:2c:aa:27:26:8f:2f:fa:
                    26:83
                Exponent: 65537 (0x10001)
        X509v3 extensions:
            X509v3 Subject Key Identifier: 
                40:61:B4:64:B8:1F:A5:0F:91:1F:F1:02:CD:5B:1F:32:1C:2E:16:9F
            X509v3 Authority Key Identifier: 
                E1:B5:36:FD:16:CC:5E:39:07:0F:5F:E7:30:76:98:A7:FA:E4:D3:88
            X509v3 Basic Constraints: critical
                CA:TRUE
            X509v3 Key Usage: critical
                Digital Signature, Certificate Sign, CRL Sign
    Signature Algorithm: sha256WithRSAEncryption
    Signature Value:
        c1:87:87:7b:1c:a3:ab:71:e0:c0:1e:19:14:20:9f:11:a4:a8:
        0d:b9:9b:1b:9c:0c:c9:29:05:a4:43:85:8c:40:02:fa:83:e4:
        97:77:eb:8f:15:0d:94:f4:e8:da:11:5d:d3:0d:de:6f:02:9c:
        9b:c9:14:6d:de:d3:2f:cd:82:b2:81:2c:58:41:f7:6d:3f:0d:
        e5:40:aa:99:3d:ea:2b:a6:4b:73:97:a7:d9:2d:ac:93:3f:8d:
        35:76:74:4d:18:55:ff:0e:62:c4:40:e6:60:7f:07:b7:15:3e:
        60:8a:31:44:cc:55:6a:23:fa:8f:6e:ec:17:7c:1f:92:8a:2d:
        dd:df:5a:1c:f0:ca:3f:ba:10:37:06:0f:14:f9:02:ac:6e:51:
        49:c1:e2:2f:ca:5a:e6:5d:67:2f:39:e8:bd:f1:7f:f4:57:00:
        ec:1a:12:cf:38:f0:50:11:cb:51:70:d2:c2:a6:9a:43:93:93:
        58:f0:65:4c:5a:3a:4f:ee:04:46:72:c1:80:fd:72:46:7f:96:
        97:f7:0b:05:64:ac:00:9c:06:dd:50:df:41:ff:99:0b:eb:e8:
        cc:7c:12:4d:89:ae:ea:93:5f:cd:e4:f8:c1:3d:5f:7f:ca:50:
        62:a6:6e:df:55:a8:ac:86:a9:71:2e:3a:9b:39:64:04:b8:05:
        8a:6e:c5:92
-----BEGIN CERTIFICATE-----
MIIEADCCAuigAwIBAgICEAAwDQYJKoZIhvcNAQELBQAwgYkxCzAJBgNVBAYTAlVT
MRAwDgYDVQQIDAdGbG9yaWRhMRAwDgYDVQQHDAdKdXBpdGVyMQ4wDAYDVQQKDAVa
ZXJvQzEMMAoGA1UECwwDSWNlMRgwFgYDVQQDDA9aZXJvQyBUZXN0IENBIDUxHjAc
BgkqhkiG9w0BCQEWD3Rlc3RzQHplcm9jLmNvbTAeFw0yNjA2MjUxNjE2MDNaFw0y
NzA3MjgxNjE2MDNaMIGWMSUwIwYDVQQDDBxDQTEgSW50ZXJtZWRpYXRlIDUgKE5v
dCBZZXQpMQswCQYDVQQGEwJVUzEQMA4GA1UECAwHRmxvcmlkYTEQMA4GA1UEBwwH
SnVwaXRlcjEOMAwGA1UECgwFWmVyb0MxDDAKBgNVBAsMA0ljZTEeMBwGCSqGSIb3
DQEJARYPdGVzdHNAemVyb2MuY29tMIIBIjANBgkqhkiG9w0BAQEFAAOCAQ8AMIIB
CgKCAQEApjRYfU+wtKjA7YouPkQfhL7gEJBbIokmnQjbz3TeeUaNsksGJ5AU+ck/
1u1dzhDYQR8O+k5XH584MqjSNN937f1VTF7hvOAOei8Ty9EF4oD/J3tHMzbvuFey
5eZf6qa6oVpAN2x3NokSpL4e7CaImYvr29eQFEgYJ16tjIAOXQznYtRHdcsSF6BS
NYFOVG5pHTci6+rP3COlnDlWSAnxXXDk2ZKIsuBeZC2/OQzY7dqUYubf/5ylj2G3
q+3H+Cm8HqbFaBbNkF5XKSh0+gGxTqTXF0JmQSzRnIP1ZUs1Co+XuIs5nCGBJ5OV
l8pIFhAzNt2/tPQPySyqJyaPL/omgwIDAQABo2MwYTAdBgNVHQ4EFgQUQGG0ZLgf
pQ+RH/ECzVsfMhwuFp8wHwYDVR0jBBgwFoAU4bU2/RbMXjkHD1/nMHaYp/rk04gw
DwYDVR0TAQH/BAUwAwEB/zAOBgNVHQ8BAf8EBAMCAYYwDQYJKoZIhvcNAQELBQAD
ggEBAMGHh3sco6tx4MAeGRQgnxGkqA25mxucDMkpBaRDhYxAAvqD5Jd3648VDZT0
6NoRXdMN3m8CnJvJFG3e0y/NgrKBLFhB920/DeVAqpk96iumS3OXp9ktrJM/jTV2
dE0YVf8OYsRA5mB/B7cVPmCKMUTMVWoj+o9u7Bd8H5KKLd3fWhzwyj+6EDcGDxT5
AqxuUUnB4i/KWuZdZy856L3xf/RXAOwaEs848FARy1Fw0sKmmkOTk1jwZUxaOk/u
BEZywYD9ckZ/lpf3CwVkrACcBt1Q30H/mQvr6Mx8Ek2JruqTX83k+ME9X3/KUGKm
bt9VqKyGqXEuOps5ZAS4BYpuxZI=
-----END CERTIFICATE-----
