Certificate:
    Data:
        Version: 3 (0x2)
        Serial Number: 4096 (0x1000)
        Signature Algorithm: sha256WithRSAEncryption
        Issuer: C=US, ST=Florida, L=Jupiter, O=ZeroC, OU=Ice, CN=ZeroC Test CA 5/emailAddress=tests@zeroc.com
        Validity
            Not Before: Jun 25 16:55:07 2026 GMT
            Not After : Jul 28 16:55:07 2027 GMT
        Subject: CN=CA1 Intermediate 5 (Not Yet), C=US, ST=Florida, L=Jupiter, O=ZeroC, OU=Ice/emailAddress=tests@zeroc.com
        Subject Public Key Info:
            Public Key Algorithm: rsaEncryption
                Public-Key: (2048 bit)
                Modulus:
                    00:c7:18:1c:46:94:85:e0:d7:a4:60:3c:81:25:f9:
                    b6:c6:95:ae:9e:b9:8a:41:da:87:fc:97:96:d4:2f:
                    82:78:3a:5f:7f:94:95:1d:e3:ca:e5:d2:5b:3c:10:
                    b3:35:f2:74:d6:a1:b3:c1:9d:5d:f9:48:cf:29:98:
                    b4:85:f2:57:b7:ba:3d:8f:3d:5a:a9:7f:4a:59:73:
                    62:00:de:13:64:1b:81:4f:ce:21:29:60:3e:64:63:
                    1c:13:70:c2:d3:48:e1:1b:a1:7d:ed:b8:de:ca:59:
                    05:c8:77:ab:f3:45:2e:69:e1:e0:67:75:5f:0b:e8:
                    cd:c7:d4:6e:ca:3c:e8:61:f1:86:c1:8d:f1:32:06:
                    ca:4d:68:35:65:d7:61:73:c6:ef:ff:23:a3:98:7c:
                    a5:36:58:51:76:16:2a:fd:9f:3e:2a:f9:e0:ce:f6:
                    58:0d:f4:a3:da:87:07:8d:dd:3e:24:a7:ff:b9:69:
                    51:54:4f:f9:15:f9:55:47:67:55:af:a2:73:9e:12:
                    08:79:dc:94:e8:99:9e:6b:8e:51:20:94:4d:b9:0d:
                    10:3a:ad:f7:19:da:40:d1:0b:51:da:ac:92:55:5b:
                    d8:ea:40:b0:26:70:86:ca:90:c3:ee:66:34:49:28:
                    33:d4:83:c0:72:09:24:9a:ae:0a:c0:40:77:34:09:
                    af:b3
                Exponent: 65537 (0x10001)
        X509v3 extensions:
            X509v3 Subject Key Identifier: 
                E2:F2:8F:CA:5A:F7:21:4A:56:5F:59:51:5A:52:10:E0:E2:55:A5:0D
            X509v3 Authority Key Identifier: 
                A3:84:1E:A0:10:DD:38:95:DB:BA:EC:06:EB:70:54:FE:B0:84:98:CB
            X509v3 Basic Constraints: critical
                CA:TRUE
            X509v3 Key Usage: critical
                Digital Signature, Certificate Sign, CRL Sign
    Signature Algorithm: sha256WithRSAEncryption
    Signature Value:
        de:c3:1f:de:45:6e:a8:3b:ab:d7:a6:ba:69:0b:2e:81:ed:c6:
        f5:5c:ea:da:02:5a:d9:e1:3d:f4:72:45:f7:7c:77:a7:0c:16:
        c9:15:ee:fb:ad:b1:bc:15:b5:19:d3:a1:da:76:cd:91:74:9f:
        c0:d2:32:5a:c5:34:cc:13:ec:e9:7e:68:7b:db:cf:31:a0:f7:
        48:d7:51:ba:bf:6a:10:60:93:a7:22:e4:19:a4:ad:fd:3b:d4:
        5e:6e:3c:59:fe:fc:91:c4:db:fe:7e:86:40:c8:d1:8a:d3:62:
        9e:d8:e3:05:80:9a:ea:17:4e:3f:c0:3e:05:be:53:b1:b6:e0:
        02:85:0e:47:3d:4d:2e:3a:5b:b3:be:8d:53:15:7b:f5:89:cb:
        18:5b:18:2e:83:1c:b6:58:14:09:a1:50:4f:0e:c5:2f:2b:8a:
        7b:03:1a:f6:cc:e0:e5:22:20:42:a3:d3:69:8e:45:86:f3:53:
        0b:fc:cf:55:b9:1c:41:cb:10:41:fa:82:1f:a0:62:ce:e3:3b:
        89:71:22:86:97:29:9b:01:79:61:f7:02:bb:49:d6:ef:29:25:
        12:92:58:3a:d2:3a:b2:e9:be:ee:c3:df:70:21:72:43:30:40:
        48:8c:aa:67:11:e8:3d:60:b1:bf:ec:60:fc:da:fb:f7:cc:fa:
        0d:45:64:f4
-----BEGIN CERTIFICATE-----
MIIEADCCAuigAwIBAgICEAAwDQYJKoZIhvcNAQELBQAwgYkxCzAJBgNVBAYTAlVT
MRAwDgYDVQQIDAdGbG9yaWRhMRAwDgYDVQQHDAdKdXBpdGVyMQ4wDAYDVQQKDAVa
ZXJvQzEMMAoGA1UECwwDSWNlMRgwFgYDVQQDDA9aZXJvQyBUZXN0IENBIDUxHjAc
BgkqhkiG9w0BCQEWD3Rlc3RzQHplcm9jLmNvbTAeFw0yNjA2MjUxNjU1MDdaFw0y
NzA3MjgxNjU1MDdaMIGWMSUwIwYDVQQDDBxDQTEgSW50ZXJtZWRpYXRlIDUgKE5v
dCBZZXQpMQswCQYDVQQGEwJVUzEQMA4GA1UECAwHRmxvcmlkYTEQMA4GA1UEBwwH
SnVwaXRlcjEOMAwGA1UECgwFWmVyb0MxDDAKBgNVBAsMA0ljZTEeMBwGCSqGSIb3
DQEJARYPdGVzdHNAemVyb2MuY29tMIIBIjANBgkqhkiG9w0BAQEFAAOCAQ8AMIIB
CgKCAQEAxxgcRpSF4NekYDyBJfm2xpWunrmKQdqH/JeW1C+CeDpff5SVHePK5dJb
PBCzNfJ01qGzwZ1d+UjPKZi0hfJXt7o9jz1aqX9KWXNiAN4TZBuBT84hKWA+ZGMc
E3DC00jhG6F97bjeylkFyHer80UuaeHgZ3VfC+jNx9RuyjzoYfGGwY3xMgbKTWg1
Zddhc8bv/yOjmHylNlhRdhYq/Z8+KvngzvZYDfSj2ocHjd0+JKf/uWlRVE/5FflV
R2dVr6JznhIIedyU6Jmea45RIJRNuQ0QOq33GdpA0QtR2qySVVvY6kCwJnCGypDD
7mY0SSgz1IPAcgkkmq4KwEB3NAmvswIDAQABo2MwYTAdBgNVHQ4EFgQU4vKPylr3
IUpWX1lRWlIQ4OJVpQ0wHwYDVR0jBBgwFoAUo4QeoBDdOJXbuuwG63BU/rCEmMsw
DwYDVR0TAQH/BAUwAwEB/zAOBgNVHQ8BAf8EBAMCAYYwDQYJKoZIhvcNAQELBQAD
ggEBAN7DH95Fbqg7q9emumkLLoHtxvVc6toCWtnhPfRyRfd8d6cMFskV7vutsbwV
tRnTodp2zZF0n8DSMlrFNMwT7Ol+aHvbzzGg90jXUbq/ahBgk6ci5Bmkrf071F5u
PFn+/JHE2/5+hkDI0YrTYp7Y4wWAmuoXTj/APgW+U7G24AKFDkc9TS46W7O+jVMV
e/WJyxhbGC6DHLZYFAmhUE8OxS8rinsDGvbM4OUiIEKj02mORYbzUwv8z1W5HEHL
EEH6gh+gYs7jO4lxIoaXKZsBeWH3ArtJ1u8pJRKSWDrSOrLpvu7D33AhckMwQEiM
qmcR6D1gsb/sYPza+/fM+g1FZPQ=
-----END CERTIFICATE-----
