Certificate:
    Data:
        Version: 3 (0x2)
        Serial Number: 4097 (0x1001)
        Signature Algorithm: sha256WithRSAEncryption
        Issuer: C=US, ST=Florida, L=Jupiter, O=ZeroC, OU=Ice, CN=ZeroC Test CA 5/emailAddress=tests@zeroc.com
        Validity
            Not Before: Apr 18 16:16:03 2024 GMT
            Not After : May 21 16:16:03 2025 GMT
        Subject: CN=CA5 Intermediate 1 (Expired), C=US, ST=Florida, L=Jupiter, O=ZeroC, OU=Ice/emailAddress=tests@zeroc.com
        Subject Public Key Info:
            Public Key Algorithm: rsaEncryption
                Public-Key: (2048 bit)
                Modulus:
                    00:da:c6:92:ef:94:1e:62:4f:ed:64:26:5b:cd:1e:
                    a7:6e:93:44:71:42:45:ba:e5:af:26:e0:12:5d:46:
                    d8:0b:25:13:76:6f:14:4f:c5:dc:31:c6:c4:98:fb:
                    ea:e9:e1:72:d6:a8:13:e7:8f:5d:9e:ab:e9:e6:4a:
                    98:d9:d6:2f:0d:ef:a6:61:fe:7f:7f:c3:7c:91:43:
                    a2:45:12:17:c8:13:d7:17:de:12:7d:90:65:5c:21:
                    bf:c8:a5:9e:a9:aa:99:24:fb:f2:4f:c9:db:6b:13:
                    4a:f9:f5:04:12:16:e8:22:a5:bc:e7:b2:72:30:97:
                    1b:ed:49:cf:0d:cf:61:53:6f:7b:8a:91:30:10:e2:
                    b6:43:38:34:46:ed:65:f8:be:6e:26:cb:dc:d9:a5:
                    c3:0b:64:4a:97:0f:af:34:93:d9:37:fd:54:12:c8:
                    6c:cc:48:9b:dd:f0:b7:d3:6e:7e:b5:6f:ed:a1:46:
                    81:c4:65:d7:b9:46:18:c8:14:c2:62:7a:95:9b:00:
                    8b:0f:92:ab:0e:98:2f:a5:70:47:52:6e:93:7d:3c:
                    2e:aa:0d:74:15:eb:32:4f:48:cc:b6:15:fb:34:79:
                    f4:a3:88:41:b4:f8:cc:1a:6f:ab:dc:b2:3d:02:44:
                    c5:cf:ce:78:e7:8b:35:c1:4b:82:02:1a:14:9c:86:
                    7f:05
                Exponent: 65537 (0x10001)
        X509v3 extensions:
            X509v3 Subject Key Identifier: 
                13:78:B2:2C:03:83:46:F4:FD:00:49:66:1C:FE:07:92:21:E5:74:59
            X509v3 Authority Key Identifier: 
                E1:B5:36:FD:16:CC:5E:39:07:0F:5F:E7:30:76:98:A7:FA:E4:D3:88
            X509v3 Basic Constraints: critical
                CA:TRUE
            X509v3 Key Usage: critical
                Digital Signature, Certificate Sign, CRL Sign
    Signature Algorithm: sha256WithRSAEncryption
    Signature Value:
        c1:65:83:8a:c1:81:bd:c6:4b:98:e9:e5:e3:32:05:d0:52:21:
        54:11:84:b0:a1:67:f3:94:d8:ab:6e:f9:37:c0:58:15:a8:77:
        99:0d:1e:a7:17:43:80:a4:2b:7a:da:7c:af:35:33:a6:ee:e9:
        fa:c9:b5:a6:c3:66:38:43:71:c7:6a:1a:41:a8:61:83:f8:a3:
        a5:d5:a1:b2:4d:e1:db:a8:9b:18:4a:69:88:09:95:c6:5a:ca:
        e9:a2:0b:ad:4e:65:ad:3b:90:1d:97:6f:74:ed:56:64:be:f4:
        c7:41:2e:64:80:d6:40:50:49:18:21:6d:8c:5e:49:fb:c4:4f:
        f2:25:a4:73:57:a8:1b:1c:99:4e:71:21:01:51:bb:c0:2e:38:
        0a:c0:05:fb:46:c9:4e:65:a1:d0:60:33:4d:b3:ed:04:ae:eb:
        b5:99:0c:a7:25:46:0c:96:74:47:04:51:d9:95:83:dc:d2:86:
        49:24:3b:77:55:9e:2d:da:fe:09:a8:80:a6:8c:ae:2f:68:4a:
        3e:26:e2:15:9a:fa:f9:88:f9:fe:f8:62:04:46:fe:23:89:95:
        78:8b:04:bb:60:c0:75:21:be:46:83:42:98:a0:1e:be:18:e6:
        cf:5f:de:15:d8:d4:33:71:c2:27:7d:5e:51:55:38:d3:d4:da:
        82:db:97:75
-----BEGIN CERTIFICATE-----
MIIEADCCAuigAwIBAgICEAEwDQYJKoZIhvcNAQELBQAwgYkxCzAJBgNVBAYTAlVT
MRAwDgYDVQQIDAdGbG9yaWRhMRAwDgYDVQQHDAdKdXBpdGVyMQ4wDAYDVQQKDAVa
ZXJvQzEMMAoGA1UECwwDSWNlMRgwFgYDVQQDDA9aZXJvQyBUZXN0IENBIDUxHjAc
BgkqhkiG9w0BCQEWD3Rlc3RzQHplcm9jLmNvbTAeFw0yNDA0MTgxNjE2MDNaFw0y
NTA1MjExNjE2MDNaMIGWMSUwIwYDVQQDDBxDQTUgSW50ZXJtZWRpYXRlIDEgKEV4
cGlyZWQpMQswCQYDVQQGEwJVUzEQMA4GA1UECAwHRmxvcmlkYTEQMA4GA1UEBwwH
SnVwaXRlcjEOMAwGA1UECgwFWmVyb0MxDDAKBgNVBAsMA0ljZTEeMBwGCSqGSIb3
DQEJARYPdGVzdHNAemVyb2MuY29tMIIBIjANBgkqhkiG9w0BAQEFAAOCAQ8AMIIB
CgKCAQEA2saS75QeYk/tZCZbzR6nbpNEcUJFuuWvJuASXUbYCyUTdm8UT8XcMcbE
mPvq6eFy1qgT549dnqvp5kqY2dYvDe+mYf5/f8N8kUOiRRIXyBPXF94SfZBlXCG/
yKWeqaqZJPvyT8nbaxNK+fUEEhboIqW857JyMJcb7UnPDc9hU297ipEwEOK2Qzg0
Ru1l+L5uJsvc2aXDC2RKlw+vNJPZN/1UEshszEib3fC3025+tW/toUaBxGXXuUYY
yBTCYnqVmwCLD5KrDpgvpXBHUm6TfTwuqg10FesyT0jMthX7NHn0o4hBtPjMGm+r
3LI9AkTFz85454s1wUuCAhoUnIZ/BQIDAQABo2MwYTAdBgNVHQ4EFgQUE3iyLAOD
RvT9AElmHP4HkiHldFkwHwYDVR0jBBgwFoAU4bU2/RbMXjkHD1/nMHaYp/rk04gw
DwYDVR0TAQH/BAUwAwEB/zAOBgNVHQ8BAf8EBAMCAYYwDQYJKoZIhvcNAQELBQAD
ggEBAMFlg4rBgb3GS5jp5eMyBdBSIVQRhLChZ/OU2Ktu+TfAWBWod5kNHqcXQ4Ck
K3rafK81M6bu6frJtabDZjhDccdqGkGoYYP4o6XVobJN4duomxhKaYgJlcZayumi
C61OZa07kB2Xb3TtVmS+9MdBLmSA1kBQSRghbYxeSfvET/IlpHNXqBscmU5xIQFR
u8AuOArABftGyU5lodBgM02z7QSu67WZDKclRgyWdEcEUdmVg9zShkkkO3dVni3a
/gmogKaMri9oSj4m4hWa+vmI+f74YgRG/iOJlXiLBLtgwHUhvkaDQpigHr4Y5s9f
3hXY1DNxwid9XlFVONPU2oLbl3U=
-----END CERTIFICATE-----
