Certificate:
    Data:
        Version: 3 (0x2)
        Serial Number: 4098 (0x1002)
        Signature Algorithm: sha256WithRSAEncryption
        Issuer: C=US, ST=Florida, L=Jupiter, O=ZeroC, OU=Ice, CN=ZeroC Test CA 5/emailAddress=tests@zeroc.com
        Validity
            Not Before: Jun 25 16:55:09 2026 GMT
            Not After : Jul 28 16:55:09 2027 GMT
        Subject: CN=Client (Not Yet), C=US, ST=Florida, L=Jupiter, O=ZeroC, Inc., OU=Ice/emailAddress=info@zeroc.com
        Subject Public Key Info:
            Public Key Algorithm: rsaEncryption
                Public-Key: (2048 bit)
                Modulus:
                    00:d4:0d:9e:c1:d2:f6:7b:58:21:81:8c:34:ce:3a:
                    fb:7c:07:c7:a8:12:ef:ce:f4:e8:f3:37:61:57:ee:
                    90:3f:0d:80:04:7b:bd:65:a4:fd:ad:8f:ba:3c:d0:
                    05:b3:49:b8:a3:f8:25:38:7c:ae:e0:a7:62:5f:f1:
                    97:2e:03:6a:86:f9:ac:a7:89:6a:89:99:5d:46:b2:
                    cc:35:32:5c:69:18:1e:67:ad:23:74:7d:e8:68:d3:
                    f4:ee:12:f7:10:c9:5c:5b:68:81:8a:35:22:a1:5b:
                    3e:b0:75:7c:b2:ec:15:01:d1:51:dd:58:d9:f2:36:
                    08:bc:e1:79:41:76:6f:76:0f:6b:78:92:fc:b7:fe:
                    34:04:90:80:0a:2b:a3:34:2c:e8:b8:2b:07:1c:8b:
                    85:99:65:f9:e2:18:ae:e6:08:26:ff:0e:5b:ec:0b:
                    94:ae:58:d2:77:d4:b1:b0:a0:af:df:3b:8c:00:4c:
                    87:cc:8d:e5:c4:5f:aa:93:3f:6d:89:62:66:71:8d:
                    bb:30:2b:70:42:95:01:23:21:3f:d1:ee:a4:b0:6e:
                    f1:93:5f:8a:d4:a3:13:8f:8e:3c:92:53:4d:04:d2:
                    3f:67:a6:96:69:2d:1b:3a:ac:6b:e6:12:35:56:54:
                    19:86:25:2b:da:d5:3b:fe:d5:d6:df:da:f0:01:83:
                    71:0f
                Exponent: 65537 (0x10001)
        X509v3 extensions:
            X509v3 Subject Key Identifier: 
                BC:F9:AD:75:BB:DC:AE:FE:86:D6:3B:7B:D0:A1:F7:D6:DC:64:D6:BB
            X509v3 Authority Key Identifier: 
                A3:84:1E:A0:10:DD:38:95:DB:BA:EC:06:EB:70:54:FE:B0:84:98:CB
            X509v3 Key Usage: critical
                Digital Signature, Non Repudiation, Key Encipherment
            X509v3 Extended Key Usage: 
                TLS Web Client Authentication
            X509v3 Subject Alternative Name: 
                IP Address:127.0.0.1, DNS:client
    Signature Algorithm: sha256WithRSAEncryption
    Signature Value:
        5d:39:e8:cc:b9:b9:fb:12:f5:c9:1f:bb:7f:28:62:7c:4e:0d:
        a8:24:2b:a9:86:6c:24:3e:08:cd:b3:62:55:f2:ab:5c:30:97:
        3e:cb:52:7b:6f:e0:1e:5d:c1:12:37:03:c6:db:5f:0b:1e:db:
        5b:aa:65:4a:a5:2f:7c:f1:41:d4:9c:a6:ec:70:e7:f6:9f:28:
        bd:2f:62:eb:c9:09:ca:d2:02:30:0b:a6:d7:8f:47:d4:2a:70:
        7e:b9:30:9d:26:92:06:49:cb:09:3b:9d:48:54:15:0d:d6:94:
        3b:ea:3c:4b:f4:4f:2a:ce:7f:f2:e3:bc:8f:5a:76:52:b0:dd:
        7c:6e:78:86:4b:ec:91:68:f0:78:2c:c0:67:a3:6f:f4:7f:ff:
        d1:9b:42:0a:e4:4a:f3:6a:3d:34:c9:dd:e7:05:27:cf:b0:01:
        42:6d:ea:db:24:fd:9a:a1:bd:b8:ab:8e:cc:a9:ee:a5:13:ba:
        88:f5:aa:17:25:dd:10:2a:32:bd:7d:a4:73:57:c9:2a:2f:96:
        41:22:0b:4c:3d:ae:5d:89:a5:04:7e:8e:42:b5:b0:23:73:8d:
        34:7b:46:e1:b1:b1:c6:7c:06:94:e9:6a:a1:00:06:cd:0b:13:
        9c:f4:db:ea:0d:46:45:02:80:87:f7:b9:f0:3f:10:bd:22:d5:
        22:64:3d:90
-----BEGIN CERTIFICATE-----
MIIEFzCCAv+gAwIBAgICEAIwDQYJKoZIhvcNAQELBQAwgYkxCzAJBgNVBAYTAlVT
MRAwDgYDVQQIDAdGbG9yaWRhMRAwDgYDVQQHDAdKdXBpdGVyMQ4wDAYDVQQKDAVa
ZXJvQzEMMAoGA1UECwwDSWNlMRgwFgYDVQQDDA9aZXJvQyBUZXN0IENBIDUxHjAc
BgkqhkiG9w0BCQEWD3Rlc3RzQHplcm9jLmNvbTAeFw0yNjA2MjUxNjU1MDlaFw0y
NzA3MjgxNjU1MDlaMIGPMRkwFwYDVQQDDBBDbGllbnQgKE5vdCBZZXQpMQswCQYD
VQQGEwJVUzEQMA4GA1UECAwHRmxvcmlkYTEQMA4GA1UEBwwHSnVwaXRlcjEUMBIG
A1UECgwLWmVyb0MsIEluYy4xDDAKBgNVBAsMA0ljZTEdMBsGCSqGSIb3DQEJARYO
aW5mb0B6ZXJvYy5jb20wggEiMA0GCSqGSIb3DQEBAQUAA4IBDwAwggEKAoIBAQDU
DZ7B0vZ7WCGBjDTOOvt8B8eoEu/O9OjzN2FX7pA/DYAEe71lpP2tj7o80AWzSbij
+CU4fK7gp2Jf8ZcuA2qG+ayniWqJmV1Gssw1MlxpGB5nrSN0feho0/TuEvcQyVxb
aIGKNSKhWz6wdXyy7BUB0VHdWNnyNgi84XlBdm92D2t4kvy3/jQEkIAKK6M0LOi4
Kwcci4WZZfniGK7mCCb/DlvsC5SuWNJ31LGwoK/fO4wATIfMjeXEX6qTP22JYmZx
jbswK3BClQEjIT/R7qSwbvGTX4rUoxOPjjySU00E0j9nppZpLRs6rGvmEjVWVBmG
JSva1Tv+1dbf2vABg3EPAgMBAAGjgYAwfjAdBgNVHQ4EFgQUvPmtdbvcrv6G1jt7
0KH31txk1rswHwYDVR0jBBgwFoAUo4QeoBDdOJXbuuwG63BU/rCEmMswDgYDVR0P
AQH/BAQDAgXgMBMGA1UdJQQMMAoGCCsGAQUFBwMCMBcGA1UdEQQQMA6HBH8AAAGC
BmNsaWVudDANBgkqhkiG9w0BAQsFAAOCAQEAXTnozLm5+xL1yR+7fyhifE4NqCQr
qYZsJD4IzbNiVfKrXDCXPstSe2/gHl3BEjcDxttfCx7bW6plSqUvfPFB1Jym7HDn
9p8ovS9i68kJytICMAum149H1CpwfrkwnSaSBknLCTudSFQVDdaUO+o8S/RPKs5/
8uO8j1p2UrDdfG54hkvskWjweCzAZ6Nv9H//0ZtCCuRK82o9NMnd5wUnz7ABQm3q
2yT9mqG9uKuOzKnupRO6iPWqFyXdECoyvX2kc1fJKi+WQSILTD2uXYmlBH6OQrWw
I3ONNHtG4bGxxnwGlOlqoQAGzQsTnPTb6g1GRQKAh/e58D8QvSLVImQ9kA==
-----END CERTIFICATE-----
