Certificate:
    Data:
        Version: 3 (0x2)
        Serial Number: 4098 (0x1002)
        Signature Algorithm: sha256WithRSAEncryption
        Issuer: C=US, ST=Florida, L=Jupiter, O=ZeroC, OU=Ice, CN=ZeroC Test CA 5/emailAddress=tests@zeroc.com
        Validity
            Not Before: Jun 25 16:16:05 2026 GMT
            Not After : Jul 28 16:16:05 2027 GMT
        Subject: CN=Client (Not Yet), C=US, ST=Florida, L=Jupiter, O=ZeroC, Inc., OU=Ice/emailAddress=info@zeroc.com
        Subject Public Key Info:
            Public Key Algorithm: rsaEncryption
                Public-Key: (2048 bit)
                Modulus:
                    00:d2:06:dd:fa:5d:15:d0:f4:55:fc:63:d5:7d:80:
                    d3:0c:29:ae:8f:d0:4d:95:53:e1:2e:6a:aa:87:f5:
                    23:4e:14:7a:4b:bb:60:05:aa:ee:52:92:1b:4a:f3:
                    5a:e7:e7:40:ef:76:0e:a4:b6:10:da:ec:9d:c7:57:
                    89:94:84:8a:d8:2e:f8:d0:f5:58:fa:80:6d:cb:9e:
                    3d:ba:16:b2:95:2e:42:9b:6e:71:f6:dd:ec:89:62:
                    fe:da:dd:31:5c:f6:8f:ef:98:e5:fd:41:3b:43:33:
                    ed:a9:b6:4c:84:b8:89:c7:8e:c4:94:34:63:b3:b0:
                    de:64:1a:21:db:7d:43:4b:03:3d:59:09:76:be:fd:
                    53:f5:ce:cd:a4:35:5d:a7:3d:71:4a:15:1f:94:6b:
                    a0:a5:fc:32:9c:d0:e1:4e:31:a8:4b:6b:04:34:18:
                    e9:7f:61:db:3a:7c:0a:e7:83:e2:72:53:80:a3:37:
                    07:af:59:8e:45:e4:21:5a:3b:a9:14:cb:13:1b:3b:
                    42:ea:59:9b:1b:aa:83:01:69:22:95:fe:4d:bb:44:
                    f8:5e:6a:fe:88:94:11:ea:0d:dd:d5:9e:bc:e7:35:
                    4a:f7:77:71:43:b5:81:c8:58:47:f0:7b:dd:50:54:
                    a1:73:2e:41:65:f9:db:46:60:19:a2:09:11:86:7b:
                    2a:6d
                Exponent: 65537 (0x10001)
        X509v3 extensions:
            X509v3 Subject Key Identifier: 
                DE:A8:DA:34:AF:49:E6:6F:99:56:BE:1B:93:C4:44:16:AD:A9:5B:10
            X509v3 Authority Key Identifier: 
                E1:B5:36:FD:16:CC:5E:39:07:0F:5F:E7:30:76:98:A7:FA:E4:D3:88
            X509v3 Key Usage: critical
                Digital Signature, Non Repudiation, Key Encipherment
            X509v3 Extended Key Usage: 
                TLS Web Client Authentication
            X509v3 Subject Alternative Name: 
                IP Address:127.0.0.1, DNS:client
    Signature Algorithm: sha256WithRSAEncryption
    Signature Value:
        2a:62:71:4c:d9:fd:97:02:18:d8:11:fd:32:e9:69:2e:46:d7:
        99:a3:03:4b:6c:60:41:31:ce:df:64:82:7e:0f:4f:43:8d:be:
        21:0f:57:c2:cd:c8:e1:d5:f2:76:d2:71:68:0b:59:50:07:66:
        16:0b:a1:02:dc:bd:74:92:3b:4b:d0:c6:c7:4c:ec:f4:d4:12:
        51:8f:32:9e:28:69:d9:db:98:59:f4:0c:51:7a:d7:5c:11:3d:
        80:bb:05:4f:91:0b:47:95:7b:68:24:cd:e5:3d:ed:d0:e0:4b:
        67:2a:f3:d2:19:61:ef:2d:60:e3:2a:e9:60:7a:60:83:5b:d5:
        4c:a9:e2:70:52:55:71:8b:d8:29:3b:e9:98:a9:8c:44:41:fc:
        57:ce:69:5e:c6:69:ca:80:75:4c:8e:c0:c9:f9:b9:b9:37:a0:
        d6:19:f6:ad:e6:86:ae:7d:71:a1:f1:bc:22:da:88:88:8d:70:
        a3:a5:2d:fd:43:bc:48:86:64:46:13:2e:69:5a:4c:1f:71:d7:
        14:11:67:19:fd:13:81:90:6c:79:e5:71:ad:3c:e8:eb:61:96:
        e5:d6:d0:94:6e:50:d6:ab:a7:df:90:3b:40:a4:ca:4b:6e:2b:
        76:86:a1:2b:a8:62:fc:fa:4f:3f:29:ca:45:65:89:8b:d0:7b:
        25:03:b6:e3
-----BEGIN CERTIFICATE-----
MIIEFzCCAv+gAwIBAgICEAIwDQYJKoZIhvcNAQELBQAwgYkxCzAJBgNVBAYTAlVT
MRAwDgYDVQQIDAdGbG9yaWRhMRAwDgYDVQQHDAdKdXBpdGVyMQ4wDAYDVQQKDAVa
ZXJvQzEMMAoGA1UECwwDSWNlMRgwFgYDVQQDDA9aZXJvQyBUZXN0IENBIDUxHjAc
BgkqhkiG9w0BCQEWD3Rlc3RzQHplcm9jLmNvbTAeFw0yNjA2MjUxNjE2MDVaFw0y
NzA3MjgxNjE2MDVaMIGPMRkwFwYDVQQDDBBDbGllbnQgKE5vdCBZZXQpMQswCQYD
VQQGEwJVUzEQMA4GA1UECAwHRmxvcmlkYTEQMA4GA1UEBwwHSnVwaXRlcjEUMBIG
A1UECgwLWmVyb0MsIEluYy4xDDAKBgNVBAsMA0ljZTEdMBsGCSqGSIb3DQEJARYO
aW5mb0B6ZXJvYy5jb20wggEiMA0GCSqGSIb3DQEBAQUAA4IBDwAwggEKAoIBAQDS
Bt36XRXQ9FX8Y9V9gNMMKa6P0E2VU+EuaqqH9SNOFHpLu2AFqu5SkhtK81rn50Dv
dg6kthDa7J3HV4mUhIrYLvjQ9Vj6gG3Lnj26FrKVLkKbbnH23eyJYv7a3TFc9o/v
mOX9QTtDM+2ptkyEuInHjsSUNGOzsN5kGiHbfUNLAz1ZCXa+/VP1zs2kNV2nPXFK
FR+Ua6Cl/DKc0OFOMahLawQ0GOl/Yds6fArng+JyU4CjNwevWY5F5CFaO6kUyxMb
O0LqWZsbqoMBaSKV/k27RPheav6IlBHqDd3VnrznNUr3d3FDtYHIWEfwe91QVKFz
LkFl+dtGYBmiCRGGeyptAgMBAAGjgYAwfjAdBgNVHQ4EFgQU3qjaNK9J5m+ZVr4b
k8REFq2pWxAwHwYDVR0jBBgwFoAU4bU2/RbMXjkHD1/nMHaYp/rk04gwDgYDVR0P
AQH/BAQDAgXgMBMGA1UdJQQMMAoGCCsGAQUFBwMCMBcGA1UdEQQQMA6HBH8AAAGC
BmNsaWVudDANBgkqhkiG9w0BAQsFAAOCAQEAKmJxTNn9lwIY2BH9MulpLkbXmaMD
S2xgQTHO32SCfg9PQ42+IQ9Xws3I4dXydtJxaAtZUAdmFguhAty9dJI7S9DGx0zs
9NQSUY8ynihp2duYWfQMUXrXXBE9gLsFT5ELR5V7aCTN5T3t0OBLZyrz0hlh7y1g
4yrpYHpgg1vVTKnicFJVcYvYKTvpmKmMREH8V85pXsZpyoB1TI7Ayfm5uTeg1hn2
reaGrn1xofG8ItqIiI1wo6Ut/UO8SIZkRhMuaVpMH3HXFBFnGf0TgZBseeVxrTzo
62GW5dbQlG5Q1qun35A7QKTKS24rdoahK6hi/PpPPynKRWWJi9B7JQO24w==
-----END CERTIFICATE-----
