Certificate:
    Data:
        Version: 3 (0x2)
        Serial Number: 4099 (0x1003)
        Signature Algorithm: sha256WithRSAEncryption
        Issuer: C=US, ST=Florida, L=Jupiter, O=ZeroC, OU=Ice, CN=ZeroC Test CA 5/emailAddress=tests@zeroc.com
        Validity
            Not Before: Apr 18 15:10:11 2024 GMT
            Not After : May 21 15:10:11 2025 GMT
        Subject: CN=Client (Expired), C=US, ST=Florida, L=Jupiter, O=ZeroC, Inc., OU=Ice/emailAddress=info@zeroc.com
        Subject Public Key Info:
            Public Key Algorithm: rsaEncryption
                Public-Key: (2048 bit)
                Modulus:
                    00:bb:ad:b2:5d:56:96:39:d0:b0:d8:d1:20:33:fa:
                    b7:8b:e6:73:75:84:3d:37:e2:97:c2:e8:ce:98:83:
                    e4:84:21:77:2a:1a:e1:9c:f5:db:98:5b:a5:21:2f:
                    93:cf:e1:b2:77:ae:f7:5a:82:4d:1f:9a:40:ac:ba:
                    7a:50:39:ee:c4:d6:fd:9a:fb:81:a8:74:a9:ce:b5:
                    2b:87:59:69:90:61:b6:20:aa:04:db:d0:f1:38:94:
                    46:62:49:83:e5:ce:49:a4:c1:57:a0:25:19:c7:ca:
                    6c:78:fc:48:51:22:d0:ef:87:04:93:fc:6a:72:98:
                    1f:8c:d5:77:2e:b9:92:5c:34:5e:ca:a6:bb:76:1d:
                    e2:30:aa:db:da:c4:a1:98:91:f5:d2:7b:78:82:6c:
                    df:dd:a4:60:8d:7f:84:5d:02:38:16:f2:79:6c:bc:
                    fd:c7:b1:f7:26:08:5e:20:f6:57:66:ca:b0:75:ba:
                    bf:06:65:12:76:ae:58:c2:72:80:71:60:fc:a1:9a:
                    75:ba:f6:bd:78:0c:2b:67:0b:af:0c:a6:f9:97:12:
                    1c:ed:55:16:4e:5d:ec:83:84:a4:3a:e2:65:b6:a0:
                    33:1f:4d:75:7d:66:ad:b2:dc:5d:77:3d:a6:d8:3e:
                    5b:4f:dd:fe:13:ca:1a:c6:29:1e:ef:fe:08:25:eb:
                    40:4d
                Exponent: 65537 (0x10001)
        X509v3 extensions:
            X509v3 Subject Key Identifier: 
                89:71:69:5C:A6:54:14:A7:CD:AC:64:41:82:00:DA:B2:2E:8A:2F:28
            X509v3 Authority Key Identifier: 
                46:9C:DE:6C:0E:F6:7A:68:36:C8:91:57:D3:47:DE:D9:30:CC:39:48
            X509v3 Key Usage: critical
                Digital Signature, Non Repudiation, Key Encipherment
            X509v3 Extended Key Usage: 
                TLS Web Client Authentication
            X509v3 Subject Alternative Name: 
                IP Address:127.0.0.1, DNS:client
    Signature Algorithm: sha256WithRSAEncryption
    Signature Value:
        4b:8c:fe:b9:6b:94:d0:4e:1b:80:48:31:33:a3:56:95:89:b0:
        a4:b3:b0:1e:5c:26:11:7d:3c:59:2c:d1:e3:20:44:a2:f6:de:
        99:ac:6a:f5:53:78:fa:80:00:74:f5:c7:aa:1a:94:39:7c:ca:
        8c:ef:83:8f:c7:48:b1:b7:3c:b2:40:12:ef:12:3a:ff:7a:d4:
        4e:a2:3a:c3:b3:33:6e:03:a1:0a:4d:32:51:0d:18:c0:9c:20:
        31:d0:e8:92:a9:85:10:da:80:48:62:80:37:c7:8f:84:9c:08:
        53:cb:ee:9c:d9:50:51:c6:17:50:aa:17:ff:68:30:fc:d0:4c:
        2a:84:e5:41:3c:41:2c:ef:b7:1c:7d:d7:7a:48:79:a8:cd:39:
        0d:b9:d2:ed:e3:3d:8d:b0:93:dd:ec:9b:47:74:ad:7b:63:5f:
        c9:65:1d:ec:88:b3:d7:7e:4a:28:61:13:e0:cc:99:77:1f:69:
        e6:46:c0:48:bb:29:c3:b2:29:a5:dc:14:e5:51:0d:79:b8:36:
        de:46:ce:55:d8:83:73:fb:30:a0:c7:c0:b3:ce:b5:35:de:39:
        8a:e0:58:6f:43:60:d2:e1:e7:9f:e4:c8:b9:e4:e0:b6:e3:83:
        c4:60:29:0f:51:6d:04:97:ee:52:4f:24:2f:ba:f3:c0:f5:a5:
        62:2e:1d:b7
-----BEGIN CERTIFICATE-----
MIIEFzCCAv+gAwIBAgICEAMwDQYJKoZIhvcNAQELBQAwgYkxCzAJBgNVBAYTAlVT
MRAwDgYDVQQIDAdGbG9yaWRhMRAwDgYDVQQHDAdKdXBpdGVyMQ4wDAYDVQQKDAVa
ZXJvQzEMMAoGA1UECwwDSWNlMRgwFgYDVQQDDA9aZXJvQyBUZXN0IENBIDUxHjAc
BgkqhkiG9w0BCQEWD3Rlc3RzQHplcm9jLmNvbTAeFw0yNDA0MTgxNTEwMTFaFw0y
NTA1MjExNTEwMTFaMIGPMRkwFwYDVQQDDBBDbGllbnQgKEV4cGlyZWQpMQswCQYD
VQQGEwJVUzEQMA4GA1UECAwHRmxvcmlkYTEQMA4GA1UEBwwHSnVwaXRlcjEUMBIG
A1UECgwLWmVyb0MsIEluYy4xDDAKBgNVBAsMA0ljZTEdMBsGCSqGSIb3DQEJARYO
aW5mb0B6ZXJvYy5jb20wggEiMA0GCSqGSIb3DQEBAQUAA4IBDwAwggEKAoIBAQC7
rbJdVpY50LDY0SAz+reL5nN1hD034pfC6M6Yg+SEIXcqGuGc9duYW6UhL5PP4bJ3
rvdagk0fmkCsunpQOe7E1v2a+4GodKnOtSuHWWmQYbYgqgTb0PE4lEZiSYPlzkmk
wVegJRnHymx4/EhRItDvhwST/GpymB+M1XcuuZJcNF7Kprt2HeIwqtvaxKGYkfXS
e3iCbN/dpGCNf4RdAjgW8nlsvP3HsfcmCF4g9ldmyrB1ur8GZRJ2rljCcoBxYPyh
mnW69r14DCtnC68MpvmXEhztVRZOXeyDhKQ64mW2oDMfTXV9Zq2y3F13PabYPltP
3f4TyhrGKR7v/ggl60BNAgMBAAGjgYAwfjAdBgNVHQ4EFgQUiXFpXKZUFKfNrGRB
ggDasi6KLygwHwYDVR0jBBgwFoAURpzebA72emg2yJFX00fe2TDMOUgwDgYDVR0P
AQH/BAQDAgXgMBMGA1UdJQQMMAoGCCsGAQUFBwMCMBcGA1UdEQQQMA6HBH8AAAGC
BmNsaWVudDANBgkqhkiG9w0BAQsFAAOCAQEAS4z+uWuU0E4bgEgxM6NWlYmwpLOw
HlwmEX08WSzR4yBEovbemaxq9VN4+oAAdPXHqhqUOXzKjO+Dj8dIsbc8skAS7xI6
/3rUTqI6w7MzbgOhCk0yUQ0YwJwgMdDokqmFENqASGKAN8ePhJwIU8vunNlQUcYX
UKoX/2gw/NBMKoTlQTxBLO+3HH3Xekh5qM05DbnS7eM9jbCT3eybR3Ste2NfyWUd
7Iiz135KKGET4MyZdx9p5kbASLspw7IppdwU5VENebg23kbOVdiDc/swoMfAs861
Nd45iuBYb0Ng0uHnn+TIueTgtuODxGApD1FtBJfuUk8kL7rzwPWlYi4dtw==
-----END CERTIFICATE-----
