Certificate:
    Data:
        Version: 3 (0x2)
        Serial Number: 4099 (0x1003)
        Signature Algorithm: sha256WithRSAEncryption
        Issuer: C=US, ST=Florida, L=Jupiter, O=ZeroC, OU=Ice, CN=ZeroC Test CA 5/emailAddress=tests@zeroc.com
        Validity
            Not Before: Apr 18 16:55:09 2024 GMT
            Not After : May 21 16:55:09 2025 GMT
        Subject: CN=Client (Expired), C=US, ST=Florida, L=Jupiter, O=ZeroC, Inc., OU=Ice/emailAddress=info@zeroc.com
        Subject Public Key Info:
            Public Key Algorithm: rsaEncryption
                Public-Key: (2048 bit)
                Modulus:
                    00:ae:94:ef:db:28:24:42:55:b1:65:3a:36:fc:d3:
                    53:38:08:02:60:0a:49:aa:01:aa:e4:3d:06:cb:ec:
                    9c:bb:86:c1:24:b9:0d:b3:7a:18:26:91:35:03:e3:
                    4c:90:2c:c8:9a:25:79:ad:9a:d2:62:af:c3:69:6b:
                    b5:bf:54:0b:53:41:d6:b1:4e:27:39:3e:58:04:45:
                    80:13:6e:1b:ea:39:90:70:43:be:4f:0d:78:56:a3:
                    e2:87:4e:46:fc:ab:7d:13:c9:c8:b3:c8:a2:21:36:
                    fe:bd:44:b1:0b:88:0c:ce:5b:bb:bf:e4:e2:a1:61:
                    75:24:c5:ff:9c:d8:7c:f8:a2:0c:eb:37:02:01:b0:
                    cc:95:60:98:8c:13:f2:79:6b:63:c9:05:fc:15:65:
                    fe:d2:f6:d3:ac:74:31:11:b3:a7:37:c5:92:08:33:
                    03:11:0c:64:83:bb:3a:83:ce:19:d4:db:ad:3e:b6:
                    3f:d0:6a:a6:93:34:b2:91:d7:68:2d:80:87:45:b2:
                    22:b5:6e:23:7e:ed:08:47:01:ec:12:ad:7d:10:cb:
                    5c:be:ae:12:e8:17:70:0a:82:d2:bf:ba:5a:d4:90:
                    68:fa:78:3f:1f:25:67:44:13:e9:b7:c9:6b:d3:ae:
                    2b:84:b5:71:5e:62:e5:b0:5e:31:6c:97:27:bd:a6:
                    38:31
                Exponent: 65537 (0x10001)
        X509v3 extensions:
            X509v3 Subject Key Identifier: 
                CE:1D:E7:99:83:38:BE:C3:D3:F9:FE:13:C8:16:16:16:3A:DC:29:F7
            X509v3 Authority Key Identifier: 
                A3:84:1E:A0:10:DD:38:95:DB:BA:EC:06:EB:70:54:FE:B0:84:98:CB
            X509v3 Key Usage: critical
                Digital Signature, Non Repudiation, Key Encipherment
            X509v3 Extended Key Usage: 
                TLS Web Client Authentication
            X509v3 Subject Alternative Name: 
                IP Address:127.0.0.1, DNS:client
    Signature Algorithm: sha256WithRSAEncryption
    Signature Value:
        a3:b7:c0:79:19:e8:21:cb:b4:7b:69:eb:6a:ac:bc:05:13:69:
        b2:c8:b3:a6:3e:75:73:5f:d5:59:fb:55:c9:04:fe:39:2a:8c:
        46:10:f8:24:15:0d:8a:e2:d8:bb:ae:e9:64:e1:76:af:d6:f6:
        94:70:d4:20:56:55:45:b9:8e:5f:ce:90:20:52:36:ca:2d:c5:
        5a:8a:88:c6:24:5c:29:4e:21:1c:39:6a:d3:c7:72:9b:16:6d:
        79:d3:fe:d6:f6:64:72:d1:0b:e9:c3:bd:74:52:c7:36:d0:21:
        9c:bc:43:d8:2c:8f:95:07:c4:8a:3a:d6:3f:90:08:2b:33:03:
        da:7c:6c:a2:39:fc:eb:c0:09:34:4e:ca:df:b7:4d:97:30:57:
        c9:99:6b:60:cf:d9:54:cb:6b:d3:e9:a8:a1:21:a7:1d:27:84:
        f7:5e:d5:e5:77:7d:a7:4b:93:4e:0d:f9:ab:ac:18:53:5a:a4:
        b9:75:d3:29:5c:1c:f5:56:1e:c7:aa:47:4a:cb:ea:b5:40:f4:
        de:b3:60:8a:d2:c5:32:ca:5f:e5:6d:20:2e:9c:00:44:69:80:
        44:54:a2:af:13:b8:b0:66:5e:dc:2d:49:67:be:75:b9:a3:e2:
        52:8e:14:17:01:6a:ee:9a:19:8b:41:83:c6:ac:10:ed:d6:48:
        55:29:63:b6
-----BEGIN CERTIFICATE-----
MIIEFzCCAv+gAwIBAgICEAMwDQYJKoZIhvcNAQELBQAwgYkxCzAJBgNVBAYTAlVT
MRAwDgYDVQQIDAdGbG9yaWRhMRAwDgYDVQQHDAdKdXBpdGVyMQ4wDAYDVQQKDAVa
ZXJvQzEMMAoGA1UECwwDSWNlMRgwFgYDVQQDDA9aZXJvQyBUZXN0IENBIDUxHjAc
BgkqhkiG9w0BCQEWD3Rlc3RzQHplcm9jLmNvbTAeFw0yNDA0MTgxNjU1MDlaFw0y
NTA1MjExNjU1MDlaMIGPMRkwFwYDVQQDDBBDbGllbnQgKEV4cGlyZWQpMQswCQYD
VQQGEwJVUzEQMA4GA1UECAwHRmxvcmlkYTEQMA4GA1UEBwwHSnVwaXRlcjEUMBIG
A1UECgwLWmVyb0MsIEluYy4xDDAKBgNVBAsMA0ljZTEdMBsGCSqGSIb3DQEJARYO
aW5mb0B6ZXJvYy5jb20wggEiMA0GCSqGSIb3DQEBAQUAA4IBDwAwggEKAoIBAQCu
lO/bKCRCVbFlOjb801M4CAJgCkmqAarkPQbL7Jy7hsEkuQ2zehgmkTUD40yQLMia
JXmtmtJir8Npa7W/VAtTQdaxTic5PlgERYATbhvqOZBwQ75PDXhWo+KHTkb8q30T
ycizyKIhNv69RLELiAzOW7u/5OKhYXUkxf+c2Hz4ogzrNwIBsMyVYJiME/J5a2PJ
BfwVZf7S9tOsdDERs6c3xZIIMwMRDGSDuzqDzhnU260+tj/QaqaTNLKR12gtgIdF
siK1biN+7QhHAewSrX0Qy1y+rhLoF3AKgtK/ulrUkGj6eD8fJWdEE+m3yWvTriuE
tXFeYuWwXjFslye9pjgxAgMBAAGjgYAwfjAdBgNVHQ4EFgQUzh3nmYM4vsPT+f4T
yBYWFjrcKfcwHwYDVR0jBBgwFoAUo4QeoBDdOJXbuuwG63BU/rCEmMswDgYDVR0P
AQH/BAQDAgXgMBMGA1UdJQQMMAoGCCsGAQUFBwMCMBcGA1UdEQQQMA6HBH8AAAGC
BmNsaWVudDANBgkqhkiG9w0BAQsFAAOCAQEAo7fAeRnoIcu0e2nraqy8BRNpssiz
pj51c1/VWftVyQT+OSqMRhD4JBUNiuLYu67pZOF2r9b2lHDUIFZVRbmOX86QIFI2
yi3FWoqIxiRcKU4hHDlq08dymxZtedP+1vZkctEL6cO9dFLHNtAhnLxD2CyPlQfE
ijrWP5AIKzMD2nxsojn868AJNE7K37dNlzBXyZlrYM/ZVMtr0+mooSGnHSeE917V
5Xd9p0uTTg35q6wYU1qkuXXTKVwc9VYex6pHSsvqtUD03rNgitLFMspf5W0gLpwA
RGmARFSirxO4sGZe3C1JZ751uaPiUo4UFwFq7poZi0GDxqwQ7dZIVSljtg==
-----END CERTIFICATE-----
