Certificate:
    Data:
        Version: 3 (0x2)
        Serial Number: 4100 (0x1004)
        Signature Algorithm: sha256WithRSAEncryption
        Issuer: C=US, ST=Florida, L=Jupiter, O=ZeroC, OU=Ice, CN=ZeroC Test CA 5/emailAddress=tests@zeroc.com
        Validity
            Not Before: Jun 25 16:16:11 2026 GMT
            Not After : Jul 28 16:16:11 2027 GMT
        Subject: CN=Server (Not Yet), C=US, ST=Florida, L=Jupiter, O=ZeroC, Inc., OU=Ice/emailAddress=info@zeroc.com
        Subject Public Key Info:
            Public Key Algorithm: rsaEncryption
                Public-Key: (2048 bit)
                Modulus:
                    00:e1:55:b5:e6:09:b1:ea:e6:b4:ce:63:31:0b:f7:
                    28:75:82:3b:fa:07:88:c9:82:be:86:d4:af:76:4f:
                    de:8c:e3:cf:e5:92:3e:43:60:8e:fa:e0:56:8c:97:
                    e6:6a:e7:74:6c:44:87:5f:4b:9a:7d:e4:cf:cf:98:
                    30:d7:2d:85:02:16:6f:cd:b7:71:a8:6a:bd:3b:09:
                    de:45:f9:7f:24:5b:b3:2b:6a:bd:3f:eb:8e:26:5f:
                    18:fb:d0:67:d7:80:c2:33:23:bf:60:39:90:21:1c:
                    79:76:7d:8a:5a:71:99:14:c6:29:72:08:24:2c:d5:
                    61:da:f3:b0:be:f6:4f:6d:ae:cd:3c:33:12:45:3b:
                    c6:22:53:3c:b3:a1:a3:c4:18:2b:1f:72:28:8f:81:
                    d3:c6:ee:a3:ed:a2:1a:e7:4a:56:b5:bc:0b:82:9b:
                    56:3c:9c:05:db:14:ba:e1:e7:b0:db:e9:91:ad:ec:
                    5b:5a:c7:b0:a6:90:0a:de:75:86:70:7b:20:35:cf:
                    8e:c0:e4:49:92:8b:f6:b8:47:6c:f4:e1:6f:0e:c5:
                    eb:b0:45:c4:77:9d:8d:6e:e0:8a:2b:c4:8d:1d:42:
                    51:8a:49:f9:3c:c7:ea:0a:b1:94:05:fd:f6:76:d6:
                    8e:c7:48:76:c0:24:6b:0e:45:96:1d:93:59:2a:6b:
                    cc:dd
                Exponent: 65537 (0x10001)
        X509v3 extensions:
            X509v3 Subject Key Identifier: 
                5A:4D:A2:3C:4A:F2:DC:19:BC:66:59:84:32:02:8E:D1:5C:6E:2F:A9
            X509v3 Authority Key Identifier: 
                E1:B5:36:FD:16:CC:5E:39:07:0F:5F:E7:30:76:98:A7:FA:E4:D3:88
            X509v3 Key Usage: critical
                Digital Signature, Non Repudiation, Key Encipherment
            X509v3 Extended Key Usage: 
                TLS Web Server Authentication
            X509v3 Subject Alternative Name: 
                IP Address:127.0.0.1, DNS:server
    Signature Algorithm: sha256WithRSAEncryption
    Signature Value:
        ad:90:bb:9d:cf:ea:a5:fd:78:06:60:f5:8f:e0:15:a1:f5:08:
        2a:22:a4:e9:c7:c6:ea:07:b0:a7:be:72:5d:97:e7:25:f1:61:
        77:ff:8c:7d:9b:ea:2f:8a:b0:dc:6c:e6:24:2b:c2:f0:23:fc:
        03:7c:1e:12:82:11:9e:fb:35:ce:73:69:09:b6:d8:e0:60:64:
        56:02:f4:a8:46:ff:1e:d7:b2:fe:11:ab:40:ef:17:6c:70:ca:
        22:f7:12:f6:3f:e4:70:fd:49:cf:4e:7a:26:ab:e6:c2:a8:18:
        6f:2e:d9:71:4d:a3:8f:0e:f0:1c:5f:e2:df:c5:8e:35:14:d2:
        28:64:f1:e0:c2:63:3a:55:16:28:cb:dd:06:02:dc:e2:2b:ae:
        2d:77:90:da:47:b1:83:59:0b:53:01:e6:76:5a:bd:10:1e:ec:
        6b:17:76:a5:63:c2:8f:f6:3b:3b:d9:e1:af:27:2f:ba:c6:5b:
        8d:ca:f4:67:73:32:77:69:e3:80:f8:0d:9d:dd:4c:22:1c:be:
        77:6b:c0:ca:6a:de:87:67:b5:fb:59:43:4f:83:14:e6:74:2a:
        18:e6:b0:36:1b:5f:9a:ad:53:3d:8b:89:19:08:6e:23:05:4c:
        e4:de:ef:c7:e1:ec:d9:05:c5:f9:45:c2:13:c0:ea:b9:d9:3c:
        68:f5:8c:31
-----BEGIN CERTIFICATE-----
MIIEFzCCAv+gAwIBAgICEAQwDQYJKoZIhvcNAQELBQAwgYkxCzAJBgNVBAYTAlVT
MRAwDgYDVQQIDAdGbG9yaWRhMRAwDgYDVQQHDAdKdXBpdGVyMQ4wDAYDVQQKDAVa
ZXJvQzEMMAoGA1UECwwDSWNlMRgwFgYDVQQDDA9aZXJvQyBUZXN0IENBIDUxHjAc
BgkqhkiG9w0BCQEWD3Rlc3RzQHplcm9jLmNvbTAeFw0yNjA2MjUxNjE2MTFaFw0y
NzA3MjgxNjE2MTFaMIGPMRkwFwYDVQQDDBBTZXJ2ZXIgKE5vdCBZZXQpMQswCQYD
VQQGEwJVUzEQMA4GA1UECAwHRmxvcmlkYTEQMA4GA1UEBwwHSnVwaXRlcjEUMBIG
A1UECgwLWmVyb0MsIEluYy4xDDAKBgNVBAsMA0ljZTEdMBsGCSqGSIb3DQEJARYO
aW5mb0B6ZXJvYy5jb20wggEiMA0GCSqGSIb3DQEBAQUAA4IBDwAwggEKAoIBAQDh
VbXmCbHq5rTOYzEL9yh1gjv6B4jJgr6G1K92T96M48/lkj5DYI764FaMl+Zq53Rs
RIdfS5p95M/PmDDXLYUCFm/Nt3Goar07Cd5F+X8kW7Mrar0/644mXxj70GfXgMIz
I79gOZAhHHl2fYpacZkUxilyCCQs1WHa87C+9k9trs08MxJFO8YiUzyzoaPEGCsf
ciiPgdPG7qPtohrnSla1vAuCm1Y8nAXbFLrh57Db6ZGt7Ftax7CmkAredYZweyA1
z47A5EmSi/a4R2z04W8OxeuwRcR3nY1u4IorxI0dQlGKSfk8x+oKsZQF/fZ21o7H
SHbAJGsORZYdk1kqa8zdAgMBAAGjgYAwfjAdBgNVHQ4EFgQUWk2iPEry3Bm8ZlmE
MgKO0VxuL6kwHwYDVR0jBBgwFoAU4bU2/RbMXjkHD1/nMHaYp/rk04gwDgYDVR0P
AQH/BAQDAgXgMBMGA1UdJQQMMAoGCCsGAQUFBwMBMBcGA1UdEQQQMA6HBH8AAAGC
BnNlcnZlcjANBgkqhkiG9w0BAQsFAAOCAQEArZC7nc/qpf14BmD1j+AVofUIKiKk
6cfG6gewp75yXZfnJfFhd/+MfZvqL4qw3GzmJCvC8CP8A3weEoIRnvs1znNpCbbY
4GBkVgL0qEb/Htey/hGrQO8XbHDKIvcS9j/kcP1Jz056JqvmwqgYby7ZcU2jjw7w
HF/i38WONRTSKGTx4MJjOlUWKMvdBgLc4iuuLXeQ2kexg1kLUwHmdlq9EB7saxd2
pWPCj/Y7O9nhrycvusZbjcr0Z3Myd2njgPgNnd1MIhy+d2vAymreh2e1+1lDT4MU
5nQqGOawNhtfmq1TPYuJGQhuIwVM5N7vx+Hs2QXF+UXCE8Dqudk8aPWMMQ==
-----END CERTIFICATE-----
