Certificate:
    Data:
        Version: 3 (0x2)
        Serial Number: 4101 (0x1005)
        Signature Algorithm: sha256WithRSAEncryption
        Issuer: C=US, ST=Florida, L=Jupiter, O=ZeroC, OU=Ice, CN=ZeroC Test CA 5/emailAddress=tests@zeroc.com
        Validity
            Not Before: Apr 18 16:55:15 2024 GMT
            Not After : May 21 16:55:15 2025 GMT
        Subject: CN=Server (Expired), C=US, ST=Florida, L=Jupiter, O=ZeroC, Inc., OU=Ice/emailAddress=info@zeroc.com
        Subject Public Key Info:
            Public Key Algorithm: rsaEncryption
                Public-Key: (2048 bit)
                Modulus:
                    00:cc:b5:66:08:ac:f0:42:b5:b4:a9:ab:67:d2:f2:
                    a9:bf:1b:06:d6:44:3f:ee:eb:aa:09:a6:7f:37:e5:
                    b1:de:e4:1a:3a:e6:98:62:fe:59:3e:a8:4c:d4:c6:
                    aa:64:6f:ff:9e:fb:1d:bc:4f:ee:d6:cc:87:f1:11:
                    e0:27:bb:2d:8f:56:12:67:1a:a3:14:f0:b8:fe:7c:
                    1e:ea:f2:ce:7e:df:2c:a7:c6:6f:02:bb:1f:79:89:
                    bf:46:54:e5:89:18:02:48:ea:c2:86:fe:83:72:32:
                    51:6b:5b:d1:cf:4a:6f:3c:0c:27:56:c1:ea:d4:76:
                    be:e8:71:8a:00:c6:b1:a8:b7:4b:52:58:02:26:af:
                    dc:b2:8d:95:7a:58:7d:6d:a4:19:28:8e:87:6d:54:
                    cf:9b:d6:49:94:c6:03:09:06:0d:5b:ea:5f:88:df:
                    8f:19:f3:70:4b:84:a6:ef:a1:61:32:23:8c:b3:b2:
                    eb:10:12:96:99:ea:4c:2f:73:65:49:46:3d:5f:e2:
                    90:ff:2f:1a:d3:3e:85:17:19:53:7d:b2:79:7f:02:
                    e5:fe:6e:d8:8f:1b:a6:21:fe:d1:41:b7:77:0d:54:
                    b4:a8:ed:f0:35:ec:67:83:45:bf:69:0c:94:f7:40:
                    c3:7e:23:0b:97:5f:e9:84:11:a9:9f:4c:7d:e0:bd:
                    35:1f
                Exponent: 65537 (0x10001)
        X509v3 extensions:
            X509v3 Subject Key Identifier: 
                16:53:60:5E:62:B4:8A:5B:87:67:25:29:F7:F6:64:11:DB:BB:D6:0F
            X509v3 Authority Key Identifier: 
                A3:84:1E:A0:10:DD:38:95:DB:BA:EC:06:EB:70:54:FE:B0:84:98:CB
            X509v3 Key Usage: critical
                Digital Signature, Non Repudiation, Key Encipherment
            X509v3 Extended Key Usage: 
                TLS Web Server Authentication
            X509v3 Subject Alternative Name: 
                IP Address:127.0.0.1, DNS:server
    Signature Algorithm: sha256WithRSAEncryption
    Signature Value:
        0a:2d:fc:a2:c9:33:98:ed:d6:9b:ea:b5:38:84:ce:b7:88:82:
        48:9b:55:09:54:cf:b3:f6:0c:6b:4c:d1:3b:40:e4:85:d5:b6:
        cf:48:70:e8:39:60:a5:b8:63:c7:74:54:be:ce:40:8d:00:8b:
        40:a2:2c:05:0e:c5:ff:73:4d:0a:71:3e:99:79:0b:ea:aa:e6:
        7d:98:9c:a9:fc:c2:da:1a:19:72:c5:48:1d:e3:90:07:55:c7:
        9d:e8:de:98:a3:42:e4:b7:f4:60:f5:89:69:d3:6d:e7:55:8d:
        e3:df:e7:bc:7f:9c:33:2d:fa:55:c6:a7:00:4f:e4:4e:df:de:
        f0:7b:56:86:65:85:08:e2:f5:5e:9e:43:ba:bb:4c:a9:22:29:
        fe:81:83:d3:38:20:0f:5a:74:24:cf:da:73:8c:9e:26:0d:48:
        4a:8f:13:1d:95:a3:c0:d9:b1:cf:7f:09:ed:cd:59:0c:e0:da:
        f7:b5:88:7c:76:08:63:fb:69:d0:b8:c5:93:ac:0f:2b:e7:80:
        c4:3d:07:a8:f4:67:a1:94:20:19:7e:7d:9d:2b:21:58:13:b8:
        9d:24:4b:8b:0c:a1:e3:7d:d0:17:d7:e4:7b:3a:1f:54:1e:94:
        03:44:99:c7:9b:c0:61:7b:c1:0f:6c:19:64:be:8b:21:c9:b4:
        10:37:92:01
-----BEGIN CERTIFICATE-----
MIIEFzCCAv+gAwIBAgICEAUwDQYJKoZIhvcNAQELBQAwgYkxCzAJBgNVBAYTAlVT
MRAwDgYDVQQIDAdGbG9yaWRhMRAwDgYDVQQHDAdKdXBpdGVyMQ4wDAYDVQQKDAVa
ZXJvQzEMMAoGA1UECwwDSWNlMRgwFgYDVQQDDA9aZXJvQyBUZXN0IENBIDUxHjAc
BgkqhkiG9w0BCQEWD3Rlc3RzQHplcm9jLmNvbTAeFw0yNDA0MTgxNjU1MTVaFw0y
NTA1MjExNjU1MTVaMIGPMRkwFwYDVQQDDBBTZXJ2ZXIgKEV4cGlyZWQpMQswCQYD
VQQGEwJVUzEQMA4GA1UECAwHRmxvcmlkYTEQMA4GA1UEBwwHSnVwaXRlcjEUMBIG
A1UECgwLWmVyb0MsIEluYy4xDDAKBgNVBAsMA0ljZTEdMBsGCSqGSIb3DQEJARYO
aW5mb0B6ZXJvYy5jb20wggEiMA0GCSqGSIb3DQEBAQUAA4IBDwAwggEKAoIBAQDM
tWYIrPBCtbSpq2fS8qm/GwbWRD/u66oJpn835bHe5Bo65phi/lk+qEzUxqpkb/+e
+x28T+7WzIfxEeAnuy2PVhJnGqMU8Lj+fB7q8s5+3yynxm8Cux95ib9GVOWJGAJI
6sKG/oNyMlFrW9HPSm88DCdWwerUdr7ocYoAxrGot0tSWAImr9yyjZV6WH1tpBko
jodtVM+b1kmUxgMJBg1b6l+I348Z83BLhKbvoWEyI4yzsusQEpaZ6kwvc2VJRj1f
4pD/LxrTPoUXGVN9snl/AuX+btiPG6Yh/tFBt3cNVLSo7fA17GeDRb9pDJT3QMN+
IwuXX+mEEamfTH3gvTUfAgMBAAGjgYAwfjAdBgNVHQ4EFgQUFlNgXmK0iluHZyUp
9/ZkEdu71g8wHwYDVR0jBBgwFoAUo4QeoBDdOJXbuuwG63BU/rCEmMswDgYDVR0P
AQH/BAQDAgXgMBMGA1UdJQQMMAoGCCsGAQUFBwMBMBcGA1UdEQQQMA6HBH8AAAGC
BnNlcnZlcjANBgkqhkiG9w0BAQsFAAOCAQEACi38oskzmO3Wm+q1OITOt4iCSJtV
CVTPs/YMa0zRO0DkhdW2z0hw6Dlgpbhjx3RUvs5AjQCLQKIsBQ7F/3NNCnE+mXkL
6qrmfZicqfzC2hoZcsVIHeOQB1XHnejemKNC5Lf0YPWJadNt51WN49/nvH+cMy36
VcanAE/kTt/e8HtWhmWFCOL1Xp5DurtMqSIp/oGD0zggD1p0JM/ac4yeJg1ISo8T
HZWjwNmxz38J7c1ZDODa97WIfHYIY/tp0LjFk6wPK+eAxD0HqPRnoZQgGX59nSsh
WBO4nSRLiwyh433QF9fkezofVB6UA0SZx5vAYXvBD2wZZL6LIcm0EDeSAQ==
-----END CERTIFICATE-----
