Certificate:
    Data:
        Version: 3 (0x2)
        Serial Number: 4096 (0x1000)
        Signature Algorithm: sha256WithRSAEncryption
        Issuer: C=US, ST=Florida, L=Jupiter, O=ZeroC, OU=Ice, CN=Ice Tests CA/emailAddress=tests@zeroc.com
        Validity
            Not Before: May 22 16:16:06 2025 GMT
            Not After : Jun 24 16:16:06 2026 GMT
        Subject: CN=client, C=US, ST=Florida, L=Jupiter, O=ZeroC, Inc., OU=Ice/emailAddress=info@zeroc.com
        Subject Public Key Info:
            Public Key Algorithm: rsaEncryption
                Public-Key: (2048 bit)
                Modulus:
                    00:cb:a9:6b:59:59:3a:65:43:52:f2:3c:75:4d:df:
                    fb:8f:bf:7e:7b:71:fa:aa:50:ca:46:af:64:7b:2c:
                    02:70:4a:3f:80:02:15:79:4a:a4:9f:ee:74:a7:a8:
                    7f:df:00:8f:1b:63:22:ac:c1:8f:5f:eb:a8:98:ed:
                    75:de:08:13:23:f2:ec:c0:32:ed:c1:dc:ff:17:44:
                    a8:6d:88:6f:ed:37:c9:1a:75:a4:e7:0f:c9:fa:31:
                    a2:54:d1:73:68:15:d2:d0:dc:d1:4e:09:06:7c:b1:
                    e9:09:21:55:5f:87:26:ae:50:f5:02:a8:d5:9b:45:
                    08:73:3c:34:b1:2f:6f:d2:fa:ed:b0:23:fe:df:f1:
                    63:e9:65:3b:01:54:db:0e:de:ce:34:4c:fd:d9:e0:
                    e5:df:c8:80:67:df:5e:08:b2:23:e6:e4:41:82:eb:
                    b4:2a:b9:ae:1f:dc:f5:fa:b6:9a:95:54:a3:89:5e:
                    fe:7e:10:a6:81:2b:55:d2:43:5a:e5:58:bf:2b:2f:
                    96:8d:a6:f9:d1:9a:e0:41:be:47:c5:6d:0d:d2:e4:
                    e3:4c:20:04:78:55:9b:cd:e8:39:2c:e5:3f:6b:52:
                    ad:93:03:e8:83:9a:1d:c7:6f:d9:e2:0a:32:10:53:
                    f7:53:33:14:ae:6a:a5:24:83:e9:b3:ee:ce:a0:16:
                    f9:77
                Exponent: 65537 (0x10001)
        X509v3 extensions:
            X509v3 Subject Key Identifier: 
                88:3D:10:82:CF:6B:D6:0C:D9:CC:34:45:F3:E1:02:47:77:13:93:6F
            X509v3 Authority Key Identifier: 
                F2:2B:2D:4E:2A:E5:73:59:BE:70:29:DB:68:CC:F8:20:28:33:DB:8A
            X509v3 Key Usage: critical
                Digital Signature, Non Repudiation, Key Encipherment
            X509v3 Extended Key Usage: 
                TLS Web Client Authentication
            X509v3 Subject Alternative Name: 
                DNS:localhost, IP Address:127.0.0.1
    Signature Algorithm: sha256WithRSAEncryption
    Signature Value:
        46:96:6d:9e:dc:be:2d:57:26:f4:8a:05:17:e8:41:cf:6c:fd:
        4a:99:e3:ca:0d:71:df:9e:90:61:d2:fb:b8:ff:1e:67:02:4a:
        ac:fe:e1:2a:54:48:35:4b:73:58:66:71:ce:02:97:79:f3:4d:
        50:d2:3b:0e:00:2f:e6:15:9e:ae:d3:08:8c:db:0c:d6:31:44:
        b9:f3:4e:87:e2:e1:d8:a1:86:e8:86:0f:46:d0:c4:91:af:90:
        41:7f:73:03:06:2c:52:ae:92:f0:5d:e8:75:2f:df:ff:8a:1a:
        0f:3f:bf:72:f6:c3:71:67:46:37:7a:21:eb:35:41:54:ad:0c:
        b8:54:b9:e9:00:71:c5:c5:4a:a2:4b:07:07:4d:0d:17:98:4a:
        bd:50:0b:7b:9b:4c:82:bb:b1:4e:b7:17:3f:92:7e:13:f5:7b:
        d8:79:6c:71:f7:b7:d3:26:93:35:3b:ea:60:af:5c:ac:3b:3f:
        9b:d8:bf:7b:4c:44:a8:a7:45:da:ed:6a:bb:3e:d5:76:cb:54:
        36:d0:bb:bb:9e:7e:8f:44:e5:2b:57:cc:6e:46:c5:e5:1c:b8:
        9f:a0:67:d1:2f:53:1f:ae:bf:a6:d5:14:2e:27:b9:97:f7:08:
        6c:04:99:03:93:4d:35:28:2b:a0:0e:09:c7:6c:3f:09:14:83:
        de:f4:fd:ee
-----BEGIN CERTIFICATE-----
MIIEDjCCAvagAwIBAgICEAAwDQYJKoZIhvcNAQELBQAwgYYxCzAJBgNVBAYTAlVT
MRAwDgYDVQQIDAdGbG9yaWRhMRAwDgYDVQQHDAdKdXBpdGVyMQ4wDAYDVQQKDAVa
ZXJvQzEMMAoGA1UECwwDSWNlMRUwEwYDVQQDDAxJY2UgVGVzdHMgQ0ExHjAcBgkq
hkiG9w0BCQEWD3Rlc3RzQHplcm9jLmNvbTAeFw0yNTA1MjIxNjE2MDZaFw0yNjA2
MjQxNjE2MDZaMIGFMQ8wDQYDVQQDDAZjbGllbnQxCzAJBgNVBAYTAlVTMRAwDgYD
VQQIDAdGbG9yaWRhMRAwDgYDVQQHDAdKdXBpdGVyMRQwEgYDVQQKDAtaZXJvQywg
SW5jLjEMMAoGA1UECwwDSWNlMR0wGwYJKoZIhvcNAQkBFg5pbmZvQHplcm9jLmNv
bTCCASIwDQYJKoZIhvcNAQEBBQADggEPADCCAQoCggEBAMupa1lZOmVDUvI8dU3f
+4+/fntx+qpQykavZHssAnBKP4ACFXlKpJ/udKeof98AjxtjIqzBj1/rqJjtdd4I
EyPy7MAy7cHc/xdEqG2Ib+03yRp1pOcPyfoxolTRc2gV0tDc0U4JBnyx6QkhVV+H
Jq5Q9QKo1ZtFCHM8NLEvb9L67bAj/t/xY+llOwFU2w7ezjRM/dng5d/IgGffXgiy
I+bkQYLrtCq5rh/c9fq2mpVUo4le/n4QpoErVdJDWuVYvysvlo2m+dGa4EG+R8Vt
DdLk40wgBHhVm83oOSzlP2tSrZMD6IOaHcdv2eIKMhBT91MzFK5qpSSD6bPuzqAW
+XcCAwEAAaOBhDCBgTAdBgNVHQ4EFgQUiD0Qgs9r1gzZzDRF8+ECR3cTk28wHwYD
VR0jBBgwFoAU8istTirlc1m+cCnbaMz4ICgz24owDgYDVR0PAQH/BAQDAgXgMBMG
A1UdJQQMMAoGCCsGAQUFBwMCMBoGA1UdEQQTMBGCCWxvY2FsaG9zdIcEfwAAATAN
BgkqhkiG9w0BAQsFAAOCAQEARpZtnty+LVcm9IoFF+hBz2z9Spnjyg1x356QYdL7
uP8eZwJKrP7hKlRINUtzWGZxzgKXefNNUNI7DgAv5hWertMIjNsM1jFEufNOh+Lh
2KGG6IYPRtDEka+QQX9zAwYsUq6S8F3odS/f/4oaDz+/cvbDcWdGN3oh6zVBVK0M
uFS56QBxxcVKoksHB00NF5hKvVALe5tMgruxTrcXP5J+E/V72Hlscfe30yaTNTvq
YK9crDs/m9i/e0xEqKdF2u1quz7VdstUNtC7u55+j0TlK1fMbkbF5Ry4n6Bn0S9T
H66/ptUULie5l/cIbASZA5NNNSgroA4Jx2w/CRSD3vT97g==
-----END CERTIFICATE-----
