Certificate:
    Data:
        Version: 3 (0x2)
        Serial Number: 4096 (0x1000)
        Signature Algorithm: sha256WithRSAEncryption
        Issuer: C=US, ST=Florida, L=Jupiter, O=ZeroC, OU=Ice, CN=Ice Tests CA/emailAddress=tests@zeroc.com
        Validity
            Not Before: May 22 15:10:12 2025 GMT
            Not After : Jun 24 15:10:12 2026 GMT
        Subject: CN=client, ST=Florida, L=Jupiter, O=ZeroC, Inc., OU=Ice/emailAddress=info@zeroc.com
        Subject Public Key Info:
            Public Key Algorithm: rsaEncryption
                Public-Key: (2048 bit)
                Modulus:
                    00:bb:8f:32:24:c4:f7:50:a7:80:21:b5:9a:b2:71:
                    41:bc:34:7d:6b:10:d5:5e:a7:31:ce:45:a0:ee:8d:
                    7c:fa:33:4b:73:93:6f:a4:dc:88:17:1f:b9:d8:12:
                    0d:2d:3d:9f:41:0e:63:14:df:d7:b8:08:c2:79:c8:
                    09:7f:ed:6d:df:92:24:c1:c2:14:fd:db:1f:a7:3c:
                    14:43:eb:99:7d:ea:d4:10:04:d5:cf:c4:86:e8:11:
                    2a:63:63:71:0e:6d:b7:7a:fd:7b:0c:8d:32:e4:26:
                    76:00:f8:09:e3:31:e7:35:9f:45:e2:0d:a0:51:aa:
                    78:df:de:6e:39:56:aa:5e:07:49:a7:41:b2:c7:16:
                    55:18:d6:38:44:ed:69:79:ae:ab:a1:cf:3d:b4:b2:
                    43:36:7b:fb:3c:8d:bf:f4:be:9b:a5:46:78:23:0b:
                    b4:6d:b4:f9:b3:bc:49:e9:8d:8d:26:ea:96:b5:3e:
                    96:64:8a:dc:e2:6d:63:2a:35:53:63:31:9f:a9:89:
                    bb:30:84:e3:02:eb:7c:57:e8:fb:69:2a:63:f8:bb:
                    77:9a:7b:11:64:f6:c6:ee:5e:a7:02:de:52:c7:45:
                    4e:f3:a3:c4:2b:4c:c9:e0:ef:37:4c:37:75:45:45:
                    04:55:63:f6:ee:5b:87:ef:2a:58:89:14:eb:9d:06:
                    99:97
                Exponent: 65537 (0x10001)
        X509v3 extensions:
            X509v3 Subject Key Identifier: 
                C5:D2:5D:73:A6:87:55:F3:A4:CE:0A:11:B2:F5:12:E6:3C:C0:14:CE
            X509v3 Authority Key Identifier: 
                51:0E:92:ED:12:F0:AE:37:08:2E:81:9C:5D:AE:19:D9:2F:D1:C0:82
            X509v3 Key Usage: critical
                Digital Signature, Non Repudiation, Key Encipherment
            X509v3 Extended Key Usage: 
                TLS Web Client Authentication
            X509v3 Subject Alternative Name: 
                DNS:localhost, IP Address:127.0.0.1
    Signature Algorithm: sha256WithRSAEncryption
    Signature Value:
        96:d0:f3:9e:9a:d7:3e:55:56:55:07:b2:4f:f6:ab:5c:30:64:
        6d:cd:15:65:25:d5:d7:0e:cc:38:d5:54:aa:b1:0d:ed:cc:7e:
        56:d2:f9:22:b6:ec:c9:3f:58:51:a4:57:13:74:9d:b9:09:4e:
        d3:0d:77:98:f4:dd:a6:2a:b5:d2:ac:34:d2:0f:f2:2c:0d:64:
        c9:84:df:5a:22:da:ad:80:46:7a:47:d9:d0:a2:a1:79:0a:b1:
        79:4c:57:76:b9:08:98:43:1a:45:c7:47:f1:55:7a:97:2a:9e:
        ff:c7:0a:01:dd:67:26:c4:0e:86:88:ea:8c:bb:7e:9c:ab:ff:
        97:c4:f3:fe:c6:01:bc:33:d2:1d:0c:f3:85:d0:59:35:8c:db:
        60:1b:8c:67:d6:76:66:6b:05:b0:68:a0:f6:e1:08:b2:3c:ca:
        47:33:5c:bd:3c:8d:c4:01:ff:56:03:56:e3:3d:7d:ec:4f:e0:
        06:0c:bf:10:95:bf:ad:63:f5:f2:5a:0c:4a:d1:3c:7f:66:f0:
        3a:d8:f2:af:d6:2b:36:b3:31:f3:fb:ea:59:22:5d:b7:6c:d2:
        d4:9a:2d:e7:62:c5:4e:dd:af:14:5d:c8:2f:2b:fd:98:77:23:
        c3:17:e0:db:ad:6f:a2:44:7b:57:cd:3f:14:da:48:a1:9d:46:
        8a:ed:17:52
-----BEGIN CERTIFICATE-----
MIIEADCCAuigAwIBAgICEAAwDQYJKoZIhvcNAQELBQAwgYYxCzAJBgNVBAYTAlVT
MRAwDgYDVQQIDAdGbG9yaWRhMRAwDgYDVQQHDAdKdXBpdGVyMQ4wDAYDVQQKDAVa
ZXJvQzEMMAoGA1UECwwDSWNlMRUwEwYDVQQDDAxJY2UgVGVzdHMgQ0ExHjAcBgkq
hkiG9w0BCQEWD3Rlc3RzQHplcm9jLmNvbTAeFw0yNTA1MjIxNTEwMTJaFw0yNjA2
MjQxNTEwMTJaMHgxDzANBgNVBAMMBmNsaWVudDEQMA4GA1UECAwHRmxvcmlkYTEQ
MA4GA1UEBwwHSnVwaXRlcjEUMBIGA1UECgwLWmVyb0MsIEluYy4xDDAKBgNVBAsM
A0ljZTEdMBsGCSqGSIb3DQEJARYOaW5mb0B6ZXJvYy5jb20wggEiMA0GCSqGSIb3
DQEBAQUAA4IBDwAwggEKAoIBAQC7jzIkxPdQp4AhtZqycUG8NH1rENVepzHORaDu
jXz6M0tzk2+k3IgXH7nYEg0tPZ9BDmMU39e4CMJ5yAl/7W3fkiTBwhT92x+nPBRD
65l96tQQBNXPxIboESpjY3EObbd6/XsMjTLkJnYA+AnjMec1n0XiDaBRqnjf3m45
VqpeB0mnQbLHFlUY1jhE7Wl5rquhzz20skM2e/s8jb/0vpulRngjC7RttPmzvEnp
jY0m6pa1PpZkitzibWMqNVNjMZ+pibswhOMC63xX6PtpKmP4u3eaexFk9sbuXqcC
3lLHRU7zo8QrTMng7zdMN3VFRQRVY/buW4fvKliJFOudBpmXAgMBAAGjgYQwgYEw
HQYDVR0OBBYEFMXSXXOmh1XzpM4KEbL1EuY8wBTOMB8GA1UdIwQYMBaAFFEOku0S
8K43CC6BnF2uGdkv0cCCMA4GA1UdDwEB/wQEAwIF4DATBgNVHSUEDDAKBggrBgEF
BQcDAjAaBgNVHREEEzARgglsb2NhbGhvc3SHBH8AAAEwDQYJKoZIhvcNAQELBQAD
ggEBAJbQ856a1z5VVlUHsk/2q1wwZG3NFWUl1dcOzDjVVKqxDe3MflbS+SK27Mk/
WFGkVxN0nbkJTtMNd5j03aYqtdKsNNIP8iwNZMmE31oi2q2ARnpH2dCioXkKsXlM
V3a5CJhDGkXHR/FVepcqnv/HCgHdZybEDoaI6oy7fpyr/5fE8/7GAbwz0h0M84XQ
WTWM22AbjGfWdmZrBbBooPbhCLI8ykczXL08jcQB/1YDVuM9fexP4AYMvxCVv61j
9fJaDErRPH9m8DrY8q/WKzazMfP76lkiXbds0tSaLedixU7drxRdyC8r/Zh3I8MX
4Nutb6JEe1fNPxTaSKGdRortF1I=
-----END CERTIFICATE-----
