Certificate:
    Data:
        Version: 3 (0x2)
        Serial Number: 4096 (0x1000)
        Signature Algorithm: sha256WithRSAEncryption
        Issuer: C=US, ST=Florida, L=Jupiter, O=ZeroC, OU=Ice, CN=Ice Tests CA/emailAddress=tests@zeroc.com
        Validity
            Not Before: May 22 16:55:11 2025 GMT
            Not After : Jun 24 16:55:11 2026 GMT
        Subject: CN=client, C=US, ST=Florida, L=Jupiter, O=ZeroC, Inc., OU=Ice/emailAddress=info@zeroc.com
        Subject Public Key Info:
            Public Key Algorithm: rsaEncryption
                Public-Key: (2048 bit)
                Modulus:
                    00:cd:5f:9a:72:8a:f1:39:eb:ef:89:75:f9:39:d3:
                    74:75:0c:14:a8:dc:29:e5:64:48:88:3d:50:9e:54:
                    de:2c:c4:14:70:0f:20:a0:17:3a:64:68:53:06:27:
                    9b:06:8a:eb:6a:e5:43:f8:74:08:4a:10:6b:69:69:
                    fa:72:45:c7:17:60:6d:ed:4c:ae:9d:a3:6a:13:d1:
                    b5:c2:3c:df:2b:2c:f6:64:87:89:c0:dd:1c:0b:d5:
                    76:8b:30:83:72:bd:9e:50:ce:80:0b:71:d5:b1:5f:
                    94:d0:18:98:90:1a:95:8f:c0:ba:21:41:1e:74:8f:
                    43:ad:8e:84:17:7c:0b:21:87:d6:ef:d9:e4:d1:8f:
                    2f:56:2d:33:62:a8:b7:e2:01:c7:de:a9:56:22:de:
                    7f:5f:fe:b3:e7:e4:d6:e3:1f:92:59:bd:ac:c3:42:
                    d2:18:7d:45:3d:57:ab:63:83:c5:f0:92:95:90:4f:
                    0a:2b:58:36:19:7c:7f:db:92:d0:cd:a3:2c:71:dd:
                    aa:77:29:ba:92:47:b4:54:17:d8:15:17:14:b6:bb:
                    f3:dd:38:6c:27:2a:6f:f1:40:9c:32:56:60:64:65:
                    39:6d:bb:7f:99:f2:1d:b1:b0:0a:6f:10:af:6d:33:
                    ab:e1:d0:00:ab:36:4a:7d:ea:52:8c:6e:41:e6:d3:
                    f0:8b
                Exponent: 65537 (0x10001)
        X509v3 extensions:
            X509v3 Subject Key Identifier: 
                8A:F9:56:56:11:A2:3D:70:5E:DA:4C:18:96:85:89:A0:97:E4:7B:B2
            X509v3 Authority Key Identifier: 
                81:E1:B4:A7:B1:9B:98:9E:F0:4F:BB:E4:A9:A3:7A:44:4E:A4:E5:A7
            X509v3 Key Usage: critical
                Digital Signature, Non Repudiation, Key Encipherment
            X509v3 Extended Key Usage: 
                TLS Web Client Authentication
            X509v3 Subject Alternative Name: 
                DNS:localhost, IP Address:127.0.0.1
    Signature Algorithm: sha256WithRSAEncryption
    Signature Value:
        6f:29:87:b3:02:8f:a0:41:1a:d5:d6:43:3d:66:c4:4d:c7:b0:
        82:ad:16:d4:91:13:5e:ad:d0:69:89:c0:69:41:56:6d:cc:d8:
        a9:7c:76:18:9a:95:9d:8c:d8:9b:63:4b:29:16:84:06:49:a6:
        5d:e4:02:4f:d4:f9:d5:34:0e:53:8c:6a:64:76:8f:38:57:94:
        29:87:31:0b:89:fe:0e:33:b2:b7:cf:89:bd:62:a1:52:9a:bb:
        13:17:07:fb:4d:0d:00:63:1e:ef:95:6d:e4:8a:31:ad:f3:5a:
        f3:f6:29:6a:d5:34:d5:06:e5:54:4b:77:e7:12:1d:62:56:93:
        37:99:db:70:b3:c7:d7:ec:36:67:92:49:37:82:24:1b:1b:69:
        c5:94:37:d4:c7:c5:a5:b7:ce:94:30:b2:16:4f:f5:e6:5c:18:
        e9:f7:7f:37:08:e7:ac:83:1d:35:fe:f4:da:d1:f5:c7:5d:7a:
        ee:fe:f1:ad:21:8d:d3:c1:76:09:0e:93:b4:f8:69:53:f4:d0:
        30:3d:a5:89:cc:a6:ce:f2:4e:d2:30:12:25:0c:c8:cf:35:d5:
        9d:6b:c2:7c:0b:bc:c2:ea:fb:e7:25:0b:c0:74:f2:e3:dd:be:
        4d:39:f5:7f:aa:19:6a:8d:ba:72:19:6e:e9:e6:be:38:2f:f6:
        75:22:56:f1
-----BEGIN CERTIFICATE-----
MIIEDjCCAvagAwIBAgICEAAwDQYJKoZIhvcNAQELBQAwgYYxCzAJBgNVBAYTAlVT
MRAwDgYDVQQIDAdGbG9yaWRhMRAwDgYDVQQHDAdKdXBpdGVyMQ4wDAYDVQQKDAVa
ZXJvQzEMMAoGA1UECwwDSWNlMRUwEwYDVQQDDAxJY2UgVGVzdHMgQ0ExHjAcBgkq
hkiG9w0BCQEWD3Rlc3RzQHplcm9jLmNvbTAeFw0yNTA1MjIxNjU1MTFaFw0yNjA2
MjQxNjU1MTFaMIGFMQ8wDQYDVQQDDAZjbGllbnQxCzAJBgNVBAYTAlVTMRAwDgYD
VQQIDAdGbG9yaWRhMRAwDgYDVQQHDAdKdXBpdGVyMRQwEgYDVQQKDAtaZXJvQywg
SW5jLjEMMAoGA1UECwwDSWNlMR0wGwYJKoZIhvcNAQkBFg5pbmZvQHplcm9jLmNv
bTCCASIwDQYJKoZIhvcNAQEBBQADggEPADCCAQoCggEBAM1fmnKK8Tnr74l1+TnT
dHUMFKjcKeVkSIg9UJ5U3izEFHAPIKAXOmRoUwYnmwaK62rlQ/h0CEoQa2lp+nJF
xxdgbe1Mrp2jahPRtcI83yss9mSHicDdHAvVdoswg3K9nlDOgAtx1bFflNAYmJAa
lY/AuiFBHnSPQ62OhBd8CyGH1u/Z5NGPL1YtM2Kot+IBx96pViLef1/+s+fk1uMf
klm9rMNC0hh9RT1Xq2ODxfCSlZBPCitYNhl8f9uS0M2jLHHdqncpupJHtFQX2BUX
FLa78904bCcqb/FAnDJWYGRlOW27f5nyHbGwCm8Qr20zq+HQAKs2Sn3qUoxuQebT
8IsCAwEAAaOBhDCBgTAdBgNVHQ4EFgQUivlWVhGiPXBe2kwYloWJoJfke7IwHwYD
VR0jBBgwFoAUgeG0p7GbmJ7wT7vkqaN6RE6k5acwDgYDVR0PAQH/BAQDAgXgMBMG
A1UdJQQMMAoGCCsGAQUFBwMCMBoGA1UdEQQTMBGCCWxvY2FsaG9zdIcEfwAAATAN
BgkqhkiG9w0BAQsFAAOCAQEAbymHswKPoEEa1dZDPWbETcewgq0W1JETXq3QaYnA
aUFWbczYqXx2GJqVnYzYm2NLKRaEBkmmXeQCT9T51TQOU4xqZHaPOFeUKYcxC4n+
DjOyt8+JvWKhUpq7ExcH+00NAGMe75Vt5IoxrfNa8/YpatU01QblVEt35xIdYlaT
N5nbcLPH1+w2Z5JJN4IkGxtpxZQ31MfFpbfOlDCyFk/15lwY6fd/NwjnrIMdNf70
2tH1x1167v7xrSGN08F2CQ6TtPhpU/TQMD2licymzvJO0jASJQzIzzXVnWvCfAu8
wur75yULwHTy492+TTn1f6oZao26chlu6ea+OC/2dSJW8Q==
-----END CERTIFICATE-----
