Certificate:
    Data:
        Version: 3 (0x2)
        Serial Number: 4097 (0x1001)
        Signature Algorithm: sha256WithRSAEncryption
        Issuer: C=US, ST=Florida, L=Jupiter, O=ZeroC, OU=Ice, CN=Ice Tests CA/emailAddress=tests@zeroc.com
        Validity
            Not Before: May 22 16:16:15 2025 GMT
            Not After : Jun 24 16:16:15 2026 GMT
        Subject: CN=127.0.0.1, C=US, ST=Florida, L=Jupiter, O=ZeroC, Inc., OU=Ice/emailAddress=info@zeroc.com
        Subject Public Key Info:
            Public Key Algorithm: rsaEncryption
                Public-Key: (2048 bit)
                Modulus:
                    00:b4:9d:40:a6:0e:36:f2:9b:2d:3e:b1:cc:9f:d9:
                    f2:ed:0a:d1:d4:cd:7d:5f:00:87:f5:e5:aa:cc:8e:
                    97:e4:3b:73:81:da:ba:39:4b:4a:e7:3c:3e:86:ff:
                    c5:6f:cc:62:b9:4b:70:33:12:ae:a6:07:01:96:8f:
                    2b:cc:c4:28:87:9d:bd:52:d9:da:4f:83:91:1f:3f:
                    16:6d:20:a6:7b:bf:8d:8b:5d:48:63:1b:69:75:a7:
                    a5:ec:db:70:02:3c:c0:86:ca:ed:4b:a3:bd:e5:16:
                    38:6b:bd:b2:fe:bb:ba:85:f3:1c:b2:b7:43:dd:89:
                    65:56:af:22:eb:83:44:e9:1f:72:7c:0a:a9:55:ef:
                    ac:15:24:72:af:14:67:1e:4e:9c:a7:6f:e4:64:fc:
                    e9:a2:60:87:75:08:41:ec:51:51:13:18:6a:65:d7:
                    0e:5e:32:4a:9e:df:d0:78:4e:39:5b:c6:71:1f:4b:
                    a6:b0:36:d5:b5:d8:0f:70:a7:8d:66:aa:11:9e:5d:
                    a7:1d:24:bc:3d:0b:ad:41:61:e2:f9:fc:f2:d2:97:
                    43:23:f6:1b:63:92:18:ac:61:10:79:f6:05:f1:26:
                    1f:b5:38:c3:0b:42:68:2f:1e:c5:00:b5:39:1a:60:
                    f1:a1:79:4e:cd:67:e5:f4:db:82:f4:31:ba:77:af:
                    71:b5
                Exponent: 65537 (0x10001)
        X509v3 extensions:
            X509v3 Subject Key Identifier: 
                04:B0:64:C5:CD:69:76:A5:CA:2F:E6:8C:AB:40:25:E7:EC:A8:B4:87
            X509v3 Authority Key Identifier: 
                F2:2B:2D:4E:2A:E5:73:59:BE:70:29:DB:68:CC:F8:20:28:33:DB:8A
            X509v3 Key Usage: critical
                Digital Signature, Non Repudiation, Key Encipherment
            X509v3 Extended Key Usage: 
                TLS Web Server Authentication, TLS Web Client Authentication
            X509v3 Subject Alternative Name: 
                IP Address:127.0.0.1, DNS:server
    Signature Algorithm: sha256WithRSAEncryption
    Signature Value:
        3e:82:1f:7a:08:30:69:18:b5:7c:b1:02:ee:43:b1:b0:dd:16:
        31:e2:8b:ab:a7:66:a6:a2:8f:3b:bd:56:dc:bd:0b:e0:dc:42:
        36:66:5d:69:3c:56:83:2f:b1:34:2a:7a:b1:86:7c:75:09:28:
        76:b0:af:fb:09:36:ab:02:b2:82:31:cb:c7:a0:6c:99:6e:a5:
        aa:5c:39:f9:9b:ca:46:af:47:98:06:f0:40:a9:73:62:3d:e2:
        ec:a8:c2:db:66:a2:2a:cd:31:df:01:99:13:2b:49:d9:9c:52:
        90:fa:92:82:16:81:54:0d:ae:47:11:1a:aa:e3:24:b6:4b:b6:
        9d:a2:f3:e0:d7:bd:6a:e1:49:bd:d3:76:29:06:b2:b0:bc:63:
        bd:c7:be:75:25:64:e4:8a:a7:1f:03:0c:2b:bd:26:7f:4e:1e:
        e5:ba:a1:4c:98:42:a0:b3:63:ea:a6:fd:a1:de:12:e7:76:14:
        54:ae:cc:85:08:e1:76:f5:89:e1:21:b9:11:a1:1c:9a:0d:e2:
        4c:58:cc:bc:be:38:c1:07:4c:34:e1:cb:a3:b2:3a:35:7f:9b:
        a4:5a:0a:b9:44:f6:76:15:e1:6b:5b:16:08:c6:4c:4e:63:3d:
        17:ef:e3:dd:48:34:d2:a3:af:a1:61:70:56:20:4a:83:fe:7a:
        28:fb:43:ac
-----BEGIN CERTIFICATE-----
MIIEGDCCAwCgAwIBAgICEAEwDQYJKoZIhvcNAQELBQAwgYYxCzAJBgNVBAYTAlVT
MRAwDgYDVQQIDAdGbG9yaWRhMRAwDgYDVQQHDAdKdXBpdGVyMQ4wDAYDVQQKDAVa
ZXJvQzEMMAoGA1UECwwDSWNlMRUwEwYDVQQDDAxJY2UgVGVzdHMgQ0ExHjAcBgkq
hkiG9w0BCQEWD3Rlc3RzQHplcm9jLmNvbTAeFw0yNTA1MjIxNjE2MTVaFw0yNjA2
MjQxNjE2MTVaMIGIMRIwEAYDVQQDDAkxMjcuMC4wLjExCzAJBgNVBAYTAlVTMRAw
DgYDVQQIDAdGbG9yaWRhMRAwDgYDVQQHDAdKdXBpdGVyMRQwEgYDVQQKDAtaZXJv
QywgSW5jLjEMMAoGA1UECwwDSWNlMR0wGwYJKoZIhvcNAQkBFg5pbmZvQHplcm9j
LmNvbTCCASIwDQYJKoZIhvcNAQEBBQADggEPADCCAQoCggEBALSdQKYONvKbLT6x
zJ/Z8u0K0dTNfV8Ah/XlqsyOl+Q7c4HaujlLSuc8Pob/xW/MYrlLcDMSrqYHAZaP
K8zEKIedvVLZ2k+DkR8/Fm0gpnu/jYtdSGMbaXWnpezbcAI8wIbK7UujveUWOGu9
sv67uoXzHLK3Q92JZVavIuuDROkfcnwKqVXvrBUkcq8UZx5OnKdv5GT86aJgh3UI
QexRURMYamXXDl4ySp7f0HhOOVvGcR9LprA21bXYD3CnjWaqEZ5dpx0kvD0LrUFh
4vn88tKXQyP2G2OSGKxhEHn2BfEmH7U4wwtCaC8exQC1ORpg8aF5Ts1n5fTbgvQx
unevcbUCAwEAAaOBizCBiDAdBgNVHQ4EFgQUBLBkxc1pdqXKL+aMq0Al5+yotIcw
HwYDVR0jBBgwFoAU8istTirlc1m+cCnbaMz4ICgz24owDgYDVR0PAQH/BAQDAgXg
MB0GA1UdJQQWMBQGCCsGAQUFBwMBBggrBgEFBQcDAjAXBgNVHREEEDAOhwR/AAAB
ggZzZXJ2ZXIwDQYJKoZIhvcNAQELBQADggEBAD6CH3oIMGkYtXyxAu5DsbDdFjHi
i6unZqaijzu9Vty9C+DcQjZmXWk8VoMvsTQqerGGfHUJKHawr/sJNqsCsoIxy8eg
bJlupapcOfmbykavR5gG8ECpc2I94uyowttmoirNMd8BmRMrSdmcUpD6koIWgVQN
rkcRGqrjJLZLtp2i8+DXvWrhSb3TdikGsrC8Y73HvnUlZOSKpx8DDCu9Jn9OHuW6
oUyYQqCzY+qm/aHeEud2FFSuzIUI4Xb1ieEhuRGhHJoN4kxYzLy+OMEHTDThy6Oy
OjV/m6RaCrlE9nYV4WtbFgjGTE5jPRfv491INNKjr6FhcFYgSoP+eij7Q6w=
-----END CERTIFICATE-----
