Certificate:
    Data:
        Version: 3 (0x2)
        Serial Number: 4097 (0x1001)
        Signature Algorithm: sha256WithRSAEncryption
        Issuer: C=US, ST=Florida, L=Jupiter, O=ZeroC, OU=Ice, CN=Ice Tests CA/emailAddress=tests@zeroc.com
        Validity
            Not Before: May 22 16:55:19 2025 GMT
            Not After : Jun 24 16:55:19 2026 GMT
        Subject: CN=127.0.0.1, C=US, ST=Florida, L=Jupiter, O=ZeroC, Inc., OU=Ice/emailAddress=info@zeroc.com
        Subject Public Key Info:
            Public Key Algorithm: rsaEncryption
                Public-Key: (2048 bit)
                Modulus:
                    00:ad:00:ee:5e:d9:2f:da:cd:5f:a8:04:25:d2:34:
                    52:05:17:0c:20:78:9a:cf:84:a5:ec:83:73:50:3d:
                    8e:bf:fb:81:b5:01:af:19:3f:58:48:2c:f7:fa:86:
                    57:c9:d7:ef:d6:62:1c:c0:10:2e:87:83:1e:d1:99:
                    e5:76:ac:83:cd:83:1c:29:8b:95:4d:5d:68:dd:74:
                    58:b0:fb:87:13:4f:d1:ad:5c:7b:a7:67:60:7a:49:
                    a0:57:c5:a7:1f:56:1a:00:71:80:e1:93:6f:b8:75:
                    8c:77:66:20:b0:4a:6d:f0:de:39:21:49:8c:5e:5c:
                    cd:30:6d:39:23:c2:08:47:7d:70:b3:f3:e2:f0:74:
                    dd:80:54:3f:40:45:e0:76:a6:5c:76:e9:18:56:57:
                    ed:08:0f:71:68:d1:2a:d5:73:d6:ed:fc:06:51:e7:
                    b3:05:9c:15:1a:ac:b5:33:95:d1:97:18:aa:e8:a3:
                    46:8a:83:64:ba:1a:7d:5c:27:42:96:9e:48:de:78:
                    2c:aa:d6:e7:40:29:44:aa:8b:f1:8e:17:f6:c3:98:
                    2e:e0:c8:01:40:a8:15:33:8e:37:c3:f0:72:aa:3c:
                    ba:e5:ab:0e:56:85:66:de:3b:41:4b:ed:e4:da:00:
                    da:63:15:42:fc:37:3b:a7:65:c2:9e:ad:66:96:41:
                    50:fd
                Exponent: 65537 (0x10001)
        X509v3 extensions:
            X509v3 Subject Key Identifier: 
                66:9E:0F:4D:58:77:F6:62:F0:C3:A5:90:64:94:65:4A:77:DC:64:8F
            X509v3 Authority Key Identifier: 
                81:E1:B4:A7:B1:9B:98:9E:F0:4F:BB:E4:A9:A3:7A:44:4E:A4:E5:A7
            X509v3 Key Usage: critical
                Digital Signature, Non Repudiation, Key Encipherment
            X509v3 Extended Key Usage: 
                TLS Web Server Authentication, TLS Web Client Authentication
            X509v3 Subject Alternative Name: 
                IP Address:127.0.0.1, DNS:server
    Signature Algorithm: sha256WithRSAEncryption
    Signature Value:
        64:d3:41:65:9e:3a:ea:3d:50:81:e3:4e:81:14:67:59:96:7c:
        59:bf:7e:dd:17:2a:2d:6c:24:9d:ff:7a:4a:4f:12:9c:dd:ac:
        66:02:88:84:c9:59:ee:5d:65:71:7e:6f:88:2e:de:59:69:5b:
        c5:0f:77:f7:5f:c4:7b:14:55:3e:dc:dc:53:66:f4:53:4e:3d:
        b2:13:85:ab:ae:5d:f4:1a:19:f2:87:97:b8:03:3a:aa:67:9c:
        f7:96:92:31:03:8f:1c:46:8c:a7:26:06:d2:7f:50:1c:19:ba:
        6a:08:b4:b5:7d:42:f9:2b:23:98:bc:9a:d7:0d:5d:28:57:49:
        cf:64:e3:18:75:bb:cc:e0:b4:c6:78:e1:31:e2:00:2a:b5:74:
        93:aa:5e:b2:4e:e8:85:f1:06:87:e7:e4:0a:b2:b9:c2:cf:8e:
        68:36:6f:3c:ba:ab:4f:3e:a6:0b:a3:c2:aa:34:1d:9e:bb:a9:
        b8:b9:12:43:51:a6:df:3e:c2:86:04:f5:d7:cb:a1:c8:7a:47:
        b0:53:37:c2:de:91:ae:f2:b6:43:db:44:ee:6f:c1:98:9c:c1:
        ed:c7:2d:51:37:3a:d0:aa:a3:79:2c:36:04:8d:10:05:d7:51:
        3b:25:d7:64:07:63:73:9f:c2:3d:8e:70:29:07:be:e3:a7:5d:
        50:2b:20:8a
-----BEGIN CERTIFICATE-----
MIIEGDCCAwCgAwIBAgICEAEwDQYJKoZIhvcNAQELBQAwgYYxCzAJBgNVBAYTAlVT
MRAwDgYDVQQIDAdGbG9yaWRhMRAwDgYDVQQHDAdKdXBpdGVyMQ4wDAYDVQQKDAVa
ZXJvQzEMMAoGA1UECwwDSWNlMRUwEwYDVQQDDAxJY2UgVGVzdHMgQ0ExHjAcBgkq
hkiG9w0BCQEWD3Rlc3RzQHplcm9jLmNvbTAeFw0yNTA1MjIxNjU1MTlaFw0yNjA2
MjQxNjU1MTlaMIGIMRIwEAYDVQQDDAkxMjcuMC4wLjExCzAJBgNVBAYTAlVTMRAw
DgYDVQQIDAdGbG9yaWRhMRAwDgYDVQQHDAdKdXBpdGVyMRQwEgYDVQQKDAtaZXJv
QywgSW5jLjEMMAoGA1UECwwDSWNlMR0wGwYJKoZIhvcNAQkBFg5pbmZvQHplcm9j
LmNvbTCCASIwDQYJKoZIhvcNAQEBBQADggEPADCCAQoCggEBAK0A7l7ZL9rNX6gE
JdI0UgUXDCB4ms+EpeyDc1A9jr/7gbUBrxk/WEgs9/qGV8nX79ZiHMAQLoeDHtGZ
5Xasg82DHCmLlU1daN10WLD7hxNP0a1ce6dnYHpJoFfFpx9WGgBxgOGTb7h1jHdm
ILBKbfDeOSFJjF5czTBtOSPCCEd9cLPz4vB03YBUP0BF4HamXHbpGFZX7QgPcWjR
KtVz1u38BlHnswWcFRqstTOV0ZcYquijRoqDZLoafVwnQpaeSN54LKrW50ApRKqL
8Y4X9sOYLuDIAUCoFTOON8Pwcqo8uuWrDlaFZt47QUvt5NoA2mMVQvw3O6dlwp6t
ZpZBUP0CAwEAAaOBizCBiDAdBgNVHQ4EFgQUZp4PTVh39mLww6WQZJRlSnfcZI8w
HwYDVR0jBBgwFoAUgeG0p7GbmJ7wT7vkqaN6RE6k5acwDgYDVR0PAQH/BAQDAgXg
MB0GA1UdJQQWMBQGCCsGAQUFBwMBBggrBgEFBQcDAjAXBgNVHREEEDAOhwR/AAAB
ggZzZXJ2ZXIwDQYJKoZIhvcNAQELBQADggEBAGTTQWWeOuo9UIHjToEUZ1mWfFm/
ft0XKi1sJJ3/ekpPEpzdrGYCiITJWe5dZXF+b4gu3llpW8UPd/dfxHsUVT7c3FNm
9FNOPbIThauuXfQaGfKHl7gDOqpnnPeWkjEDjxxGjKcmBtJ/UBwZumoItLV9Qvkr
I5i8mtcNXShXSc9k4xh1u8zgtMZ44THiACq1dJOqXrJO6IXxBofn5AqyucLPjmg2
bzy6q08+pgujwqo0HZ67qbi5EkNRpt8+woYE9dfLoch6R7BTN8Leka7ytkPbRO5v
wZicwe3HLVE3OtCqo3ksNgSNEAXXUTsl12QHY3Ofwj2OcCkHvuOnXVArIIo=
-----END CERTIFICATE-----
