Certificate:
    Data:
        Version: 3 (0x2)
        Serial Number: 4097 (0x1001)
        Signature Algorithm: sha256WithRSAEncryption
        Issuer: C=US, ST=Florida, L=Jupiter, O=ZeroC, OU=Ice, CN=Ice Tests CA/emailAddress=tests@zeroc.com
        Validity
            Not Before: May 22 15:10:20 2025 GMT
            Not After : Jun 24 15:10:20 2026 GMT
        Subject: CN=127.0.0.1, ST=Florida, L=Jupiter, O=ZeroC, Inc., OU=Ice/emailAddress=info@zeroc.com
        Subject Public Key Info:
            Public Key Algorithm: rsaEncryption
                Public-Key: (2048 bit)
                Modulus:
                    00:9d:e0:0f:d4:0f:48:19:22:1d:47:ca:29:98:07:
                    a7:6c:93:d4:b4:a1:08:1a:84:0b:28:4f:8e:92:97:
                    f7:19:95:e8:15:88:2c:9a:6c:4f:3e:d1:51:1e:f4:
                    b4:03:16:42:77:f5:e6:c9:66:d9:3e:9a:b7:bc:97:
                    1b:45:9a:15:e3:81:c8:a9:30:04:93:95:5e:19:c2:
                    67:c5:80:ba:c8:a8:10:14:39:d8:34:17:e7:d8:1d:
                    b9:43:f8:3b:48:7e:f7:98:5c:11:cf:60:83:81:be:
                    5e:16:cc:15:90:e8:f4:7b:2a:9b:ac:bf:b5:6d:f8:
                    76:1b:f0:a7:51:9a:28:e4:d8:70:be:5f:8a:0a:31:
                    9e:bd:0e:14:51:3d:9b:4f:e1:77:b9:67:a9:fc:7e:
                    13:2f:be:8b:83:1d:26:dd:15:38:56:0a:cc:cb:63:
                    6d:72:69:fb:16:fb:65:a8:e8:00:39:00:a6:28:2e:
                    99:fd:e2:0f:6e:49:6b:0a:d5:4f:7c:e7:25:d3:1f:
                    49:e2:fe:df:3f:e3:60:f8:9b:5f:68:e3:8c:63:bc:
                    68:db:b7:04:6d:c9:03:10:b4:1f:9b:f9:37:3b:0d:
                    3f:d4:64:b7:ba:93:94:a5:f3:98:3f:0c:c5:58:99:
                    05:5f:eb:45:2f:e0:ed:d8:dd:6c:8a:63:d7:2f:21:
                    d8:93
                Exponent: 65537 (0x10001)
        X509v3 extensions:
            X509v3 Subject Key Identifier: 
                93:CA:C7:2E:D3:41:90:F8:48:6B:F6:E2:8D:17:A8:FE:F9:D8:0D:79
            X509v3 Authority Key Identifier: 
                51:0E:92:ED:12:F0:AE:37:08:2E:81:9C:5D:AE:19:D9:2F:D1:C0:82
            X509v3 Key Usage: critical
                Digital Signature, Non Repudiation, Key Encipherment
            X509v3 Extended Key Usage: 
                TLS Web Server Authentication
            X509v3 Subject Alternative Name: 
                IP Address:127.0.0.1, DNS:server
    Signature Algorithm: sha256WithRSAEncryption
    Signature Value:
        ad:d9:1d:d8:9e:f5:e2:de:30:7b:63:fb:5f:c7:42:9a:5c:5f:
        84:4c:62:d3:04:92:7e:df:c4:84:46:14:54:0c:1f:f8:90:97:
        19:5b:a2:d8:42:8f:7d:d2:14:14:e5:69:6d:e2:57:ba:b5:f8:
        4a:3a:b5:84:ba:e8:ea:5d:df:9b:6b:ea:78:4a:d3:6e:2e:c6:
        62:58:35:be:33:36:1a:5c:67:b3:3e:bd:f4:8a:93:a1:02:23:
        c2:41:7b:b3:3c:ff:ed:ce:8e:a7:00:e8:9c:6a:3b:85:9f:5b:
        c7:89:f8:9f:92:11:6a:c1:08:35:02:6e:63:d2:36:8c:b1:26:
        c1:77:32:75:54:80:ad:c1:be:35:f3:68:83:98:1b:a8:eb:54:
        98:bc:b6:c2:ac:28:db:81:d7:73:bf:d0:2f:c2:10:9a:51:9e:
        c2:74:ac:34:89:27:9a:e1:46:89:0f:b5:a4:07:ef:fd:31:72:
        c7:c8:02:e6:81:fa:4f:34:de:e7:c6:6d:22:30:f3:c3:f8:54:
        b1:e8:48:dd:94:39:27:04:f3:95:ed:3c:75:7e:cb:cd:16:15:
        64:56:92:61:ae:f7:c2:b2:7b:be:a8:ce:30:ad:0b:6a:e2:18:
        69:df:07:c9:ad:4e:b0:56:df:9a:83:93:92:72:ac:8d:7b:86:
        52:bd:9c:83
-----BEGIN CERTIFICATE-----
MIID/zCCAuegAwIBAgICEAEwDQYJKoZIhvcNAQELBQAwgYYxCzAJBgNVBAYTAlVT
MRAwDgYDVQQIDAdGbG9yaWRhMRAwDgYDVQQHDAdKdXBpdGVyMQ4wDAYDVQQKDAVa
ZXJvQzEMMAoGA1UECwwDSWNlMRUwEwYDVQQDDAxJY2UgVGVzdHMgQ0ExHjAcBgkq
hkiG9w0BCQEWD3Rlc3RzQHplcm9jLmNvbTAeFw0yNTA1MjIxNTEwMjBaFw0yNjA2
MjQxNTEwMjBaMHsxEjAQBgNVBAMMCTEyNy4wLjAuMTEQMA4GA1UECAwHRmxvcmlk
YTEQMA4GA1UEBwwHSnVwaXRlcjEUMBIGA1UECgwLWmVyb0MsIEluYy4xDDAKBgNV
BAsMA0ljZTEdMBsGCSqGSIb3DQEJARYOaW5mb0B6ZXJvYy5jb20wggEiMA0GCSqG
SIb3DQEBAQUAA4IBDwAwggEKAoIBAQCd4A/UD0gZIh1HyimYB6dsk9S0oQgahAso
T46Sl/cZlegViCyabE8+0VEe9LQDFkJ39ebJZtk+mre8lxtFmhXjgcipMASTlV4Z
wmfFgLrIqBAUOdg0F+fYHblD+DtIfveYXBHPYIOBvl4WzBWQ6PR7Kpusv7Vt+HYb
8KdRmijk2HC+X4oKMZ69DhRRPZtP4Xe5Z6n8fhMvvouDHSbdFThWCszLY21yafsW
+2Wo6AA5AKYoLpn94g9uSWsK1U985yXTH0ni/t8/42D4m19o44xjvGjbtwRtyQMQ
tB+b+Tc7DT/UZLe6k5Sl85g/DMVYmQVf60Uv4O3Y3WyKY9cvIdiTAgMBAAGjgYAw
fjAdBgNVHQ4EFgQUk8rHLtNBkPhIa/bijReo/vnYDXkwHwYDVR0jBBgwFoAUUQ6S
7RLwrjcILoGcXa4Z2S/RwIIwDgYDVR0PAQH/BAQDAgXgMBMGA1UdJQQMMAoGCCsG
AQUFBwMBMBcGA1UdEQQQMA6HBH8AAAGCBnNlcnZlcjANBgkqhkiG9w0BAQsFAAOC
AQEArdkd2J714t4we2P7X8dCmlxfhExi0wSSft/EhEYUVAwf+JCXGVui2EKPfdIU
FOVpbeJXurX4Sjq1hLro6l3fm2vqeErTbi7GYlg1vjM2Glxnsz699IqToQIjwkF7
szz/7c6OpwDonGo7hZ9bx4n4n5IRasEINQJuY9I2jLEmwXcydVSArcG+NfNog5gb
qOtUmLy2wqwo24HXc7/QL8IQmlGewnSsNIknmuFGiQ+1pAfv/TFyx8gC5oH6TzTe
58ZtIjDzw/hUsehI3ZQ5JwTzle08dX7LzRYVZFaSYa73wrJ7vqjOMK0LauIYad8H
ya1OsFbfmoOTknKsjXuGUr2cgw==
-----END CERTIFICATE-----
