Certificate:
    Data:
        Version: 3 (0x2)
        Serial Number: 4096 (0x1000)
        Signature Algorithm: sha256WithRSAEncryption
        Issuer: C=US, ST=Florida, L=Jupiter, O=ZeroC, OU=Ice, CN=ZeroC Test CA 3/emailAddress=tests@zeroc.com
        Validity
            Not Before: May 22 16:55:08 2025 GMT
            Not After : Jun 24 16:55:08 2026 GMT
        Subject: CN=ZeroC Test Intermediate 1 CA, C=US, ST=Florida, L=Jupiter, O=ZeroC, OU=Ice Test Infrastructure/emailAddress=tests@zeroc.com
        Subject Public Key Info:
            Public Key Algorithm: rsaEncryption
                Public-Key: (2048 bit)
                Modulus:
                    00:bf:e7:28:64:97:de:6e:91:35:2d:b9:b9:c2:f8:
                    cd:6b:09:16:27:e7:d1:3d:4c:89:76:ee:18:55:58:
                    e9:5a:37:00:39:0c:3c:3f:29:4c:aa:64:09:5c:2c:
                    75:b3:29:d8:d4:44:87:c7:ea:e1:be:d1:3e:c7:99:
                    38:4f:e1:83:1d:e6:6c:e0:b0:d7:17:f4:c4:24:28:
                    cc:ba:e6:c9:f4:8e:71:73:c4:2e:3b:47:53:d3:8c:
                    f0:86:d2:6a:f1:80:cb:a4:8b:ed:3f:a2:f7:2e:8a:
                    e8:f0:57:dd:e9:c1:51:0c:9e:de:15:84:1f:35:05:
                    0c:97:f1:7d:10:2b:2e:db:43:ae:2c:07:61:6a:20:
                    93:12:3d:c3:a7:10:ae:74:f2:f9:f8:52:aa:0a:e8:
                    30:24:e4:ba:e0:05:43:d8:74:9e:52:58:83:51:92:
                    8c:58:70:b6:83:a8:61:e3:44:1b:f1:87:c9:e9:f6:
                    16:f9:a9:a4:8e:c5:18:d6:a2:e4:41:9c:34:0e:a8:
                    9f:fb:c3:19:ec:3e:8e:27:5c:77:17:79:61:03:9b:
                    41:12:4b:0d:b6:10:b5:f9:d7:8a:13:b0:c7:1a:5e:
                    de:51:ff:5f:5b:38:f0:4b:41:c7:ba:41:bd:f6:0d:
                    37:0c:2d:25:a1:30:f2:24:ec:80:1b:c6:47:96:28:
                    20:41
                Exponent: 65537 (0x10001)
        X509v3 extensions:
            X509v3 Subject Key Identifier: 
                E5:CB:A9:A1:32:7D:4B:DF:F9:31:5A:0E:9A:15:1B:8E:52:53:B4:4A
            X509v3 Authority Key Identifier: 
                F1:11:72:C4:CA:C9:28:78:2F:64:89:F8:61:1F:7F:0D:2A:DD:78:B8
            X509v3 Basic Constraints: critical
                CA:TRUE
            X509v3 Key Usage: critical
                Digital Signature, Certificate Sign, CRL Sign
    Signature Algorithm: sha256WithRSAEncryption
    Signature Value:
        3e:c5:20:4b:6e:f4:e1:69:4b:83:60:1b:b5:d9:30:df:fa:b5:
        b0:7e:54:af:45:68:d4:f9:65:b3:ad:10:3b:34:bd:cc:dc:64:
        c7:ec:7a:2c:11:53:bc:83:8b:64:c0:26:52:d8:26:91:35:44:
        c4:a0:43:ca:18:b6:72:e6:22:f3:21:7d:48:ba:a5:f9:25:71:
        6b:78:90:d6:1b:67:ab:78:e9:4a:4b:8e:76:f5:eb:02:a9:3d:
        d4:a4:21:60:b9:19:ae:d0:95:fe:e3:ae:90:8f:b4:ba:0a:df:
        0c:ce:29:49:92:bc:1a:57:ef:32:1f:a8:8d:f2:26:30:5e:2e:
        92:25:ec:81:27:d6:f0:3a:9e:bd:4e:a4:e6:6e:6b:de:a1:d9:
        8d:98:1e:c4:5f:5e:6b:0b:23:99:4a:96:9f:79:e4:5d:91:c5:
        92:74:d6:b8:bd:8f:05:b1:e2:ca:bd:92:53:c8:db:c2:8a:0c:
        56:ab:a6:d4:02:b3:69:ca:42:28:41:9d:72:d8:7b:f8:44:3a:
        f3:c8:bf:f3:c8:f9:90:d2:f5:c5:ab:03:f5:d3:ae:f2:7b:9e:
        8c:b2:96:79:36:18:44:60:b4:c1:49:f4:7b:00:9a:c3:d7:c0:
        17:16:e4:7b:50:97:16:fd:1c:aa:44:30:1a:b8:8f:f9:95:9e:
        f9:9c:f1:e8
-----BEGIN CERTIFICATE-----
MIIEFDCCAvygAwIBAgICEAAwDQYJKoZIhvcNAQELBQAwgYkxCzAJBgNVBAYTAlVT
MRAwDgYDVQQIDAdGbG9yaWRhMRAwDgYDVQQHDAdKdXBpdGVyMQ4wDAYDVQQKDAVa
ZXJvQzEMMAoGA1UECwwDSWNlMRgwFgYDVQQDDA9aZXJvQyBUZXN0IENBIDMxHjAc
BgkqhkiG9w0BCQEWD3Rlc3RzQHplcm9jLmNvbTAeFw0yNTA1MjIxNjU1MDhaFw0y
NjA2MjQxNjU1MDhaMIGqMSUwIwYDVQQDDBxaZXJvQyBUZXN0IEludGVybWVkaWF0
ZSAxIENBMQswCQYDVQQGEwJVUzEQMA4GA1UECAwHRmxvcmlkYTEQMA4GA1UEBwwH
SnVwaXRlcjEOMAwGA1UECgwFWmVyb0MxIDAeBgNVBAsMF0ljZSBUZXN0IEluZnJh
c3RydWN0dXJlMR4wHAYJKoZIhvcNAQkBFg90ZXN0c0B6ZXJvYy5jb20wggEiMA0G
CSqGSIb3DQEBAQUAA4IBDwAwggEKAoIBAQC/5yhkl95ukTUtubnC+M1rCRYn59E9
TIl27hhVWOlaNwA5DDw/KUyqZAlcLHWzKdjURIfH6uG+0T7HmThP4YMd5mzgsNcX
9MQkKMy65sn0jnFzxC47R1PTjPCG0mrxgMuki+0/ovcuiujwV93pwVEMnt4VhB81
BQyX8X0QKy7bQ64sB2FqIJMSPcOnEK508vn4UqoK6DAk5LrgBUPYdJ5SWINRkoxY
cLaDqGHjRBvxh8np9hb5qaSOxRjWouRBnDQOqJ/7wxnsPo4nXHcXeWEDm0ESSw22
ELX514oTsMcaXt5R/19bOPBLQce6Qb32DTcMLSWhMPIk7IAbxkeWKCBBAgMBAAGj
YzBhMB0GA1UdDgQWBBTly6mhMn1L3/kxWg6aFRuOUlO0SjAfBgNVHSMEGDAWgBTx
EXLEyskoeC9kifhhH38NKt14uDAPBgNVHRMBAf8EBTADAQH/MA4GA1UdDwEB/wQE
AwIBhjANBgkqhkiG9w0BAQsFAAOCAQEAPsUgS2704WlLg2Abtdkw3/q1sH5Ur0Vo
1Plls60QOzS9zNxkx+x6LBFTvIOLZMAmUtgmkTVExKBDyhi2cuYi8yF9SLql+SVx
a3iQ1htnq3jpSkuOdvXrAqk91KQhYLkZrtCV/uOukI+0ugrfDM4pSZK8GlfvMh+o
jfImMF4ukiXsgSfW8DqevU6k5m5r3qHZjZgexF9eawsjmUqWn3nkXZHFknTWuL2P
BbHiyr2SU8jbwooMVqum1AKzacpCKEGdcth7+EQ688i/88j5kNL1xasD9dOu8nue
jLKWeTYYRGC0wUn0ewCaw9fAFxbke1CXFv0cqkQwGriP+ZWe+Zzx6A==
-----END CERTIFICATE-----
