Certificate:
    Data:
        Version: 3 (0x2)
        Serial Number: 4097 (0x1001)
        Signature Algorithm: sha256WithRSAEncryption
        Issuer: C=US, ST=Florida, L=Jupiter, O=ZeroC, OU=Ice, CN=ZeroC Test CA 3/emailAddress=tests@zeroc.com
        Validity
            Not Before: May 22 16:55:16 2025 GMT
            Not After : Jun 24 16:55:16 2026 GMT
        Subject: CN=Server Revoked, C=US, ST=Florida, L=Jupiter, O=ZeroC, Inc., OU=Ice/emailAddress=info@zeroc.com
        Subject Public Key Info:
            Public Key Algorithm: rsaEncryption
                Public-Key: (2048 bit)
                Modulus:
                    00:ca:8c:56:0c:68:0b:ae:38:ad:0b:cc:e6:98:a4:
                    0b:8b:26:37:60:d3:e0:6c:c8:c5:c8:33:b6:b1:ea:
                    04:e2:53:16:61:67:e2:24:11:d9:da:0f:60:eb:b3:
                    e1:fa:8a:a4:00:3e:25:17:91:b6:3a:c6:42:71:d8:
                    37:c0:4d:f8:9e:b2:62:fe:ec:48:14:35:14:d0:58:
                    da:f7:39:69:c8:c0:79:6e:5e:00:0f:78:77:16:21:
                    71:12:d0:04:a3:83:92:2b:61:a1:6d:61:f1:ac:02:
                    3c:d8:20:02:fb:34:ca:78:68:f0:e0:23:c7:f8:df:
                    50:f6:1b:81:a7:81:5f:fa:cb:58:27:9b:fd:0c:c3:
                    17:0e:00:08:e7:1c:3b:2a:ec:dd:67:fb:1d:7d:57:
                    ce:df:f8:8e:fc:f0:e5:51:06:5f:44:74:89:da:64:
                    41:45:f7:a3:f6:81:45:cc:39:fc:8e:e2:f1:0e:0c:
                    ef:88:5a:7e:1f:f6:9e:cb:42:15:fb:83:31:a9:2a:
                    89:75:56:f0:d3:0d:1d:44:88:83:e3:29:17:1f:7a:
                    15:3e:94:6b:72:64:87:53:25:bb:8c:07:43:9a:1c:
                    4e:ca:b3:61:5d:64:74:05:98:aa:09:13:86:a5:4a:
                    16:0c:ef:40:17:76:e9:6c:8c:e2:a2:09:15:37:37:
                    f6:19
                Exponent: 65537 (0x10001)
        X509v3 extensions:
            X509v3 Subject Key Identifier: 
                CC:F5:9E:5B:21:E4:70:AE:24:BF:E5:E5:21:71:58:31:8F:D7:0F:22
            X509v3 Authority Key Identifier: 
                F1:11:72:C4:CA:C9:28:78:2F:64:89:F8:61:1F:7F:0D:2A:DD:78:B8
            X509v3 Key Usage: critical
                Digital Signature, Non Repudiation, Key Encipherment
            X509v3 Extended Key Usage: 
                TLS Web Server Authentication
            X509v3 Subject Alternative Name: 
                IP Address:127.0.0.1, DNS:server
            X509v3 CRL Distribution Points: 
                Full Name:
                  URI:http://127.0.0.1:20001/ca3/ca3.crl.pem
    Signature Algorithm: sha256WithRSAEncryption
    Signature Value:
        41:75:5e:b9:f5:02:24:8c:51:08:a5:94:b3:ab:e3:0b:3b:42:
        b4:a0:6b:69:bc:aa:9c:8d:25:9e:bd:a5:b2:b9:0c:7e:18:4f:
        a9:21:bf:22:03:fa:0f:67:2c:80:92:1e:b6:e7:e8:a9:f3:11:
        48:84:f8:8d:be:e2:ce:fb:c0:c7:8e:b3:fa:0d:12:1b:f2:3b:
        24:eb:78:c6:fb:64:bb:24:30:91:fd:a8:a4:82:97:52:2f:06:
        36:3f:e6:e6:d8:33:36:ed:c6:aa:e0:56:13:8a:ce:dd:be:a0:
        a5:63:90:44:c0:08:a1:75:dc:31:8e:7e:9c:b9:c8:b6:ac:e2:
        9a:db:e8:21:22:07:e6:4f:1a:63:49:ed:11:de:cf:26:dc:f7:
        69:98:5f:0c:ee:e5:4f:bf:31:a9:6f:38:27:4b:37:a3:1d:76:
        72:08:76:80:c1:c9:06:6f:eb:d6:78:83:9e:cc:0d:9b:d8:9f:
        d3:fe:4f:a3:fb:3f:7c:62:53:0e:1b:fe:89:f0:23:1d:9d:ed:
        59:22:14:d2:10:cd:31:83:94:62:66:49:65:96:23:75:ac:83:
        ad:64:2b:8f:fb:6a:cb:cb:c0:9b:f8:d9:f0:ae:d5:14:ed:4a:
        ac:c0:5b:b3:1a:25:40:b1:2c:9e:d1:35:90:88:e1:bf:49:2e:
        b9:9f:ed:84
-----BEGIN CERTIFICATE-----
MIIETzCCAzegAwIBAgICEAEwDQYJKoZIhvcNAQELBQAwgYkxCzAJBgNVBAYTAlVT
MRAwDgYDVQQIDAdGbG9yaWRhMRAwDgYDVQQHDAdKdXBpdGVyMQ4wDAYDVQQKDAVa
ZXJvQzEMMAoGA1UECwwDSWNlMRgwFgYDVQQDDA9aZXJvQyBUZXN0IENBIDMxHjAc
BgkqhkiG9w0BCQEWD3Rlc3RzQHplcm9jLmNvbTAeFw0yNTA1MjIxNjU1MTZaFw0y
NjA2MjQxNjU1MTZaMIGNMRcwFQYDVQQDDA5TZXJ2ZXIgUmV2b2tlZDELMAkGA1UE
BhMCVVMxEDAOBgNVBAgMB0Zsb3JpZGExEDAOBgNVBAcMB0p1cGl0ZXIxFDASBgNV
BAoMC1plcm9DLCBJbmMuMQwwCgYDVQQLDANJY2UxHTAbBgkqhkiG9w0BCQEWDmlu
Zm9AemVyb2MuY29tMIIBIjANBgkqhkiG9w0BAQEFAAOCAQ8AMIIBCgKCAQEAyoxW
DGgLrjitC8zmmKQLiyY3YNPgbMjFyDO2seoE4lMWYWfiJBHZ2g9g67Ph+oqkAD4l
F5G2OsZCcdg3wE34nrJi/uxIFDUU0Fja9zlpyMB5bl4AD3h3FiFxEtAEo4OSK2Gh
bWHxrAI82CAC+zTKeGjw4CPH+N9Q9huBp4Ff+stYJ5v9DMMXDgAI5xw7KuzdZ/sd
fVfO3/iO/PDlUQZfRHSJ2mRBRfej9oFFzDn8juLxDgzviFp+H/aey0IV+4MxqSqJ
dVbw0w0dRIiD4ykXH3oVPpRrcmSHUyW7jAdDmhxOyrNhXWR0BZiqCROGpUoWDO9A
F3bpbIziogkVNzf2GQIDAQABo4G6MIG3MB0GA1UdDgQWBBTM9Z5bIeRwriS/5eUh
cVgxj9cPIjAfBgNVHSMEGDAWgBTxEXLEyskoeC9kifhhH38NKt14uDAOBgNVHQ8B
Af8EBAMCBeAwEwYDVR0lBAwwCgYIKwYBBQUHAwEwFwYDVR0RBBAwDocEfwAAAYIG
c2VydmVyMDcGA1UdHwQwMC4wLKAqoCiGJmh0dHA6Ly8xMjcuMC4wLjE6MjAwMDEv
Y2EzL2NhMy5jcmwucGVtMA0GCSqGSIb3DQEBCwUAA4IBAQBBdV659QIkjFEIpZSz
q+MLO0K0oGtpvKqcjSWevaWyuQx+GE+pIb8iA/oPZyyAkh625+ip8xFIhPiNvuLO
+8DHjrP6DRIb8jsk63jG+2S7JDCR/aikgpdSLwY2P+bm2DM27caq4FYTis7dvqCl
Y5BEwAihddwxjn6cuci2rOKa2+ghIgfmTxpjSe0R3s8m3PdpmF8M7uVPvzGpbzgn
SzejHXZyCHaAwckGb+vWeIOezA2b2J/T/k+j+z98YlMOG/6J8CMdne1ZIhTSEM0x
g5RiZkllliN1rIOtZCuP+2rLy8Cb+NnwrtUU7UqswFuzGiVAsSye0TWQiOG/SS65
n+2E
-----END CERTIFICATE-----
