Certificate:
    Data:
        Version: 3 (0x2)
        Serial Number: 4097 (0x1001)
        Signature Algorithm: sha256WithRSAEncryption
        Issuer: C=US, ST=Florida, L=Jupiter, O=ZeroC, OU=Ice, CN=ZeroC Test CA 3/emailAddress=tests@zeroc.com
        Validity
            Not Before: May 22 16:16:12 2025 GMT
            Not After : Jun 24 16:16:12 2026 GMT
        Subject: CN=Server Revoked, C=US, ST=Florida, L=Jupiter, O=ZeroC, Inc., OU=Ice/emailAddress=info@zeroc.com
        Subject Public Key Info:
            Public Key Algorithm: rsaEncryption
                Public-Key: (2048 bit)
                Modulus:
                    00:a4:73:40:1b:1b:27:88:69:45:b4:b8:d2:e5:bf:
                    04:76:c8:c6:74:c0:8b:0b:78:42:6c:a5:8e:3d:87:
                    bf:15:45:ff:76:67:3b:5f:6f:8c:3e:e4:e2:7b:44:
                    6f:a0:43:9f:2e:b8:6c:35:45:8d:ab:46:3d:db:27:
                    f4:3d:0f:55:e9:ef:ea:d1:e5:6a:31:9d:a3:93:79:
                    ac:f4:93:cd:98:4e:86:a2:50:e8:dc:f2:9a:fa:96:
                    a4:85:25:ca:ac:0e:c2:ab:ff:26:45:52:1c:fe:ef:
                    44:58:a6:a1:b4:b7:70:b2:51:d7:af:7d:30:4d:aa:
                    b7:bb:1a:46:63:58:a0:dd:e3:6a:8c:b0:50:85:96:
                    1d:53:22:a4:d4:03:2c:fa:b9:c1:6d:3d:2e:a8:d9:
                    49:83:ea:2f:62:24:af:b3:6b:c1:e9:35:57:1a:c2:
                    db:c3:84:8c:e6:f4:15:ca:a8:19:40:3f:55:92:c2:
                    20:93:cd:bf:43:50:2c:49:6c:f3:01:d5:82:cb:15:
                    5c:f7:0b:02:5d:51:72:60:11:b6:5e:60:f1:8a:db:
                    f1:9e:8b:7f:75:3f:b4:4c:8e:9f:a6:50:b6:a7:62:
                    6b:72:59:1c:8f:79:86:86:2e:0e:90:b9:dd:17:d6:
                    bb:66:58:70:86:07:1c:5e:c1:1e:c5:4b:5b:5c:d2:
                    2b:b3
                Exponent: 65537 (0x10001)
        X509v3 extensions:
            X509v3 Subject Key Identifier: 
                CC:A9:0B:C5:CE:BC:FB:54:02:B4:68:E3:FC:8B:80:2D:97:9C:B5:96
            X509v3 Authority Key Identifier: 
                92:C6:6A:E4:A8:82:98:B7:79:EC:BE:04:70:70:B1:E9:33:AB:07:2E
            X509v3 Key Usage: critical
                Digital Signature, Non Repudiation, Key Encipherment
            X509v3 Extended Key Usage: 
                TLS Web Server Authentication
            X509v3 Subject Alternative Name: 
                IP Address:127.0.0.1, DNS:server
            X509v3 CRL Distribution Points: 
                Full Name:
                  URI:http://127.0.0.1:20001/ca3/ca3.crl.pem
    Signature Algorithm: sha256WithRSAEncryption
    Signature Value:
        6d:a9:1a:ea:4c:c2:b9:96:20:df:1e:d7:f5:d1:73:3e:92:b2:
        84:79:12:e2:9f:83:8b:0c:9f:82:ad:de:ed:07:6c:ce:a7:58:
        88:08:1a:35:02:7b:5e:8a:1a:c6:03:d8:c7:db:46:c3:85:d4:
        c2:48:b7:0f:74:f6:62:96:53:41:9f:ec:42:40:f7:8f:24:d3:
        5e:7c:07:36:c4:1a:99:df:4c:a3:f2:de:34:b9:f8:99:00:af:
        ee:7d:e6:6d:2f:e7:72:80:89:8e:59:3d:41:52:1f:c3:76:4b:
        69:ce:03:67:38:8b:a3:98:74:21:ab:4e:4d:57:b1:e0:78:5a:
        f5:8a:dc:ff:48:86:fc:d4:8e:6f:0e:4d:77:b5:6c:f0:c2:0b:
        73:87:fc:6c:04:5d:c3:d0:a1:b4:01:7d:ba:cf:eb:04:ad:4b:
        cb:3e:ad:66:bd:d2:e4:ab:00:83:ad:7e:b7:bd:e5:62:de:c1:
        46:c3:88:39:85:6f:c5:d2:47:83:f6:94:9e:65:e2:bb:24:52:
        3e:b6:d0:d8:9e:48:f3:25:fe:f8:9d:05:d5:83:90:04:26:f0:
        b6:60:46:db:e9:3f:d7:eb:dc:50:53:6b:c3:eb:ac:66:43:cf:
        51:52:ec:82:c7:e2:8c:dc:f4:d4:56:22:13:e3:90:c2:6d:ac:
        b8:f5:e2:ef
-----BEGIN CERTIFICATE-----
MIIETzCCAzegAwIBAgICEAEwDQYJKoZIhvcNAQELBQAwgYkxCzAJBgNVBAYTAlVT
MRAwDgYDVQQIDAdGbG9yaWRhMRAwDgYDVQQHDAdKdXBpdGVyMQ4wDAYDVQQKDAVa
ZXJvQzEMMAoGA1UECwwDSWNlMRgwFgYDVQQDDA9aZXJvQyBUZXN0IENBIDMxHjAc
BgkqhkiG9w0BCQEWD3Rlc3RzQHplcm9jLmNvbTAeFw0yNTA1MjIxNjE2MTJaFw0y
NjA2MjQxNjE2MTJaMIGNMRcwFQYDVQQDDA5TZXJ2ZXIgUmV2b2tlZDELMAkGA1UE
BhMCVVMxEDAOBgNVBAgMB0Zsb3JpZGExEDAOBgNVBAcMB0p1cGl0ZXIxFDASBgNV
BAoMC1plcm9DLCBJbmMuMQwwCgYDVQQLDANJY2UxHTAbBgkqhkiG9w0BCQEWDmlu
Zm9AemVyb2MuY29tMIIBIjANBgkqhkiG9w0BAQEFAAOCAQ8AMIIBCgKCAQEApHNA
GxsniGlFtLjS5b8EdsjGdMCLC3hCbKWOPYe/FUX/dmc7X2+MPuTie0RvoEOfLrhs
NUWNq0Y92yf0PQ9V6e/q0eVqMZ2jk3ms9JPNmE6GolDo3PKa+pakhSXKrA7Cq/8m
RVIc/u9EWKahtLdwslHXr30wTaq3uxpGY1ig3eNqjLBQhZYdUyKk1AMs+rnBbT0u
qNlJg+ovYiSvs2vB6TVXGsLbw4SM5vQVyqgZQD9VksIgk82/Q1AsSWzzAdWCyxVc
9wsCXVFyYBG2XmDxitvxnot/dT+0TI6fplC2p2Jrclkcj3mGhi4OkLndF9a7Zlhw
hgccXsEexUtbXNIrswIDAQABo4G6MIG3MB0GA1UdDgQWBBTMqQvFzrz7VAK0aOP8
i4Atl5y1ljAfBgNVHSMEGDAWgBSSxmrkqIKYt3nsvgRwcLHpM6sHLjAOBgNVHQ8B
Af8EBAMCBeAwEwYDVR0lBAwwCgYIKwYBBQUHAwEwFwYDVR0RBBAwDocEfwAAAYIG
c2VydmVyMDcGA1UdHwQwMC4wLKAqoCiGJmh0dHA6Ly8xMjcuMC4wLjE6MjAwMDEv
Y2EzL2NhMy5jcmwucGVtMA0GCSqGSIb3DQEBCwUAA4IBAQBtqRrqTMK5liDfHtf1
0XM+krKEeRLin4OLDJ+Crd7tB2zOp1iICBo1AnteihrGA9jH20bDhdTCSLcPdPZi
llNBn+xCQPePJNNefAc2xBqZ30yj8t40ufiZAK/ufeZtL+dygImOWT1BUh/Ddktp
zgNnOIujmHQhq05NV7HgeFr1itz/SIb81I5vDk13tWzwwgtzh/xsBF3D0KG0AX26
z+sErUvLPq1mvdLkqwCDrX63veVi3sFGw4g5hW/F0keD9pSeZeK7JFI+ttDYnkjz
Jf74nQXVg5AEJvC2YEbb6T/X69xQU2vD66xmQ89RUuyCx+KM3PTUViIT45DCbay4
9eLv
-----END CERTIFICATE-----
