Certificate:
    Data:
        Version: 3 (0x2)
        Serial Number: 4098 (0x1002)
        Signature Algorithm: sha256WithRSAEncryption
        Issuer: C=US, ST=Florida, L=Jupiter, O=ZeroC, OU=Ice, CN=ZeroC Test CA 3/emailAddress=tests@zeroc.com
        Validity
            Not Before: May 22 16:16:13 2025 GMT
            Not After : Jun 24 16:16:13 2026 GMT
        Subject: CN=Server, C=US, ST=Florida, L=Jupiter, O=ZeroC, Inc., OU=Ice/emailAddress=info@zeroc.com
        Subject Public Key Info:
            Public Key Algorithm: rsaEncryption
                Public-Key: (2048 bit)
                Modulus:
                    00:c1:72:02:cd:7a:45:9e:27:a4:4e:b0:a3:22:bf:
                    e8:06:84:62:37:5f:a3:e5:62:50:14:4e:2b:b1:27:
                    d8:5f:8b:39:46:1c:1e:3a:00:02:ff:35:19:c9:a7:
                    d4:16:ed:97:ef:e3:f9:7c:90:ed:44:a3:59:36:9b:
                    2c:00:17:15:40:af:07:df:fa:98:d9:33:f0:b5:e9:
                    ef:f8:5e:59:39:4d:b0:fe:16:5b:70:95:9f:63:4c:
                    c1:2f:8c:3b:3f:44:c6:b5:29:17:70:f3:93:c0:21:
                    c8:6f:0f:68:bb:b1:51:a2:7c:c3:d1:ca:29:14:78:
                    0e:7a:d0:50:50:ec:7b:8c:47:bf:c3:ae:d4:60:5c:
                    d1:2c:bb:9d:50:06:82:a1:e4:2b:d9:b5:4c:83:e0:
                    c2:47:8e:9c:c8:e2:6a:ea:51:1b:25:76:af:ec:7f:
                    9b:66:93:82:cd:55:2b:b3:bf:43:66:43:41:5e:71:
                    3b:60:3a:92:dc:e2:55:d8:97:0f:cf:d7:31:b5:a3:
                    b9:dc:5c:98:61:40:20:24:ce:07:57:09:e8:51:7a:
                    5b:e5:9f:97:0e:49:fe:fc:62:5c:f2:3b:b5:bd:de:
                    fc:a1:65:66:57:86:e2:3c:cb:fa:c8:8d:ad:3a:ef:
                    2d:ea:d1:05:02:53:95:2c:cc:97:6d:dc:68:34:25:
                    25:2f
                Exponent: 65537 (0x10001)
        X509v3 extensions:
            X509v3 Subject Key Identifier: 
                70:CB:8D:38:58:FC:3C:67:86:1B:65:3F:BC:F3:33:C8:E4:29:F9:43
            X509v3 Authority Key Identifier: 
                92:C6:6A:E4:A8:82:98:B7:79:EC:BE:04:70:70:B1:E9:33:AB:07:2E
            X509v3 Key Usage: critical
                Digital Signature, Non Repudiation, Key Encipherment
            X509v3 Extended Key Usage: 
                TLS Web Server Authentication
            X509v3 Subject Alternative Name: 
                IP Address:127.0.0.1, DNS:server
            X509v3 CRL Distribution Points: 
                Full Name:
                  URI:http://127.0.0.1:20001/ca3/ca3.crl.pem
    Signature Algorithm: sha256WithRSAEncryption
    Signature Value:
        2b:e2:ba:b4:ca:dc:df:26:ae:bd:09:b5:38:2e:5b:42:c6:7d:
        16:09:95:0b:85:5e:b9:62:c2:53:3b:65:0c:c2:b5:8c:01:e2:
        88:db:0e:1e:ef:5c:ac:f9:a4:a6:ba:23:6b:ba:29:98:30:03:
        69:a9:29:01:e4:c1:07:79:ab:07:92:60:6a:90:b8:5f:0f:6d:
        d1:0a:97:6f:a0:2c:d0:22:82:0d:c6:3c:aa:b9:14:a6:88:8b:
        3c:f8:76:ff:b8:f1:31:76:43:ca:ef:5c:59:80:b4:50:ad:84:
        1d:f7:d3:f4:32:a7:2e:d5:4d:9f:fd:4d:a4:0e:f7:73:46:99:
        56:c2:95:5c:da:56:d2:d5:1c:4b:d8:07:16:c8:d8:b2:0c:b8:
        64:8e:a3:da:dc:5e:85:cb:b0:82:e2:93:12:8b:b6:3b:6c:1c:
        05:97:d9:de:26:e6:b7:22:3f:01:58:7f:bc:3d:c5:8e:ac:50:
        a7:b1:17:d1:8b:73:07:28:0b:a6:b7:bd:5a:b1:96:c7:65:ac:
        42:b8:c1:cd:c4:47:3a:76:5c:ff:32:04:c6:d4:de:fc:df:37:
        f8:1e:07:e0:d3:43:57:2e:0c:7f:f9:26:b2:47:78:b8:9f:af:
        70:3e:09:05:5e:22:49:8c:56:a4:a0:00:5b:c2:e0:37:57:e9:
        da:e7:ba:bb
-----BEGIN CERTIFICATE-----
MIIERzCCAy+gAwIBAgICEAIwDQYJKoZIhvcNAQELBQAwgYkxCzAJBgNVBAYTAlVT
MRAwDgYDVQQIDAdGbG9yaWRhMRAwDgYDVQQHDAdKdXBpdGVyMQ4wDAYDVQQKDAVa
ZXJvQzEMMAoGA1UECwwDSWNlMRgwFgYDVQQDDA9aZXJvQyBUZXN0IENBIDMxHjAc
BgkqhkiG9w0BCQEWD3Rlc3RzQHplcm9jLmNvbTAeFw0yNTA1MjIxNjE2MTNaFw0y
NjA2MjQxNjE2MTNaMIGFMQ8wDQYDVQQDDAZTZXJ2ZXIxCzAJBgNVBAYTAlVTMRAw
DgYDVQQIDAdGbG9yaWRhMRAwDgYDVQQHDAdKdXBpdGVyMRQwEgYDVQQKDAtaZXJv
QywgSW5jLjEMMAoGA1UECwwDSWNlMR0wGwYJKoZIhvcNAQkBFg5pbmZvQHplcm9j
LmNvbTCCASIwDQYJKoZIhvcNAQEBBQADggEPADCCAQoCggEBAMFyAs16RZ4npE6w
oyK/6AaEYjdfo+ViUBROK7En2F+LOUYcHjoAAv81Gcmn1Bbtl+/j+XyQ7USjWTab
LAAXFUCvB9/6mNkz8LXp7/heWTlNsP4WW3CVn2NMwS+MOz9ExrUpF3Dzk8AhyG8P
aLuxUaJ8w9HKKRR4DnrQUFDse4xHv8Ou1GBc0Sy7nVAGgqHkK9m1TIPgwkeOnMji
aupRGyV2r+x/m2aTgs1VK7O/Q2ZDQV5xO2A6ktziVdiXD8/XMbWjudxcmGFAICTO
B1cJ6FF6W+Wflw5J/vxiXPI7tb3e/KFlZleG4jzL+siNrTrvLerRBQJTlSzMl23c
aDQlJS8CAwEAAaOBujCBtzAdBgNVHQ4EFgQUcMuNOFj8PGeGG2U/vPMzyOQp+UMw
HwYDVR0jBBgwFoAUksZq5KiCmLd57L4EcHCx6TOrBy4wDgYDVR0PAQH/BAQDAgXg
MBMGA1UdJQQMMAoGCCsGAQUFBwMBMBcGA1UdEQQQMA6HBH8AAAGCBnNlcnZlcjA3
BgNVHR8EMDAuMCygKqAohiZodHRwOi8vMTI3LjAuMC4xOjIwMDAxL2NhMy9jYTMu
Y3JsLnBlbTANBgkqhkiG9w0BAQsFAAOCAQEAK+K6tMrc3yauvQm1OC5bQsZ9FgmV
C4VeuWLCUztlDMK1jAHiiNsOHu9crPmkproja7opmDADaakpAeTBB3mrB5JgapC4
Xw9t0QqXb6As0CKCDcY8qrkUpoiLPPh2/7jxMXZDyu9cWYC0UK2EHffT9DKnLtVN
n/1NpA73c0aZVsKVXNpW0tUcS9gHFsjYsgy4ZI6j2txehcuwguKTEou2O2wcBZfZ
3ibmtyI/AVh/vD3FjqxQp7EX0YtzBygLpre9WrGWx2WsQrjBzcRHOnZc/zIExtTe
/N83+B4H4NNDVy4Mf/kmskd4uJ+vcD4JBV4iSYxWpKAAW8LgN1fp2ue6uw==
-----END CERTIFICATE-----
