Certificate:
    Data:
        Version: 3 (0x2)
        Serial Number: 4096 (0x1000)
        Signature Algorithm: sha256WithRSAEncryption
        Issuer: C=US, ST=Florida, L=Jupiter, O=ZeroC, OU=Ice, CN=ZeroC Test CA 1/emailAddress=tests@zeroc.com
        Validity
            Not Before: May 22 16:16:03 2025 GMT
            Not After : Jun 24 16:16:03 2026 GMT
        Subject: CN=CA1 Intermediate 1, C=US, ST=Florida, L=Jupiter, O=ZeroC, OU=Ice/emailAddress=tests@zeroc.com
        Subject Public Key Info:
            Public Key Algorithm: rsaEncryption
                Public-Key: (2048 bit)
                Modulus:
                    00:c9:c4:ef:12:82:2f:16:26:8f:16:f7:b5:1a:1f:
                    c6:fb:61:18:0d:df:69:74:1f:b4:21:08:9d:19:82:
                    2e:fb:9d:fe:b0:ce:85:c8:f9:00:c9:ae:98:e6:e4:
                    b7:db:d5:a8:73:3d:9a:e7:4b:62:10:4b:7a:9b:6f:
                    36:0f:c3:74:33:dd:67:a9:32:69:3e:1b:9f:ff:7a:
                    5d:e9:21:a6:a1:09:1d:74:23:10:e9:e9:21:31:ee:
                    ca:86:53:37:a7:f4:90:25:9d:0a:64:9b:f0:d9:24:
                    f9:a9:b5:83:b4:ad:29:23:7e:49:86:00:74:df:d6:
                    7e:3a:2f:e4:cf:b5:e6:73:4d:ff:9a:45:af:db:7d:
                    83:28:ea:40:48:c7:6e:77:6c:ac:d7:d3:d0:d3:f3:
                    52:a4:c7:44:b5:23:b0:79:bc:22:f3:a8:03:a3:e1:
                    c7:96:1d:19:60:78:b1:aa:5d:91:8f:ce:dd:2a:6a:
                    f9:2d:d9:6b:4d:02:71:72:2d:8e:5e:0e:8b:16:27:
                    bc:9b:4b:08:25:74:1b:bf:67:dd:6d:87:22:2a:ed:
                    81:a0:be:94:75:c7:c1:5f:32:ac:68:fd:c5:5f:4e:
                    49:f9:dc:c4:5f:b3:1f:a5:54:37:a1:dc:09:42:12:
                    76:40:6c:ad:c3:99:43:ba:76:5f:0f:e5:eb:23:eb:
                    ad:0d
                Exponent: 65537 (0x10001)
        X509v3 extensions:
            X509v3 Subject Key Identifier: 
                3E:A6:D8:20:71:88:8F:97:C8:04:15:06:AB:64:F2:19:57:9D:6F:ED
            X509v3 Authority Key Identifier: 
                F7:4F:F3:3B:30:9F:3B:1F:27:4E:C3:C7:A4:7F:0C:FA:A6:40:B6:A1
            X509v3 Basic Constraints: critical
                CA:TRUE
            X509v3 Key Usage: critical
                Digital Signature, Certificate Sign, CRL Sign
    Signature Algorithm: sha256WithRSAEncryption
    Signature Value:
        24:81:95:28:79:a5:e9:d2:2c:fc:6c:78:c4:09:30:04:31:67:
        e1:93:99:72:b3:56:c2:8e:45:a2:79:ac:7b:32:54:44:15:c9:
        a5:43:65:2d:ea:9e:e3:8d:63:b5:0a:89:77:b9:c3:2d:f0:87:
        8f:cf:8c:4b:29:34:f1:80:1a:d1:ad:19:df:24:7a:7c:55:82:
        9f:c1:65:a6:d2:3f:0f:7a:35:c8:19:68:bf:e2:d5:21:22:13:
        c1:ed:4c:f3:a7:b7:cc:4f:fc:63:ef:5f:b8:ba:55:4c:e9:16:
        32:c0:2c:43:9e:b7:ac:2d:1c:ea:ad:6c:cc:c3:e0:4b:d5:0d:
        6a:85:e2:71:f6:f3:c9:6c:5b:6d:07:91:72:f8:2c:3a:c4:07:
        2e:26:35:31:8c:27:91:c9:ed:c9:fe:c9:d0:3f:34:63:60:4a:
        55:a1:14:6f:3f:b6:4f:65:f8:98:69:25:15:04:05:4b:8d:42:
        ec:b3:3a:4e:45:f6:2d:94:19:4a:06:9c:fb:2a:00:e0:9f:f1:
        59:f3:e3:f7:eb:b7:2a:64:01:a6:fb:6d:57:9e:57:1e:c1:6d:
        d2:4e:21:99:c3:76:c2:16:31:ef:78:29:e4:3a:69:a4:ee:12:
        00:b9:59:e5:46:36:2b:6b:d8:c2:83:ea:4c:18:d4:f8:19:86:
        d7:3e:4a:c7
-----BEGIN CERTIFICATE-----
MIID9jCCAt6gAwIBAgICEAAwDQYJKoZIhvcNAQELBQAwgYkxCzAJBgNVBAYTAlVT
MRAwDgYDVQQIDAdGbG9yaWRhMRAwDgYDVQQHDAdKdXBpdGVyMQ4wDAYDVQQKDAVa
ZXJvQzEMMAoGA1UECwwDSWNlMRgwFgYDVQQDDA9aZXJvQyBUZXN0IENBIDExHjAc
BgkqhkiG9w0BCQEWD3Rlc3RzQHplcm9jLmNvbTAeFw0yNTA1MjIxNjE2MDNaFw0y
NjA2MjQxNjE2MDNaMIGMMRswGQYDVQQDDBJDQTEgSW50ZXJtZWRpYXRlIDExCzAJ
BgNVBAYTAlVTMRAwDgYDVQQIDAdGbG9yaWRhMRAwDgYDVQQHDAdKdXBpdGVyMQ4w
DAYDVQQKDAVaZXJvQzEMMAoGA1UECwwDSWNlMR4wHAYJKoZIhvcNAQkBFg90ZXN0
c0B6ZXJvYy5jb20wggEiMA0GCSqGSIb3DQEBAQUAA4IBDwAwggEKAoIBAQDJxO8S
gi8WJo8W97UaH8b7YRgN32l0H7QhCJ0Zgi77nf6wzoXI+QDJrpjm5Lfb1ahzPZrn
S2IQS3qbbzYPw3Qz3WepMmk+G5//el3pIaahCR10IxDp6SEx7sqGUzen9JAlnQpk
m/DZJPmptYO0rSkjfkmGAHTf1n46L+TPteZzTf+aRa/bfYMo6kBIx253bKzX09DT
81Kkx0S1I7B5vCLzqAOj4ceWHRlgeLGqXZGPzt0qavkt2WtNAnFyLY5eDosWJ7yb
SwgldBu/Z91thyIq7YGgvpR1x8FfMqxo/cVfTkn53MRfsx+lVDeh3AlCEnZAbK3D
mUO6dl8P5esj660NAgMBAAGjYzBhMB0GA1UdDgQWBBQ+ptggcYiPl8gEFQarZPIZ
V51v7TAfBgNVHSMEGDAWgBT3T/M7MJ87HydOw8ekfwz6pkC2oTAPBgNVHRMBAf8E
BTADAQH/MA4GA1UdDwEB/wQEAwIBhjANBgkqhkiG9w0BAQsFAAOCAQEAJIGVKHml
6dIs/Gx4xAkwBDFn4ZOZcrNWwo5FonmsezJURBXJpUNlLeqe441jtQqJd7nDLfCH
j8+MSyk08YAa0a0Z3yR6fFWCn8FlptI/D3o1yBlov+LVISITwe1M86e3zE/8Y+9f
uLpVTOkWMsAsQ563rC0c6q1szMPgS9UNaoXicfbzyWxbbQeRcvgsOsQHLiY1MYwn
kcntyf7J0D80Y2BKVaEUbz+2T2X4mGklFQQFS41C7LM6TkX2LZQZSgac+yoA4J/x
WfPj9+u3KmQBpvttV55XHsFt0k4hmcN2whYx73gp5DpppO4SALlZ5UY2K2vYwoPq
TBjU+BmG1z5Kxw==
-----END CERTIFICATE-----
