Certificate:
    Data:
        Version: 3 (0x2)
        Serial Number: 4096 (0x1000)
        Signature Algorithm: sha256WithRSAEncryption
        Issuer: C=US, ST=Florida, L=Jupiter, O=ZeroC, OU=Ice, CN=ZeroC Test CA 1/emailAddress=tests@zeroc.com
        Validity
            Not Before: May 22 16:55:07 2025 GMT
            Not After : Jun 24 16:55:07 2026 GMT
        Subject: CN=CA1 Intermediate 1, C=US, ST=Florida, L=Jupiter, O=ZeroC, OU=Ice/emailAddress=tests@zeroc.com
        Subject Public Key Info:
            Public Key Algorithm: rsaEncryption
                Public-Key: (2048 bit)
                Modulus:
                    00:e9:66:94:bb:ca:37:ce:90:c0:d2:17:fd:f1:38:
                    21:93:52:cf:2d:a8:69:4d:f2:b5:72:3a:81:3d:f4:
                    67:46:e2:a1:29:a9:f6:73:da:c7:5f:4f:3b:24:21:
                    78:b6:34:bb:d8:23:79:9d:66:21:e9:a1:24:22:28:
                    86:ec:76:39:03:43:3a:4e:cf:1b:46:e6:60:8c:25:
                    db:18:83:31:34:90:cb:19:a8:19:c6:52:a3:b0:9a:
                    ec:2c:91:da:84:6d:48:32:31:f0:35:af:36:28:27:
                    a6:e7:08:33:79:6b:ef:56:c5:84:15:47:80:d3:59:
                    61:44:45:54:31:0b:f2:70:c2:81:41:e0:d1:37:9e:
                    ed:75:11:de:59:2a:32:85:3a:c6:fb:b3:c1:ea:3b:
                    a9:69:1d:73:df:3e:1e:58:27:3f:b9:be:7f:c3:39:
                    87:66:98:83:24:13:df:74:77:a1:fb:7b:fa:7d:ff:
                    25:b9:f0:e5:52:a9:b4:ed:c3:c7:55:8d:a3:13:52:
                    45:40:9b:10:a4:71:7b:9c:1d:50:24:bf:2e:fe:d0:
                    8c:9c:eb:56:e6:c5:6f:a9:37:8c:9e:cd:da:b4:bd:
                    68:3e:6f:6c:74:63:ef:14:e4:03:24:56:38:e5:4b:
                    4f:df:0b:88:5b:8c:3a:37:40:a0:72:d9:4a:41:a4:
                    7a:d1
                Exponent: 65537 (0x10001)
        X509v3 extensions:
            X509v3 Subject Key Identifier: 
                53:27:F9:58:91:DF:3C:25:B6:77:53:D1:1C:D4:C8:85:E3:A8:3B:F6
            X509v3 Authority Key Identifier: 
                75:F1:34:2D:9F:C0:A0:4E:71:BB:0C:37:85:8A:88:FC:6D:A2:28:55
            X509v3 Basic Constraints: critical
                CA:TRUE
            X509v3 Key Usage: critical
                Digital Signature, Certificate Sign, CRL Sign
    Signature Algorithm: sha256WithRSAEncryption
    Signature Value:
        0e:62:7f:6a:7a:c0:e9:2f:a8:61:3d:87:9a:9c:03:da:75:c5:
        1a:60:cd:9a:42:95:1c:ab:7f:ba:fb:aa:aa:99:8d:69:05:09:
        2f:2c:53:00:cb:d0:c5:51:a5:7e:36:80:7d:68:99:81:f8:5f:
        68:50:ec:bc:e9:b0:0d:5f:1f:fe:06:43:42:af:48:53:da:b4:
        c0:60:b0:3a:0d:c4:88:d2:23:e4:6f:1f:81:4f:97:8a:de:1c:
        f9:0e:54:36:0e:22:56:87:24:87:09:91:8d:5a:6f:4f:ea:92:
        c9:02:d8:3d:55:2f:ab:1d:6c:bd:92:30:21:32:da:aa:37:be:
        a1:3d:8d:9a:48:30:ce:e1:57:eb:e9:b3:b4:a5:48:ae:12:6b:
        a3:12:08:88:f7:13:fe:50:cd:59:b3:42:73:39:4a:0a:a7:91:
        0c:fc:3d:72:11:1f:c3:e0:8f:c4:98:18:f3:0a:06:f3:bd:ff:
        1a:bf:90:6b:0d:f0:ac:3c:66:90:67:9d:9b:47:db:43:55:dd:
        a1:12:3b:41:05:bc:ba:98:cb:54:10:ea:5a:83:06:75:ae:65:
        58:28:af:c1:71:c7:ba:75:89:6d:76:37:89:93:1f:0a:41:d8:
        4a:37:af:57:3d:ca:7f:9d:c5:ae:fc:63:61:95:98:02:6e:0a:
        d3:f4:e8:76
-----BEGIN CERTIFICATE-----
MIID9jCCAt6gAwIBAgICEAAwDQYJKoZIhvcNAQELBQAwgYkxCzAJBgNVBAYTAlVT
MRAwDgYDVQQIDAdGbG9yaWRhMRAwDgYDVQQHDAdKdXBpdGVyMQ4wDAYDVQQKDAVa
ZXJvQzEMMAoGA1UECwwDSWNlMRgwFgYDVQQDDA9aZXJvQyBUZXN0IENBIDExHjAc
BgkqhkiG9w0BCQEWD3Rlc3RzQHplcm9jLmNvbTAeFw0yNTA1MjIxNjU1MDdaFw0y
NjA2MjQxNjU1MDdaMIGMMRswGQYDVQQDDBJDQTEgSW50ZXJtZWRpYXRlIDExCzAJ
BgNVBAYTAlVTMRAwDgYDVQQIDAdGbG9yaWRhMRAwDgYDVQQHDAdKdXBpdGVyMQ4w
DAYDVQQKDAVaZXJvQzEMMAoGA1UECwwDSWNlMR4wHAYJKoZIhvcNAQkBFg90ZXN0
c0B6ZXJvYy5jb20wggEiMA0GCSqGSIb3DQEBAQUAA4IBDwAwggEKAoIBAQDpZpS7
yjfOkMDSF/3xOCGTUs8tqGlN8rVyOoE99GdG4qEpqfZz2sdfTzskIXi2NLvYI3md
ZiHpoSQiKIbsdjkDQzpOzxtG5mCMJdsYgzE0kMsZqBnGUqOwmuwskdqEbUgyMfA1
rzYoJ6bnCDN5a+9WxYQVR4DTWWFERVQxC/JwwoFB4NE3nu11Ed5ZKjKFOsb7s8Hq
O6lpHXPfPh5YJz+5vn/DOYdmmIMkE990d6H7e/p9/yW58OVSqbTtw8dVjaMTUkVA
mxCkcXucHVAkvy7+0Iyc61bmxW+pN4yezdq0vWg+b2x0Y+8U5AMkVjjlS0/fC4hb
jDo3QKBy2UpBpHrRAgMBAAGjYzBhMB0GA1UdDgQWBBRTJ/lYkd88JbZ3U9Ec1MiF
46g79jAfBgNVHSMEGDAWgBR18TQtn8CgTnG7DDeFioj8baIoVTAPBgNVHRMBAf8E
BTADAQH/MA4GA1UdDwEB/wQEAwIBhjANBgkqhkiG9w0BAQsFAAOCAQEADmJ/anrA
6S+oYT2HmpwD2nXFGmDNmkKVHKt/uvuqqpmNaQUJLyxTAMvQxVGlfjaAfWiZgfhf
aFDsvOmwDV8f/gZDQq9IU9q0wGCwOg3EiNIj5G8fgU+Xit4c+Q5UNg4iVockhwmR
jVpvT+qSyQLYPVUvqx1svZIwITLaqje+oT2NmkgwzuFX6+mztKVIrhJroxIIiPcT
/lDNWbNCczlKCqeRDPw9chEfw+CPxJgY8woG873/Gr+Qaw3wrDxmkGedm0fbQ1Xd
oRI7QQW8upjLVBDqWoMGda5lWCivwXHHunWJbXY3iZMfCkHYSjevVz3Kf53Frvxj
YZWYAm4K0/Todg==
-----END CERTIFICATE-----
