Certificate:
    Data:
        Version: 3 (0x2)
        Serial Number: 4097 (0x1001)
        Signature Algorithm: sha256WithRSAEncryption
        Issuer: CN=CA1 Intermediate 1, C=US, ST=Florida, L=Jupiter, O=ZeroC, OU=Ice/emailAddress=tests@zeroc.com
        Validity
            Not Before: May 22 16:55:13 2025 GMT
            Not After : Jun 24 16:55:13 2026 GMT
        Subject: CN=Server, C=US, ST=Florida, L=Jupiter, O=ZeroC, Inc., OU=Ice/emailAddress=info@zeroc.com
        Subject Public Key Info:
            Public Key Algorithm: rsaEncryption
                Public-Key: (2048 bit)
                Modulus:
                    00:a9:81:17:99:f1:dc:05:27:1a:78:34:9e:bf:a6:
                    5a:23:b4:22:f9:f2:a2:c7:8b:aa:af:94:c2:bf:84:
                    cc:bd:16:f1:38:89:67:6d:a1:5c:e1:85:dd:a1:05:
                    08:5e:05:41:1c:af:e5:3b:3a:f6:95:5b:41:d5:61:
                    d5:32:6f:19:b2:94:2d:f8:3f:2b:d8:ca:a4:9d:29:
                    bb:c8:06:59:b5:c0:bc:98:5a:5d:25:7b:be:6b:4e:
                    09:86:1b:70:59:cb:b0:e5:58:ff:db:34:2d:48:05:
                    55:6a:fd:ec:e8:04:10:80:b4:83:4e:a7:0b:d2:9c:
                    a7:04:9f:6a:5a:59:3a:1e:3c:58:4f:fe:be:29:b1:
                    fa:25:98:c1:a9:ba:9a:9c:aa:0b:e2:a5:bd:3a:79:
                    a4:a1:23:76:21:1c:5b:7f:7e:cd:72:df:e4:73:0e:
                    31:9f:62:fe:3b:f8:21:54:36:f8:b1:13:e5:ea:00:
                    0b:fb:9e:0e:c0:bf:68:74:7d:91:23:d4:8d:ae:5c:
                    ce:3c:e3:00:15:79:78:be:61:f2:fe:a4:8f:59:7e:
                    61:73:f6:65:da:ee:91:00:51:6f:08:06:e4:13:e1:
                    cf:c3:10:80:9b:27:8b:55:1d:52:b4:5f:30:1d:81:
                    2c:78:c7:b6:85:0d:3a:e1:96:12:da:2d:32:4a:e0:
                    31:97
                Exponent: 65537 (0x10001)
        X509v3 extensions:
            X509v3 Subject Key Identifier: 
                93:78:CA:AF:62:64:19:F1:E0:05:D0:B6:CF:6C:29:5B:C1:53:07:31
            X509v3 Authority Key Identifier: 
                53:27:F9:58:91:DF:3C:25:B6:77:53:D1:1C:D4:C8:85:E3:A8:3B:F6
            X509v3 Key Usage: critical
                Digital Signature, Non Repudiation, Key Encipherment
            X509v3 Extended Key Usage: 
                TLS Web Server Authentication
            X509v3 Subject Alternative Name: 
                IP Address:127.0.0.1, DNS:server
    Signature Algorithm: sha256WithRSAEncryption
    Signature Value:
        85:3c:f6:f8:68:19:c9:63:b2:27:7d:71:e0:05:7f:9b:ce:27:
        dd:4d:97:ef:41:36:c7:8e:5a:70:3f:36:a0:4b:28:f1:85:1e:
        c1:87:51:cc:49:8c:d8:55:a9:9e:f5:d0:9a:ba:9c:d4:3f:75:
        70:f3:28:9a:dc:bc:6f:89:3d:83:72:12:ce:1a:75:80:10:d4:
        f2:a6:19:3c:92:85:ae:f1:bb:07:97:b6:a1:92:c7:0a:5a:dd:
        91:08:9d:79:27:45:a0:00:67:aa:44:a1:48:cd:9c:db:f8:d6:
        94:b2:57:2c:a1:cf:72:e0:7a:48:07:09:7a:2a:8a:79:04:41:
        25:1f:6c:0e:9b:8d:6e:62:48:ad:13:11:17:a0:b4:66:03:b0:
        74:5d:40:c2:73:bd:fa:e9:85:85:7b:29:73:d6:2b:37:2c:f8:
        a0:24:94:af:82:cf:f6:69:c7:a2:67:e1:04:6c:4a:b3:a3:9e:
        7d:1c:98:f0:02:d7:a2:9f:0c:d9:99:9b:2b:cd:c6:3f:db:e8:
        61:0c:7a:9f:43:67:35:95:b7:8d:fc:46:60:60:1a:99:4a:5c:
        73:9d:75:a8:9e:bb:23:ee:1a:3c:66:0c:b4:e0:9c:d9:19:89:
        ca:0b:a3:23:8f:37:ec:26:58:d7:23:e1:d5:9b:b8:1e:d5:e9:
        58:bf:94:d3
-----BEGIN CERTIFICATE-----
MIIEEDCCAvigAwIBAgICEAEwDQYJKoZIhvcNAQELBQAwgYwxGzAZBgNVBAMMEkNB
MSBJbnRlcm1lZGlhdGUgMTELMAkGA1UEBhMCVVMxEDAOBgNVBAgMB0Zsb3JpZGEx
EDAOBgNVBAcMB0p1cGl0ZXIxDjAMBgNVBAoMBVplcm9DMQwwCgYDVQQLDANJY2Ux
HjAcBgkqhkiG9w0BCQEWD3Rlc3RzQHplcm9jLmNvbTAeFw0yNTA1MjIxNjU1MTNa
Fw0yNjA2MjQxNjU1MTNaMIGFMQ8wDQYDVQQDDAZTZXJ2ZXIxCzAJBgNVBAYTAlVT
MRAwDgYDVQQIDAdGbG9yaWRhMRAwDgYDVQQHDAdKdXBpdGVyMRQwEgYDVQQKDAta
ZXJvQywgSW5jLjEMMAoGA1UECwwDSWNlMR0wGwYJKoZIhvcNAQkBFg5pbmZvQHpl
cm9jLmNvbTCCASIwDQYJKoZIhvcNAQEBBQADggEPADCCAQoCggEBAKmBF5nx3AUn
Gng0nr+mWiO0IvnyoseLqq+Uwr+EzL0W8TiJZ22hXOGF3aEFCF4FQRyv5Ts69pVb
QdVh1TJvGbKULfg/K9jKpJ0pu8gGWbXAvJhaXSV7vmtOCYYbcFnLsOVY/9s0LUgF
VWr97OgEEIC0g06nC9KcpwSfalpZOh48WE/+vimx+iWYwam6mpyqC+KlvTp5pKEj
diEcW39+zXLf5HMOMZ9i/jv4IVQ2+LET5eoAC/ueDsC/aHR9kSPUja5czjzjABV5
eL5h8v6kj1l+YXP2ZdrukQBRbwgG5BPhz8MQgJsni1UdUrRfMB2BLHjHtoUNOuGW
EtotMkrgMZcCAwEAAaOBgDB+MB0GA1UdDgQWBBSTeMqvYmQZ8eAF0LbPbClbwVMH
MTAfBgNVHSMEGDAWgBRTJ/lYkd88JbZ3U9Ec1MiF46g79jAOBgNVHQ8BAf8EBAMC
BeAwEwYDVR0lBAwwCgYIKwYBBQUHAwEwFwYDVR0RBBAwDocEfwAAAYIGc2VydmVy
MA0GCSqGSIb3DQEBCwUAA4IBAQCFPPb4aBnJY7InfXHgBX+bzifdTZfvQTbHjlpw
PzagSyjxhR7Bh1HMSYzYVame9dCaupzUP3Vw8yia3LxviT2DchLOGnWAENTyphk8
koWu8bsHl7ahkscKWt2RCJ15J0WgAGeqRKFIzZzb+NaUslcsoc9y4HpIBwl6Kop5
BEElH2wOm41uYkitExEXoLRmA7B0XUDCc7366YWFeylz1is3LPigJJSvgs/2acei
Z+EEbEqzo559HJjwAteinwzZmZsrzcY/2+hhDHqfQ2c1lbeN/EZgYBqZSlxznXWo
nrsj7ho8Zgy04JzZGYnKC6MjjzfsJljXI+HVm7ge1elYv5TT
-----END CERTIFICATE-----
