Certificate:
    Data:
        Version: 3 (0x2)
        Serial Number: 4096 (0x1000)
        Signature Algorithm: sha256WithRSAEncryption
        Issuer: C=US, ST=Florida, L=Jupiter, O=ZeroC, OU=Ice, CN=ZeroC Test CA 3/emailAddress=tests@zeroc.com
        Validity
            Not Before: May 22 15:10:09 2025 GMT
            Not After : Jun 24 15:10:09 2026 GMT
        Subject: CN=ZeroC Test Intermediate 1 CA, C=US, ST=Florida, L=Jupiter, O=ZeroC, OU=Ice Test Infrastructure/emailAddress=tests@zeroc.com
        Subject Public Key Info:
            Public Key Algorithm: rsaEncryption
                Public-Key: (2048 bit)
                Modulus:
                    00:e2:54:b5:ba:dc:89:81:17:af:a9:3b:17:b1:b2:
                    2a:7b:e4:c5:e4:74:44:1d:bf:54:61:d8:b9:de:79:
                    00:08:fc:8c:be:33:f9:d8:5f:55:67:c5:02:2e:f6:
                    98:b0:65:aa:3a:21:4e:3f:f5:41:ac:dd:e0:44:80:
                    09:28:e9:cf:52:5d:2f:02:c9:07:9f:7b:02:34:d8:
                    4a:25:9b:14:bc:b6:65:51:3f:7c:8b:70:29:2c:b2:
                    76:27:c9:9c:d5:f5:fb:a6:66:0f:13:7e:46:9f:d2:
                    8e:1d:fc:96:65:7a:fe:c8:41:9b:6b:ad:ae:31:a1:
                    11:68:d8:68:24:97:a3:9f:dc:97:0d:12:19:19:c8:
                    5f:31:d5:ec:ba:ba:d4:40:a6:11:16:1d:54:84:fa:
                    43:69:0c:3e:82:5c:aa:13:e8:35:75:85:ac:f3:d9:
                    27:d2:1c:d5:40:70:69:71:da:5f:cd:d7:24:19:89:
                    c0:96:23:01:22:e4:cc:98:29:cc:08:5c:b6:d9:ab:
                    57:7b:b2:01:88:85:f4:8a:a0:01:8f:58:98:63:3f:
                    fe:88:8c:33:1f:e7:8b:77:b2:4a:0a:dd:3c:08:7e:
                    2d:fe:24:cb:c4:b2:e4:a1:c6:f3:10:81:93:7f:50:
                    5a:2b:70:64:f5:54:a9:38:38:09:d6:81:cd:9a:b2:
                    10:9d
                Exponent: 65537 (0x10001)
        X509v3 extensions:
            X509v3 Subject Key Identifier: 
                14:7C:49:2A:40:64:EA:0D:02:B2:A3:4F:AC:96:2E:9E:E0:E5:9C:3A
            X509v3 Authority Key Identifier: 
                79:19:30:E7:5F:8F:65:43:B4:0F:58:BC:19:A9:A7:AC:41:19:EE:39
            X509v3 Basic Constraints: critical
                CA:TRUE
            X509v3 Key Usage: critical
                Digital Signature, Certificate Sign, CRL Sign
    Signature Algorithm: sha256WithRSAEncryption
    Signature Value:
        82:0e:10:4d:6e:83:b3:d0:e0:99:da:c5:54:65:1d:95:9c:29:
        51:a3:a3:2c:bb:75:7c:6b:a2:e2:5f:ae:28:db:ab:70:54:b0:
        de:e8:69:45:aa:d7:5b:f7:cb:29:b5:cd:03:bb:23:61:f6:a2:
        91:05:9b:29:79:a1:15:2d:28:29:13:24:8d:11:40:1e:1e:50:
        5c:e7:e1:5c:e1:a6:50:5a:3b:29:d5:59:19:34:d7:20:8b:54:
        fe:7a:bf:03:37:53:eb:2f:56:e3:98:6d:f3:25:93:6b:cc:84:
        c3:df:93:e8:26:86:41:ce:95:88:84:04:6e:95:83:db:bc:2b:
        46:ce:ee:d2:2a:ca:e7:37:fc:52:75:dd:fb:38:dc:ad:c8:ef:
        4d:2f:b7:19:a0:6b:b6:77:70:bb:25:8f:07:f5:6f:74:e1:ee:
        fd:73:66:3f:72:15:44:d9:e1:01:48:10:0e:ac:1a:71:17:be:
        a8:36:30:81:c7:25:3d:d4:ac:7c:c6:aa:19:32:02:f5:f8:46:
        66:be:10:e0:8f:e6:1c:33:ff:78:89:a7:41:5e:6d:5b:25:49:
        a5:8f:40:38:e5:93:a0:3b:17:40:17:2a:c3:5e:04:69:d3:63:
        92:51:4a:30:3f:58:21:67:f3:a7:5f:25:40:9b:b8:a5:69:bc:
        68:81:c4:3d
-----BEGIN CERTIFICATE-----
MIIEFDCCAvygAwIBAgICEAAwDQYJKoZIhvcNAQELBQAwgYkxCzAJBgNVBAYTAlVT
MRAwDgYDVQQIDAdGbG9yaWRhMRAwDgYDVQQHDAdKdXBpdGVyMQ4wDAYDVQQKDAVa
ZXJvQzEMMAoGA1UECwwDSWNlMRgwFgYDVQQDDA9aZXJvQyBUZXN0IENBIDMxHjAc
BgkqhkiG9w0BCQEWD3Rlc3RzQHplcm9jLmNvbTAeFw0yNTA1MjIxNTEwMDlaFw0y
NjA2MjQxNTEwMDlaMIGqMSUwIwYDVQQDDBxaZXJvQyBUZXN0IEludGVybWVkaWF0
ZSAxIENBMQswCQYDVQQGEwJVUzEQMA4GA1UECAwHRmxvcmlkYTEQMA4GA1UEBwwH
SnVwaXRlcjEOMAwGA1UECgwFWmVyb0MxIDAeBgNVBAsMF0ljZSBUZXN0IEluZnJh
c3RydWN0dXJlMR4wHAYJKoZIhvcNAQkBFg90ZXN0c0B6ZXJvYy5jb20wggEiMA0G
CSqGSIb3DQEBAQUAA4IBDwAwggEKAoIBAQDiVLW63ImBF6+pOxexsip75MXkdEQd
v1Rh2LneeQAI/Iy+M/nYX1VnxQIu9piwZao6IU4/9UGs3eBEgAko6c9SXS8CyQef
ewI02EolmxS8tmVRP3yLcCkssnYnyZzV9fumZg8Tfkaf0o4d/JZlev7IQZtrra4x
oRFo2Ggkl6Of3JcNEhkZyF8x1ey6utRAphEWHVSE+kNpDD6CXKoT6DV1hazz2SfS
HNVAcGlx2l/N1yQZicCWIwEi5MyYKcwIXLbZq1d7sgGIhfSKoAGPWJhjP/6IjDMf
54t3skoK3TwIfi3+JMvEsuShxvMQgZN/UForcGT1VKk4OAnWgc2ashCdAgMBAAGj
YzBhMB0GA1UdDgQWBBQUfEkqQGTqDQKyo0+sli6e4OWcOjAfBgNVHSMEGDAWgBR5
GTDnX49lQ7QPWLwZqaesQRnuOTAPBgNVHRMBAf8EBTADAQH/MA4GA1UdDwEB/wQE
AwIBhjANBgkqhkiG9w0BAQsFAAOCAQEAgg4QTW6Ds9DgmdrFVGUdlZwpUaOjLLt1
fGui4l+uKNurcFSw3uhpRarXW/fLKbXNA7sjYfaikQWbKXmhFS0oKRMkjRFAHh5Q
XOfhXOGmUFo7KdVZGTTXIItU/nq/AzdT6y9W45ht8yWTa8yEw9+T6CaGQc6ViIQE
bpWD27wrRs7u0irK5zf8UnXd+zjcrcjvTS+3GaBrtndwuyWPB/VvdOHu/XNmP3IV
RNnhAUgQDqwacRe+qDYwgcclPdSsfMaqGTIC9fhGZr4Q4I/mHDP/eImnQV5tWyVJ
pY9AOOWToDsXQBcqw14EadNjklFKMD9YIWfzp18lQJu4pWm8aIHEPQ==
-----END CERTIFICATE-----
