Certificate:
    Data:
        Version: 3 (0x2)
        Serial Number: 4096 (0x1000)
        Signature Algorithm: sha256WithRSAEncryption
        Issuer: C=US, ST=Florida, L=Jupiter, O=ZeroC, OU=Ice, CN=ZeroC Test CA 3/emailAddress=tests@zeroc.com
        Validity
            Not Before: May 22 16:16:04 2025 GMT
            Not After : Jun 24 16:16:04 2026 GMT
        Subject: CN=ZeroC Test Intermediate 1 CA, C=US, ST=Florida, L=Jupiter, O=ZeroC, OU=Ice Test Infrastructure/emailAddress=tests@zeroc.com
        Subject Public Key Info:
            Public Key Algorithm: rsaEncryption
                Public-Key: (2048 bit)
                Modulus:
                    00:9b:10:5b:d2:2c:8e:fc:5c:d9:7f:4c:5f:0e:7e:
                    60:be:ab:6e:bd:05:df:6a:3a:06:48:88:24:00:99:
                    a5:1c:08:cc:6b:46:c2:64:92:5e:b5:b0:2c:0b:db:
                    df:89:61:2a:75:72:22:ae:24:d6:66:9a:9e:b5:14:
                    8f:d1:28:33:51:67:fd:88:02:44:32:ef:ae:76:76:
                    03:1f:45:a7:3e:0d:93:48:5b:6d:ee:25:bd:d8:55:
                    69:d7:86:57:a9:78:e5:df:60:23:dd:4c:44:82:90:
                    4f:74:12:e0:16:ec:bc:87:09:29:9d:d9:bc:65:bd:
                    30:3c:f0:b3:6d:96:a8:57:b4:8b:1f:a4:76:a0:ef:
                    2f:18:39:0d:a9:1c:53:79:09:97:db:06:ad:7a:4a:
                    6a:cb:fd:ed:96:1c:5c:30:18:b3:e5:fa:67:ef:4c:
                    05:28:de:46:9d:eb:ca:b9:80:c2:b7:6e:6c:d4:c2:
                    44:19:01:bb:61:cf:f8:57:73:e8:a9:1a:e6:9a:14:
                    da:ea:3c:39:ff:28:07:3d:7c:91:6c:25:8b:10:19:
                    e7:b9:94:ef:18:79:95:35:7b:54:f5:86:36:26:0e:
                    04:7d:1d:43:d6:83:0c:1c:ad:1e:06:af:8f:f3:c2:
                    02:f6:da:d0:04:a9:59:90:1a:7d:ca:62:cd:c2:93:
                    86:59
                Exponent: 65537 (0x10001)
        X509v3 extensions:
            X509v3 Subject Key Identifier: 
                E6:51:CC:78:A5:3E:6F:61:38:55:FB:0C:FA:AB:53:44:F2:3C:97:99
            X509v3 Authority Key Identifier: 
                92:C6:6A:E4:A8:82:98:B7:79:EC:BE:04:70:70:B1:E9:33:AB:07:2E
            X509v3 Basic Constraints: critical
                CA:TRUE
            X509v3 Key Usage: critical
                Digital Signature, Certificate Sign, CRL Sign
    Signature Algorithm: sha256WithRSAEncryption
    Signature Value:
        c1:66:47:3b:c7:c7:6a:e9:df:9c:8c:55:48:5d:60:87:40:a5:
        14:9a:59:8b:9d:36:96:5a:4c:1a:8f:e9:b2:e2:b5:fa:88:02:
        ff:5e:19:44:4f:24:40:0d:d0:dc:c4:f7:e9:4c:6d:18:b3:b0:
        ef:1f:dd:7f:a7:b0:6c:f0:f8:fc:66:47:83:83:94:e3:6e:e8:
        8f:06:a6:b5:b9:e1:c6:02:68:72:5c:da:d9:d9:67:58:03:10:
        04:3e:07:00:b5:5e:05:65:f0:33:45:08:04:08:ed:09:f6:30:
        eb:a7:23:d8:8c:06:b2:4b:3f:67:cc:a7:41:cf:6e:95:d2:29:
        4a:5c:26:b3:95:2b:b2:63:e2:d5:28:ec:b7:5e:67:52:5d:5a:
        b6:dc:33:f3:66:e4:96:c3:66:74:3a:2e:52:09:8b:b8:01:1e:
        2a:1a:6a:b6:53:9c:ad:57:db:64:59:5f:e6:88:d3:7c:fd:f3:
        57:24:4b:10:1d:98:be:b8:8b:e4:50:cc:1d:c6:ff:5b:a5:57:
        22:09:ba:af:04:3f:c4:6b:02:0f:12:18:80:4f:62:a5:77:f7:
        95:89:90:4c:32:3d:81:7e:0c:c0:9b:f4:86:1a:18:52:27:98:
        f6:66:aa:4a:c9:61:b7:1e:cd:80:3d:e4:b9:6f:cb:3f:1f:d5:
        a5:4e:c4:85
-----BEGIN CERTIFICATE-----
MIIEFDCCAvygAwIBAgICEAAwDQYJKoZIhvcNAQELBQAwgYkxCzAJBgNVBAYTAlVT
MRAwDgYDVQQIDAdGbG9yaWRhMRAwDgYDVQQHDAdKdXBpdGVyMQ4wDAYDVQQKDAVa
ZXJvQzEMMAoGA1UECwwDSWNlMRgwFgYDVQQDDA9aZXJvQyBUZXN0IENBIDMxHjAc
BgkqhkiG9w0BCQEWD3Rlc3RzQHplcm9jLmNvbTAeFw0yNTA1MjIxNjE2MDRaFw0y
NjA2MjQxNjE2MDRaMIGqMSUwIwYDVQQDDBxaZXJvQyBUZXN0IEludGVybWVkaWF0
ZSAxIENBMQswCQYDVQQGEwJVUzEQMA4GA1UECAwHRmxvcmlkYTEQMA4GA1UEBwwH
SnVwaXRlcjEOMAwGA1UECgwFWmVyb0MxIDAeBgNVBAsMF0ljZSBUZXN0IEluZnJh
c3RydWN0dXJlMR4wHAYJKoZIhvcNAQkBFg90ZXN0c0B6ZXJvYy5jb20wggEiMA0G
CSqGSIb3DQEBAQUAA4IBDwAwggEKAoIBAQCbEFvSLI78XNl/TF8OfmC+q269Bd9q
OgZIiCQAmaUcCMxrRsJkkl61sCwL29+JYSp1ciKuJNZmmp61FI/RKDNRZ/2IAkQy
7652dgMfRac+DZNIW23uJb3YVWnXhlepeOXfYCPdTESCkE90EuAW7LyHCSmd2bxl
vTA88LNtlqhXtIsfpHag7y8YOQ2pHFN5CZfbBq16SmrL/e2WHFwwGLPl+mfvTAUo
3kad68q5gMK3bmzUwkQZAbthz/hXc+ipGuaaFNrqPDn/KAc9fJFsJYsQGee5lO8Y
eZU1e1T1hjYmDgR9HUPWgwwcrR4Gr4/zwgL22tAEqVmQGn3KYs3Ck4ZZAgMBAAGj
YzBhMB0GA1UdDgQWBBTmUcx4pT5vYThV+wz6q1NE8jyXmTAfBgNVHSMEGDAWgBSS
xmrkqIKYt3nsvgRwcLHpM6sHLjAPBgNVHRMBAf8EBTADAQH/MA4GA1UdDwEB/wQE
AwIBhjANBgkqhkiG9w0BAQsFAAOCAQEAwWZHO8fHaunfnIxVSF1gh0ClFJpZi502
llpMGo/psuK1+ogC/14ZRE8kQA3Q3MT36UxtGLOw7x/df6ewbPD4/GZHg4OU427o
jwamtbnhxgJoclza2dlnWAMQBD4HALVeBWXwM0UIBAjtCfYw66cj2IwGsks/Z8yn
Qc9uldIpSlwms5UrsmPi1Sjst15nUl1attwz82bklsNmdDouUgmLuAEeKhpqtlOc
rVfbZFlf5ojTfP3zVyRLEB2YvriL5FDMHcb/W6VXIgm6rwQ/xGsCDxIYgE9ipXf3
lYmQTDI9gX4MwJv0hhoYUieY9maqSslhtx7NgD3kuW/LPx/VpU7EhQ==
-----END CERTIFICATE-----
