Certificate:
    Data:
        Version: 3 (0x2)
        Serial Number: 4096 (0x1000)
        Signature Algorithm: sha256WithRSAEncryption
        Issuer: CN=ZeroC Test Intermediate 1 CA, C=US, ST=Florida, L=Jupiter, O=ZeroC, OU=Ice Test Infrastructure/emailAddress=tests@zeroc.com
        Validity
            Not Before: May 22 16:55:17 2025 GMT
            Not After : Jun 24 16:55:17 2026 GMT
        Subject: CN=Server Revoked, C=US, ST=Florida, L=Jupiter, O=ZeroC, Inc., OU=Ice/emailAddress=info@zeroc.com
        Subject Public Key Info:
            Public Key Algorithm: rsaEncryption
                Public-Key: (2048 bit)
                Modulus:
                    00:ec:f7:b5:7d:32:b2:c1:ec:a3:c0:46:8f:4e:e9:
                    3e:81:64:cd:af:27:70:53:c3:21:97:69:54:c1:30:
                    c5:9b:4a:30:73:c5:fb:66:33:63:5e:2e:be:5a:3e:
                    d8:24:53:fa:b9:15:ae:54:97:5c:40:cc:c2:38:5b:
                    ad:7c:7a:40:f8:b0:10:e7:14:d3:20:a4:c1:45:cc:
                    71:51:c8:4e:95:d5:58:7a:cd:3d:c6:8b:f3:79:24:
                    ab:8d:21:2a:aa:c5:a0:84:08:69:b1:7f:e6:c7:d1:
                    46:7e:30:ae:df:41:16:a9:fb:5a:e1:2c:2a:35:54:
                    88:07:83:55:c4:27:b6:b4:14:d8:41:c1:88:1c:67:
                    fd:ef:47:cf:7b:26:12:61:31:4e:a8:21:63:6b:0b:
                    13:41:4c:aa:ee:92:d7:5f:dc:52:a1:6e:f1:fa:4d:
                    5b:1a:bd:48:fa:1a:c7:03:b9:e3:70:70:ad:a1:7a:
                    e7:0a:3b:d6:cc:e5:41:77:43:65:c9:9b:c6:2f:05:
                    ef:90:85:61:40:ab:49:45:62:59:50:90:a4:1c:30:
                    d1:24:a5:9f:af:f6:d9:e2:a4:38:1b:42:b0:1b:5c:
                    7f:31:30:5c:23:4f:fe:0f:5f:3c:03:e0:2f:7e:f5:
                    cb:c5:5f:2d:c2:10:a6:1c:f0:34:73:8a:07:c1:32:
                    ab:05
                Exponent: 65537 (0x10001)
        X509v3 extensions:
            X509v3 Subject Key Identifier: 
                F7:A4:F8:0F:C0:3E:7C:DF:F0:1A:A2:E1:2D:7E:F0:2B:77:EC:7F:F7
            X509v3 Authority Key Identifier: 
                E5:CB:A9:A1:32:7D:4B:DF:F9:31:5A:0E:9A:15:1B:8E:52:53:B4:4A
            X509v3 Key Usage: critical
                Digital Signature, Non Repudiation, Key Encipherment
            X509v3 Extended Key Usage: 
                TLS Web Server Authentication
            X509v3 Subject Alternative Name: 
                IP Address:127.0.0.1, DNS:server
            X509v3 CRL Distribution Points: 
                Full Name:
                  URI:http://127.0.0.1:20001/ca3/i1/i1.crl.pem
    Signature Algorithm: sha256WithRSAEncryption
    Signature Value:
        84:0f:45:90:df:4a:fa:e3:6c:d8:be:db:8e:02:bb:24:03:97:
        83:7c:47:b3:6d:75:71:f3:96:2b:de:0e:8b:99:eb:6f:08:1e:
        f5:f9:bf:6a:3c:fe:2d:8b:65:a5:e5:8a:5b:10:cb:1c:eb:fb:
        51:1e:65:73:b6:30:89:38:78:67:bd:c6:7b:03:fc:1e:2f:a3:
        2c:7f:21:36:5b:5d:9d:e3:29:cf:43:54:10:76:c5:cc:f3:b0:
        44:eb:ba:72:69:38:f8:67:87:93:1e:ba:98:1d:32:7a:47:d7:
        1f:66:07:be:35:d9:14:c2:a9:62:33:bc:a2:cf:fa:a7:9f:ba:
        65:8f:ef:38:1a:ee:22:3a:fd:f4:8e:f8:7d:f7:c5:8c:9f:94:
        e9:0c:e1:a4:4c:08:38:48:12:03:7a:b7:57:f4:a4:9c:2e:43:
        b1:cb:06:53:04:89:33:ff:22:39:03:8c:c3:f7:63:f3:e0:0a:
        93:41:40:68:62:cf:25:43:21:dd:e6:a2:61:cf:80:4c:c0:9b:
        6a:d6:a2:2e:dd:04:8d:ae:f3:6c:10:0a:2b:36:5d:72:18:63:
        49:e3:60:12:8e:f1:9d:ea:dc:cc:a8:e0:99:32:c5:7c:6c:f3:
        a6:0a:16:f6:59:06:1b:1b:dc:4e:9a:e9:cb:e1:ed:22:e6:21:
        e2:8c:8d:ab
-----BEGIN CERTIFICATE-----
MIIEcjCCA1qgAwIBAgICEAAwDQYJKoZIhvcNAQELBQAwgaoxJTAjBgNVBAMMHFpl
cm9DIFRlc3QgSW50ZXJtZWRpYXRlIDEgQ0ExCzAJBgNVBAYTAlVTMRAwDgYDVQQI
DAdGbG9yaWRhMRAwDgYDVQQHDAdKdXBpdGVyMQ4wDAYDVQQKDAVaZXJvQzEgMB4G
A1UECwwXSWNlIFRlc3QgSW5mcmFzdHJ1Y3R1cmUxHjAcBgkqhkiG9w0BCQEWD3Rl
c3RzQHplcm9jLmNvbTAeFw0yNTA1MjIxNjU1MTdaFw0yNjA2MjQxNjU1MTdaMIGN
MRcwFQYDVQQDDA5TZXJ2ZXIgUmV2b2tlZDELMAkGA1UEBhMCVVMxEDAOBgNVBAgM
B0Zsb3JpZGExEDAOBgNVBAcMB0p1cGl0ZXIxFDASBgNVBAoMC1plcm9DLCBJbmMu
MQwwCgYDVQQLDANJY2UxHTAbBgkqhkiG9w0BCQEWDmluZm9AemVyb2MuY29tMIIB
IjANBgkqhkiG9w0BAQEFAAOCAQ8AMIIBCgKCAQEA7Pe1fTKyweyjwEaPTuk+gWTN
rydwU8Mhl2lUwTDFm0owc8X7ZjNjXi6+Wj7YJFP6uRWuVJdcQMzCOFutfHpA+LAQ
5xTTIKTBRcxxUchOldVYes09xovzeSSrjSEqqsWghAhpsX/mx9FGfjCu30EWqfta
4SwqNVSIB4NVxCe2tBTYQcGIHGf970fPeyYSYTFOqCFjawsTQUyq7pLXX9xSoW7x
+k1bGr1I+hrHA7njcHCtoXrnCjvWzOVBd0NlyZvGLwXvkIVhQKtJRWJZUJCkHDDR
JKWfr/bZ4qQ4G0KwG1x/MTBcI0/+D188A+AvfvXLxV8twhCmHPA0c4oHwTKrBQID
AQABo4G8MIG5MB0GA1UdDgQWBBT3pPgPwD583/AaouEtfvArd+x/9zAfBgNVHSME
GDAWgBTly6mhMn1L3/kxWg6aFRuOUlO0SjAOBgNVHQ8BAf8EBAMCBeAwEwYDVR0l
BAwwCgYIKwYBBQUHAwEwFwYDVR0RBBAwDocEfwAAAYIGc2VydmVyMDkGA1UdHwQy
MDAwLqAsoCqGKGh0dHA6Ly8xMjcuMC4wLjE6MjAwMDEvY2EzL2kxL2kxLmNybC5w
ZW0wDQYJKoZIhvcNAQELBQADggEBAIQPRZDfSvrjbNi+244CuyQDl4N8R7NtdXHz
liveDouZ628IHvX5v2o8/i2LZaXlilsQyxzr+1EeZXO2MIk4eGe9xnsD/B4voyx/
ITZbXZ3jKc9DVBB2xczzsETrunJpOPhnh5MeupgdMnpH1x9mB7412RTCqWIzvKLP
+qefumWP7zga7iI6/fSO+H33xYyflOkM4aRMCDhIEgN6t1f0pJwuQ7HLBlMEiTP/
IjkDjMP3Y/PgCpNBQGhizyVDId3momHPgEzAm2rWoi7dBI2u82wQCis2XXIYY0nj
YBKO8Z3q3Myo4JkyxXxs86YKFvZZBhsb3E6a6cvh7SLmIeKMjas=
-----END CERTIFICATE-----
