Certificate:
    Data:
        Version: 3 (0x2)
        Serial Number: 4098 (0x1002)
        Signature Algorithm: sha256WithRSAEncryption
        Issuer: C=US, ST=Florida, L=Jupiter, O=ZeroC, OU=Ice, CN=ZeroC Test CA 5/emailAddress=tests@zeroc.com
        Validity
            Not Before: Jun 25 15:10:11 2026 GMT
            Not After : Jul 28 15:10:11 2027 GMT
        Subject: CN=Client (Not Yet), C=US, ST=Florida, L=Jupiter, O=ZeroC, Inc., OU=Ice/emailAddress=info@zeroc.com
        Subject Public Key Info:
            Public Key Algorithm: rsaEncryption
                Public-Key: (2048 bit)
                Modulus:
                    00:e6:67:15:d8:50:c5:c3:8f:9f:09:68:38:d4:15:
                    86:b2:9a:7a:b5:e0:f6:c6:48:3d:fd:7d:0f:15:39:
                    cd:fe:da:2f:12:94:f7:17:3b:e9:65:61:80:79:c9:
                    63:c7:e9:01:14:c2:2c:ae:ca:33:bf:c1:4a:71:65:
                    c8:35:0d:98:6e:12:83:8c:5b:6d:2e:0a:c9:38:b0:
                    3a:52:77:4d:bc:d9:8c:35:92:56:ca:09:78:8e:6a:
                    f2:e7:f6:55:ad:e1:65:b9:1d:50:13:0b:37:82:0e:
                    4e:46:3e:e1:3c:e1:68:a8:92:51:7a:52:e8:cf:7d:
                    a7:23:5f:49:14:cf:a5:31:88:52:1b:ec:d6:c9:6b:
                    a2:eb:2e:cd:36:bb:6d:da:10:81:67:6d:b9:07:4e:
                    fe:6b:d4:71:c6:77:9e:10:18:81:73:a9:75:03:15:
                    b1:c4:eb:33:36:3b:f8:22:2d:a2:69:ef:c2:9b:c7:
                    13:94:f2:34:61:0a:4b:6b:a1:9b:86:e1:8a:68:10:
                    9f:65:1f:2e:5b:a8:43:53:69:c6:20:08:03:95:9c:
                    76:fd:90:ef:ab:42:8d:60:3e:5b:7a:24:5f:3e:c7:
                    72:84:54:a7:3e:34:19:51:de:92:ef:aa:bd:3a:fd:
                    f1:d3:11:6a:f2:4a:af:02:e2:a0:e1:ad:9c:c8:8e:
                    c4:a1
                Exponent: 65537 (0x10001)
        X509v3 extensions:
            X509v3 Subject Key Identifier: 
                C9:4B:5B:EA:40:27:ED:CD:6A:D4:21:9F:28:19:E9:F2:7C:60:E5:84
            X509v3 Authority Key Identifier: 
                46:9C:DE:6C:0E:F6:7A:68:36:C8:91:57:D3:47:DE:D9:30:CC:39:48
            X509v3 Key Usage: critical
                Digital Signature, Non Repudiation, Key Encipherment
            X509v3 Extended Key Usage: 
                TLS Web Client Authentication
            X509v3 Subject Alternative Name: 
                IP Address:127.0.0.1, DNS:client
    Signature Algorithm: sha256WithRSAEncryption
    Signature Value:
        82:af:1c:94:b8:81:b7:60:a5:74:46:be:99:ab:e3:b1:54:62:
        0d:c2:66:ce:d3:86:9d:1e:f0:88:71:5e:00:4b:76:6d:82:2b:
        ce:52:79:5a:3a:0a:ce:9d:81:cf:ad:cd:16:94:84:ee:66:f0:
        20:dd:86:a1:44:82:ed:b3:14:f9:7b:46:c3:c1:83:1a:63:db:
        1c:2e:06:28:c1:68:5d:50:86:6d:73:2c:0c:e2:22:30:5c:6c:
        06:72:a9:dc:4a:e9:7c:75:df:c0:87:67:72:b5:fa:e9:69:0c:
        8a:0b:5e:3d:55:2f:37:3e:1b:fa:7d:71:1e:7b:87:e7:a8:fb:
        b3:22:df:74:d1:bf:78:07:30:0f:07:02:63:75:78:53:66:73:
        a1:9b:be:f2:85:ba:5c:89:51:ca:c9:3e:3e:80:4a:19:a4:a6:
        0d:ea:a3:d6:1b:63:8a:a6:1b:2f:6a:19:cb:da:9a:ea:05:15:
        b6:37:be:74:fb:0d:b5:88:de:4a:6f:9c:3b:54:18:b5:91:df:
        91:88:5d:15:ac:0a:1b:a8:e7:ec:9c:f8:d9:64:fb:9b:7a:f7:
        67:73:5e:fc:23:ef:df:77:82:36:65:87:ca:c6:2c:fe:0c:5a:
        bf:d9:54:2b:07:f1:46:b4:f9:ed:aa:f4:11:4a:f9:a7:61:ea:
        38:38:5e:a7
-----BEGIN CERTIFICATE-----
MIIEFzCCAv+gAwIBAgICEAIwDQYJKoZIhvcNAQELBQAwgYkxCzAJBgNVBAYTAlVT
MRAwDgYDVQQIDAdGbG9yaWRhMRAwDgYDVQQHDAdKdXBpdGVyMQ4wDAYDVQQKDAVa
ZXJvQzEMMAoGA1UECwwDSWNlMRgwFgYDVQQDDA9aZXJvQyBUZXN0IENBIDUxHjAc
BgkqhkiG9w0BCQEWD3Rlc3RzQHplcm9jLmNvbTAeFw0yNjA2MjUxNTEwMTFaFw0y
NzA3MjgxNTEwMTFaMIGPMRkwFwYDVQQDDBBDbGllbnQgKE5vdCBZZXQpMQswCQYD
VQQGEwJVUzEQMA4GA1UECAwHRmxvcmlkYTEQMA4GA1UEBwwHSnVwaXRlcjEUMBIG
A1UECgwLWmVyb0MsIEluYy4xDDAKBgNVBAsMA0ljZTEdMBsGCSqGSIb3DQEJARYO
aW5mb0B6ZXJvYy5jb20wggEiMA0GCSqGSIb3DQEBAQUAA4IBDwAwggEKAoIBAQDm
ZxXYUMXDj58JaDjUFYaymnq14PbGSD39fQ8VOc3+2i8SlPcXO+llYYB5yWPH6QEU
wiyuyjO/wUpxZcg1DZhuEoOMW20uCsk4sDpSd0282Yw1klbKCXiOavLn9lWt4WW5
HVATCzeCDk5GPuE84WioklF6UujPfacjX0kUz6UxiFIb7NbJa6LrLs02u23aEIFn
bbkHTv5r1HHGd54QGIFzqXUDFbHE6zM2O/giLaJp78KbxxOU8jRhCktroZuG4Ypo
EJ9lHy5bqENTacYgCAOVnHb9kO+rQo1gPlt6JF8+x3KEVKc+NBlR3pLvqr06/fHT
EWrySq8C4qDhrZzIjsShAgMBAAGjgYAwfjAdBgNVHQ4EFgQUyUtb6kAn7c1q1CGf
KBnp8nxg5YQwHwYDVR0jBBgwFoAURpzebA72emg2yJFX00fe2TDMOUgwDgYDVR0P
AQH/BAQDAgXgMBMGA1UdJQQMMAoGCCsGAQUFBwMCMBcGA1UdEQQQMA6HBH8AAAGC
BmNsaWVudDANBgkqhkiG9w0BAQsFAAOCAQEAgq8clLiBt2CldEa+mavjsVRiDcJm
ztOGnR7wiHFeAEt2bYIrzlJ5WjoKzp2Bz63NFpSE7mbwIN2GoUSC7bMU+XtGw8GD
GmPbHC4GKMFoXVCGbXMsDOIiMFxsBnKp3ErpfHXfwIdncrX66WkMigtePVUvNz4b
+n1xHnuH56j7syLfdNG/eAcwDwcCY3V4U2ZzoZu+8oW6XIlRysk+PoBKGaSmDeqj
1htjiqYbL2oZy9qa6gUVtje+dPsNtYjeSm+cO1QYtZHfkYhdFawKG6jn7Jz42WT7
m3r3Z3Ne/CPv33eCNmWHysYs/gxav9lUKwfxRrT57ar0EUr5p2HqODhepw==
-----END CERTIFICATE-----
