Certificate:
    Data:
        Version: 3 (0x2)
        Serial Number: 4099 (0x1003)
        Signature Algorithm: sha256WithRSAEncryption
        Issuer: C=US, ST=Florida, L=Jupiter, O=ZeroC, OU=Ice, CN=ZeroC Test CA 5/emailAddress=tests@zeroc.com
        Validity
            Not Before: Apr 18 16:16:05 2024 GMT
            Not After : May 21 16:16:05 2025 GMT
        Subject: CN=Client (Expired), C=US, ST=Florida, L=Jupiter, O=ZeroC, Inc., OU=Ice/emailAddress=info@zeroc.com
        Subject Public Key Info:
            Public Key Algorithm: rsaEncryption
                Public-Key: (2048 bit)
                Modulus:
                    00:ee:c4:68:c6:53:94:43:83:b4:77:1e:fb:c5:8b:
                    9f:11:21:6f:77:77:61:fb:d5:68:87:b2:16:9a:99:
                    c7:9f:77:1b:a7:80:b9:bc:93:55:6f:52:0b:5b:ce:
                    39:4e:78:57:a2:28:16:5c:3b:c7:13:3a:79:ef:c8:
                    b5:13:5c:c7:be:cf:30:f8:e6:81:1b:4b:68:c9:e8:
                    12:ba:4a:59:db:1c:12:08:35:8c:a1:db:51:44:c0:
                    53:45:84:62:db:d2:0e:48:8d:cc:8a:ca:d6:f2:fb:
                    d1:1c:19:fa:44:7f:4d:07:a7:34:5d:1f:f7:8c:98:
                    ad:44:2d:1c:ce:e9:04:a5:fd:89:4e:3f:4d:de:1b:
                    18:a6:ed:a4:ea:bc:da:dd:5e:e2:57:12:17:e7:20:
                    93:47:29:4e:62:7e:44:78:d8:a9:10:ff:6d:0b:6b:
                    12:34:60:02:69:a9:c1:b0:b2:4e:44:bc:b2:e5:88:
                    80:dc:e7:18:53:fa:a2:54:b0:ec:e1:dc:7d:eb:14:
                    64:6c:05:b8:58:87:3a:c1:f8:ab:2d:e0:13:d3:04:
                    65:6f:00:fe:1d:71:b4:33:47:3b:2a:55:f9:3e:aa:
                    34:a3:74:1c:ed:ef:51:b1:c5:5b:9a:7c:e1:01:02:
                    52:e3:5b:2a:e7:09:63:db:f9:65:2e:88:e2:4a:63:
                    01:39
                Exponent: 65537 (0x10001)
        X509v3 extensions:
            X509v3 Subject Key Identifier: 
                71:B3:14:F9:61:96:A1:FB:6C:B4:19:5D:FF:2A:95:E5:C3:49:C3:B9
            X509v3 Authority Key Identifier: 
                E1:B5:36:FD:16:CC:5E:39:07:0F:5F:E7:30:76:98:A7:FA:E4:D3:88
            X509v3 Key Usage: critical
                Digital Signature, Non Repudiation, Key Encipherment
            X509v3 Extended Key Usage: 
                TLS Web Client Authentication
            X509v3 Subject Alternative Name: 
                IP Address:127.0.0.1, DNS:client
    Signature Algorithm: sha256WithRSAEncryption
    Signature Value:
        ab:dd:ce:ef:05:65:72:0c:bc:54:09:2c:33:5f:82:8d:5b:4d:
        9f:2a:dc:ac:e5:26:79:18:40:50:1a:4e:27:d1:24:ae:2e:88:
        0a:db:a0:f0:be:c6:0a:e7:85:59:59:2b:e4:5b:da:c9:22:af:
        68:cf:68:5e:07:6f:c6:c1:63:45:ea:a1:96:92:2a:d4:5c:bc:
        65:02:3b:e4:5e:1e:04:b1:80:f5:69:79:f6:55:c5:1b:be:ba:
        0d:e2:93:5c:61:57:d2:78:c4:c2:f2:1b:99:ce:1d:1e:09:c0:
        ba:80:88:f0:7b:4a:b2:5c:b6:18:6a:a0:85:64:52:a3:5e:c8:
        a8:11:b1:80:bf:af:93:bc:3c:09:c6:72:5e:05:28:5e:75:05:
        0c:e2:86:36:19:34:fd:c5:a7:ab:38:5f:14:56:9e:9c:b0:ce:
        b4:11:08:14:25:11:7e:3c:6c:3a:4b:b9:5a:42:13:73:80:73:
        da:41:cf:94:5f:4e:d1:75:b7:f2:17:af:94:95:a1:ad:1b:f0:
        32:ec:05:dd:3c:92:0f:d2:47:a4:2a:19:fd:71:40:a7:37:99:
        fc:29:cd:e1:67:4a:50:56:48:d0:00:17:3c:30:23:d0:00:b3:
        5f:5b:1c:c1:8f:72:1d:3c:01:33:54:f7:9a:ec:02:e1:81:b1:
        91:f1:ff:51
-----BEGIN CERTIFICATE-----
MIIEFzCCAv+gAwIBAgICEAMwDQYJKoZIhvcNAQELBQAwgYkxCzAJBgNVBAYTAlVT
MRAwDgYDVQQIDAdGbG9yaWRhMRAwDgYDVQQHDAdKdXBpdGVyMQ4wDAYDVQQKDAVa
ZXJvQzEMMAoGA1UECwwDSWNlMRgwFgYDVQQDDA9aZXJvQyBUZXN0IENBIDUxHjAc
BgkqhkiG9w0BCQEWD3Rlc3RzQHplcm9jLmNvbTAeFw0yNDA0MTgxNjE2MDVaFw0y
NTA1MjExNjE2MDVaMIGPMRkwFwYDVQQDDBBDbGllbnQgKEV4cGlyZWQpMQswCQYD
VQQGEwJVUzEQMA4GA1UECAwHRmxvcmlkYTEQMA4GA1UEBwwHSnVwaXRlcjEUMBIG
A1UECgwLWmVyb0MsIEluYy4xDDAKBgNVBAsMA0ljZTEdMBsGCSqGSIb3DQEJARYO
aW5mb0B6ZXJvYy5jb20wggEiMA0GCSqGSIb3DQEBAQUAA4IBDwAwggEKAoIBAQDu
xGjGU5RDg7R3HvvFi58RIW93d2H71WiHshaamcefdxungLm8k1VvUgtbzjlOeFei
KBZcO8cTOnnvyLUTXMe+zzD45oEbS2jJ6BK6SlnbHBIINYyh21FEwFNFhGLb0g5I
jcyKytby+9EcGfpEf00HpzRdH/eMmK1ELRzO6QSl/YlOP03eGxim7aTqvNrdXuJX
EhfnIJNHKU5ifkR42KkQ/20LaxI0YAJpqcGwsk5EvLLliIDc5xhT+qJUsOzh3H3r
FGRsBbhYhzrB+Kst4BPTBGVvAP4dcbQzRzsqVfk+qjSjdBzt71GxxVuafOEBAlLj
WyrnCWPb+WUuiOJKYwE5AgMBAAGjgYAwfjAdBgNVHQ4EFgQUcbMU+WGWoftstBld
/yqV5cNJw7kwHwYDVR0jBBgwFoAU4bU2/RbMXjkHD1/nMHaYp/rk04gwDgYDVR0P
AQH/BAQDAgXgMBMGA1UdJQQMMAoGCCsGAQUFBwMCMBcGA1UdEQQQMA6HBH8AAAGC
BmNsaWVudDANBgkqhkiG9w0BAQsFAAOCAQEAq93O7wVlcgy8VAksM1+CjVtNnyrc
rOUmeRhAUBpOJ9Ekri6ICtug8L7GCueFWVkr5FvaySKvaM9oXgdvxsFjReqhlpIq
1Fy8ZQI75F4eBLGA9Wl59lXFG766DeKTXGFX0njEwvIbmc4dHgnAuoCI8HtKsly2
GGqghWRSo17IqBGxgL+vk7w8CcZyXgUoXnUFDOKGNhk0/cWnqzhfFFaenLDOtBEI
FCURfjxsOku5WkITc4Bz2kHPlF9O0XW38hevlJWhrRvwMuwF3TySD9JHpCoZ/XFA
pzeZ/CnN4WdKUFZI0AAXPDAj0ACzX1scwY9yHTwBM1T3muwC4YGxkfH/UQ==
-----END CERTIFICATE-----
