Certificate:
    Data:
        Version: 3 (0x2)
        Serial Number: 4101 (0x1005)
        Signature Algorithm: sha256WithRSAEncryption
        Issuer: C=US, ST=Florida, L=Jupiter, O=ZeroC, OU=Ice, CN=ZeroC Test CA 5/emailAddress=tests@zeroc.com
        Validity
            Not Before: Apr 18 15:10:16 2024 GMT
            Not After : May 21 15:10:16 2025 GMT
        Subject: CN=Server (Expired), C=US, ST=Florida, L=Jupiter, O=ZeroC, Inc., OU=Ice/emailAddress=info@zeroc.com
        Subject Public Key Info:
            Public Key Algorithm: rsaEncryption
                Public-Key: (2048 bit)
                Modulus:
                    00:c0:eb:43:80:d5:bd:8b:e3:5d:c7:09:d2:97:4d:
                    f4:b2:3c:87:e4:44:5b:50:96:bb:87:d5:3a:12:57:
                    a8:2f:76:30:8b:3c:f4:48:e7:ed:fd:0e:ff:ce:97:
                    86:81:a7:8e:14:2d:ea:fe:fa:03:c6:7e:73:92:95:
                    e7:96:4f:ba:f1:23:97:ac:a9:12:c2:73:87:3d:8e:
                    a1:d4:aa:26:ef:61:91:d3:69:a4:f8:40:a9:82:dd:
                    66:d8:9b:09:ab:c3:65:b2:42:ad:06:f4:19:73:d9:
                    07:65:8d:8c:41:87:0b:eb:8a:ce:2e:04:ef:e5:0f:
                    2f:c5:56:93:63:8d:b5:d7:25:ae:8f:e9:dd:1b:ec:
                    fd:0a:7e:cf:0b:e9:d6:d3:06:bf:02:aa:8d:ea:bb:
                    52:b9:a5:f6:92:16:00:49:54:ba:00:ba:09:ce:2d:
                    a6:b1:d8:15:39:fd:c0:43:ab:b6:1d:c8:48:f3:06:
                    75:c5:75:8f:ca:5e:07:22:67:60:5c:a5:3b:ab:b4:
                    59:95:90:16:b4:0e:46:44:65:0b:6d:23:2e:5b:e0:
                    01:48:27:a3:1f:3c:15:37:9c:d5:d4:27:d4:b6:09:
                    86:9e:2b:c4:8f:86:79:a5:35:f0:5e:d7:0d:ab:2a:
                    d2:bb:bd:fa:03:91:eb:bd:9b:e5:e5:a0:ac:24:a7:
                    7c:0f
                Exponent: 65537 (0x10001)
        X509v3 extensions:
            X509v3 Subject Key Identifier: 
                91:CA:41:09:FC:77:D0:C9:78:21:D9:77:3B:EE:49:E2:3E:A8:EE:96
            X509v3 Authority Key Identifier: 
                46:9C:DE:6C:0E:F6:7A:68:36:C8:91:57:D3:47:DE:D9:30:CC:39:48
            X509v3 Key Usage: critical
                Digital Signature, Non Repudiation, Key Encipherment
            X509v3 Extended Key Usage: 
                TLS Web Server Authentication
            X509v3 Subject Alternative Name: 
                IP Address:127.0.0.1, DNS:server
    Signature Algorithm: sha256WithRSAEncryption
    Signature Value:
        1d:c8:6e:29:7d:3b:e6:ae:93:b6:f5:bd:68:4a:17:70:1c:c2:
        22:47:aa:4d:69:ed:25:40:ff:bb:54:6d:54:67:d4:5b:a6:5e:
        3b:83:2a:c5:b9:c0:36:6a:66:71:b8:06:7a:37:a5:4f:eb:9d:
        5c:4c:00:44:f2:fb:2f:71:d6:46:b5:95:f3:9e:36:bc:ad:d4:
        f0:31:1f:dc:1e:c6:5c:86:a4:e6:6f:a4:a6:4d:b5:2a:10:91:
        fd:3d:c4:f4:43:d5:8e:cd:cd:76:fe:32:8d:73:71:32:fa:5c:
        3c:c6:b6:49:f7:de:c0:73:d0:f4:d6:fa:29:e2:05:b7:bc:56:
        c5:03:8f:fe:83:0e:01:4f:b8:99:41:bb:f1:ca:b4:1d:ff:22:
        31:35:e8:77:83:87:b5:8c:3b:e9:13:97:76:d5:92:cd:e2:50:
        40:a8:97:db:3e:8b:03:3e:ae:0d:01:54:9a:4f:fc:40:5f:23:
        7d:1e:c0:e4:07:06:b2:7d:e7:33:50:4f:63:6a:fc:1e:7d:54:
        e2:44:ac:80:2f:53:e7:46:77:a4:d1:91:38:b6:af:7f:32:06:
        d0:2d:c8:cf:27:f9:7f:d2:14:95:65:85:5f:05:07:c1:ef:c2:
        7f:43:59:ca:73:a2:17:62:3a:ef:c6:96:9a:bc:69:14:ed:37:
        44:d7:e1:d5
-----BEGIN CERTIFICATE-----
MIIEFzCCAv+gAwIBAgICEAUwDQYJKoZIhvcNAQELBQAwgYkxCzAJBgNVBAYTAlVT
MRAwDgYDVQQIDAdGbG9yaWRhMRAwDgYDVQQHDAdKdXBpdGVyMQ4wDAYDVQQKDAVa
ZXJvQzEMMAoGA1UECwwDSWNlMRgwFgYDVQQDDA9aZXJvQyBUZXN0IENBIDUxHjAc
BgkqhkiG9w0BCQEWD3Rlc3RzQHplcm9jLmNvbTAeFw0yNDA0MTgxNTEwMTZaFw0y
NTA1MjExNTEwMTZaMIGPMRkwFwYDVQQDDBBTZXJ2ZXIgKEV4cGlyZWQpMQswCQYD
VQQGEwJVUzEQMA4GA1UECAwHRmxvcmlkYTEQMA4GA1UEBwwHSnVwaXRlcjEUMBIG
A1UECgwLWmVyb0MsIEluYy4xDDAKBgNVBAsMA0ljZTEdMBsGCSqGSIb3DQEJARYO
aW5mb0B6ZXJvYy5jb20wggEiMA0GCSqGSIb3DQEBAQUAA4IBDwAwggEKAoIBAQDA
60OA1b2L413HCdKXTfSyPIfkRFtQlruH1ToSV6gvdjCLPPRI5+39Dv/Ol4aBp44U
Ler++gPGfnOSleeWT7rxI5esqRLCc4c9jqHUqibvYZHTaaT4QKmC3WbYmwmrw2Wy
Qq0G9Blz2QdljYxBhwvris4uBO/lDy/FVpNjjbXXJa6P6d0b7P0Kfs8L6dbTBr8C
qo3qu1K5pfaSFgBJVLoAugnOLaax2BU5/cBDq7YdyEjzBnXFdY/KXgciZ2BcpTur
tFmVkBa0DkZEZQttIy5b4AFIJ6MfPBU3nNXUJ9S2CYaeK8SPhnmlNfBe1w2rKtK7
vfoDkeu9m+XloKwkp3wPAgMBAAGjgYAwfjAdBgNVHQ4EFgQUkcpBCfx30Ml4Idl3
O+5J4j6o7pYwHwYDVR0jBBgwFoAURpzebA72emg2yJFX00fe2TDMOUgwDgYDVR0P
AQH/BAQDAgXgMBMGA1UdJQQMMAoGCCsGAQUFBwMBMBcGA1UdEQQQMA6HBH8AAAGC
BnNlcnZlcjANBgkqhkiG9w0BAQsFAAOCAQEAHchuKX075q6TtvW9aEoXcBzCIkeq
TWntJUD/u1RtVGfUW6ZeO4MqxbnANmpmcbgGejelT+udXEwARPL7L3HWRrWV8542
vK3U8DEf3B7GXIak5m+kpk21KhCR/T3E9EPVjs3Ndv4yjXNxMvpcPMa2SffewHPQ
9Nb6KeIFt7xWxQOP/oMOAU+4mUG78cq0Hf8iMTXod4OHtYw76ROXdtWSzeJQQKiX
2z6LAz6uDQFUmk/8QF8jfR7A5AcGsn3nM1BPY2r8Hn1U4kSsgC9T50Z3pNGROLav
fzIG0C3Izyf5f9IUlWWFXwUHwe/Cf0NZynOiF2I678aWmrxpFO03RNfh1Q==
-----END CERTIFICATE-----
