Certificate:
    Data:
        Version: 3 (0x2)
        Serial Number: 4100 (0x1004)
        Signature Algorithm: sha256WithRSAEncryption
        Issuer: C=US, ST=Florida, L=Jupiter, O=ZeroC, OU=Ice, CN=ZeroC Test CA 5/emailAddress=tests@zeroc.com
        Validity
            Not Before: Jun 25 16:55:15 2026 GMT
            Not After : Jul 28 16:55:15 2027 GMT
        Subject: CN=Server (Not Yet), C=US, ST=Florida, L=Jupiter, O=ZeroC, Inc., OU=Ice/emailAddress=info@zeroc.com
        Subject Public Key Info:
            Public Key Algorithm: rsaEncryption
                Public-Key: (2048 bit)
                Modulus:
                    00:cf:54:ce:6d:33:9d:75:df:57:82:95:5e:c8:cc:
                    0f:9f:82:38:54:91:ae:ff:88:c5:09:16:fb:8c:7b:
                    73:20:84:ed:0f:69:5a:9f:65:59:7d:97:e6:59:fc:
                    43:e2:ef:b5:53:45:0d:54:0a:0b:a0:2a:68:da:07:
                    3a:eb:9d:1a:78:1d:55:e8:b7:01:f1:85:e7:f4:df:
                    09:f3:ec:90:2d:33:3e:6c:71:e3:28:e3:87:1d:56:
                    15:ce:b1:fc:39:5d:57:68:e3:eb:a8:86:aa:a5:c3:
                    7d:14:d8:41:cd:5c:9b:1b:4b:8f:3c:8a:9c:27:b3:
                    00:58:18:01:1b:6e:a0:c9:89:5f:9b:1b:bc:3f:b9:
                    37:07:c4:93:8d:84:4e:40:23:fe:e6:fc:cb:0b:ca:
                    73:79:42:b0:c4:a7:0f:f5:85:d0:26:f1:5c:09:77:
                    52:e9:99:5e:a4:e2:65:50:64:ca:3a:bd:c5:16:b9:
                    78:11:e7:98:cd:5e:c0:f7:c3:b1:75:68:91:41:9a:
                    88:5d:c7:f4:5d:0f:40:29:7b:45:56:b3:59:c5:16:
                    47:21:95:90:bf:dc:d6:74:80:a5:a8:09:8b:b1:9c:
                    0d:56:be:db:87:37:19:1f:8e:59:b1:12:4c:21:7c:
                    de:52:c5:4b:55:bd:0b:15:a0:66:94:7d:20:91:06:
                    94:e9
                Exponent: 65537 (0x10001)
        X509v3 extensions:
            X509v3 Subject Key Identifier: 
                88:60:C1:F5:FC:62:B6:A7:30:C4:07:0B:2F:4C:AB:AE:1B:B6:84:42
            X509v3 Authority Key Identifier: 
                A3:84:1E:A0:10:DD:38:95:DB:BA:EC:06:EB:70:54:FE:B0:84:98:CB
            X509v3 Key Usage: critical
                Digital Signature, Non Repudiation, Key Encipherment
            X509v3 Extended Key Usage: 
                TLS Web Server Authentication
            X509v3 Subject Alternative Name: 
                IP Address:127.0.0.1, DNS:server
    Signature Algorithm: sha256WithRSAEncryption
    Signature Value:
        07:9c:3b:f7:72:74:e9:79:ce:c9:2a:93:9e:35:33:fb:75:57:
        38:d1:f9:ac:73:06:ec:f3:c9:5f:58:79:67:7f:cc:a8:54:34:
        ef:63:a0:2e:ff:b4:3f:8e:19:37:79:ee:98:02:55:bb:6f:e0:
        3c:af:3b:ac:15:34:ab:a5:f2:3d:17:52:8a:24:04:64:f4:77:
        8a:cc:1e:db:a2:c8:88:6d:20:26:1e:3e:f8:be:4a:a5:9e:be:
        7b:17:c5:bc:8f:71:8b:c9:20:3b:db:92:94:8a:b1:8d:94:e4:
        06:16:b6:80:1e:3f:8d:cd:66:e0:de:52:58:3e:1a:d3:33:24:
        4c:83:ec:7f:68:64:5f:25:68:c0:74:06:cc:f8:d3:1c:99:45:
        4e:8c:8d:7e:bb:85:77:c9:e3:b5:34:0a:1a:25:a8:b5:c8:fb:
        29:95:0c:f4:5d:32:76:17:18:c8:90:24:83:cd:49:2c:1c:cb:
        63:1e:88:77:9d:b5:c1:76:c1:ee:23:48:6e:4c:15:0b:1e:9d:
        b4:d9:1f:61:2a:3e:05:ce:12:c2:1c:82:e0:ad:44:e0:b6:fb:
        4e:35:8e:d4:36:a3:eb:49:60:de:e6:25:ae:4c:76:f0:7f:50:
        de:62:99:fb:62:7d:e1:61:c0:b9:d2:7f:e0:a8:d0:0a:55:52:
        f0:70:e7:aa
-----BEGIN CERTIFICATE-----
MIIEFzCCAv+gAwIBAgICEAQwDQYJKoZIhvcNAQELBQAwgYkxCzAJBgNVBAYTAlVT
MRAwDgYDVQQIDAdGbG9yaWRhMRAwDgYDVQQHDAdKdXBpdGVyMQ4wDAYDVQQKDAVa
ZXJvQzEMMAoGA1UECwwDSWNlMRgwFgYDVQQDDA9aZXJvQyBUZXN0IENBIDUxHjAc
BgkqhkiG9w0BCQEWD3Rlc3RzQHplcm9jLmNvbTAeFw0yNjA2MjUxNjU1MTVaFw0y
NzA3MjgxNjU1MTVaMIGPMRkwFwYDVQQDDBBTZXJ2ZXIgKE5vdCBZZXQpMQswCQYD
VQQGEwJVUzEQMA4GA1UECAwHRmxvcmlkYTEQMA4GA1UEBwwHSnVwaXRlcjEUMBIG
A1UECgwLWmVyb0MsIEluYy4xDDAKBgNVBAsMA0ljZTEdMBsGCSqGSIb3DQEJARYO
aW5mb0B6ZXJvYy5jb20wggEiMA0GCSqGSIb3DQEBAQUAA4IBDwAwggEKAoIBAQDP
VM5tM51131eClV7IzA+fgjhUka7/iMUJFvuMe3MghO0PaVqfZVl9l+ZZ/EPi77VT
RQ1UCgugKmjaBzrrnRp4HVXotwHxhef03wnz7JAtMz5sceMo44cdVhXOsfw5XVdo
4+uohqqlw30U2EHNXJsbS488ipwnswBYGAEbbqDJiV+bG7w/uTcHxJONhE5AI/7m
/MsLynN5QrDEpw/1hdAm8VwJd1LpmV6k4mVQZMo6vcUWuXgR55jNXsD3w7F1aJFB
mohdx/RdD0Ape0VWs1nFFkchlZC/3NZ0gKWoCYuxnA1WvtuHNxkfjlmxEkwhfN5S
xUtVvQsVoGaUfSCRBpTpAgMBAAGjgYAwfjAdBgNVHQ4EFgQUiGDB9fxitqcwxAcL
L0yrrhu2hEIwHwYDVR0jBBgwFoAUo4QeoBDdOJXbuuwG63BU/rCEmMswDgYDVR0P
AQH/BAQDAgXgMBMGA1UdJQQMMAoGCCsGAQUFBwMBMBcGA1UdEQQQMA6HBH8AAAGC
BnNlcnZlcjANBgkqhkiG9w0BAQsFAAOCAQEAB5w793J06XnOySqTnjUz+3VXONH5
rHMG7PPJX1h5Z3/MqFQ072OgLv+0P44ZN3numAJVu2/gPK87rBU0q6XyPRdSiiQE
ZPR3iswe26LIiG0gJh4++L5KpZ6+exfFvI9xi8kgO9uSlIqxjZTkBha2gB4/jc1m
4N5SWD4a0zMkTIPsf2hkXyVowHQGzPjTHJlFToyNfruFd8njtTQKGiWotcj7KZUM
9F0ydhcYyJAkg81JLBzLYx6Id521wXbB7iNIbkwVCx6dtNkfYSo+Bc4SwhyC4K1E
4Lb7TjWO1Daj60lg3uYlrkx28H9Q3mKZ+2J94WHAudJ/4KjQClVS8HDnqg==
-----END CERTIFICATE-----
