Certificate:
    Data:
        Version: 3 (0x2)
        Serial Number: 4100 (0x1004)
        Signature Algorithm: sha256WithRSAEncryption
        Issuer: C=US, ST=Florida, L=Jupiter, O=ZeroC, OU=Ice, CN=ZeroC Test CA 5/emailAddress=tests@zeroc.com
        Validity
            Not Before: Jun 25 15:10:16 2026 GMT
            Not After : Jul 28 15:10:16 2027 GMT
        Subject: CN=Server (Not Yet), C=US, ST=Florida, L=Jupiter, O=ZeroC, Inc., OU=Ice/emailAddress=info@zeroc.com
        Subject Public Key Info:
            Public Key Algorithm: rsaEncryption
                Public-Key: (2048 bit)
                Modulus:
                    00:ee:03:56:45:e5:d5:a2:db:b6:b7:73:dd:65:51:
                    1c:dd:53:69:c9:73:b2:99:8d:fc:38:af:38:5f:76:
                    36:2a:ed:9e:ce:95:85:fa:ea:59:20:9a:21:72:eb:
                    88:fc:c5:12:17:02:d3:9c:1f:6b:cd:66:4a:79:09:
                    09:73:46:eb:08:06:f0:c0:1c:a8:13:a8:0e:17:3e:
                    e2:2e:b2:04:e0:44:87:29:f7:2a:21:15:54:a8:7e:
                    c0:84:4a:c4:8d:06:ed:ab:0a:27:c8:a3:54:51:97:
                    41:6d:90:c3:28:11:29:6c:44:3d:ae:aa:62:2f:9d:
                    6f:13:36:b2:de:90:04:b0:e6:97:83:b9:ef:38:ff:
                    a6:96:6b:fa:56:b8:14:29:75:b9:bb:49:1c:bf:70:
                    19:eb:90:cd:60:7b:91:fa:52:21:fe:8b:37:27:16:
                    85:8c:30:ea:8b:95:75:ea:1f:31:80:56:d2:05:2d:
                    04:da:c1:3c:8f:3c:5d:95:17:6d:9d:e0:27:91:4f:
                    c3:0d:aa:08:e4:88:32:c2:15:db:de:19:43:54:55:
                    7b:f9:fb:70:1a:26:f2:79:fe:58:ac:98:c8:9e:80:
                    29:2b:27:73:1b:b0:f8:9d:d9:a3:93:3b:01:b1:b5:
                    83:af:e3:6f:6f:af:c0:0e:57:11:6c:62:ff:43:5f:
                    25:ff
                Exponent: 65537 (0x10001)
        X509v3 extensions:
            X509v3 Subject Key Identifier: 
                AB:58:60:1A:C9:35:EA:2C:5D:AA:BD:73:8B:6C:FF:6E:E6:5C:CA:63
            X509v3 Authority Key Identifier: 
                46:9C:DE:6C:0E:F6:7A:68:36:C8:91:57:D3:47:DE:D9:30:CC:39:48
            X509v3 Key Usage: critical
                Digital Signature, Non Repudiation, Key Encipherment
            X509v3 Extended Key Usage: 
                TLS Web Server Authentication
            X509v3 Subject Alternative Name: 
                IP Address:127.0.0.1, DNS:server
    Signature Algorithm: sha256WithRSAEncryption
    Signature Value:
        7d:47:f7:c5:c1:09:99:a4:c8:a3:5b:ea:70:82:dd:da:23:cb:
        da:ae:b6:c3:18:ee:c8:cc:93:d9:6b:77:86:3b:05:a1:78:74:
        c4:50:54:ac:24:e8:a0:dc:a8:e7:6f:e9:a8:9c:b1:be:3d:0e:
        b4:9e:2e:41:0e:00:bf:32:d3:4d:33:92:82:bb:e8:3a:6f:99:
        97:a5:a0:2b:07:fb:9c:05:6e:7d:5c:c2:d6:52:e6:32:d6:0a:
        4c:af:84:99:14:3e:01:4e:e5:7e:c3:e2:e7:cc:b9:98:83:b4:
        aa:95:71:6e:1d:c4:7a:19:e7:32:ca:52:a9:67:ed:2f:5c:70:
        7b:56:8e:4a:c5:40:49:ae:e6:0a:2e:0c:79:1b:0e:75:a1:80:
        f5:4e:6b:4c:4e:8b:af:43:aa:cd:70:76:f6:21:20:ff:58:9c:
        c4:a2:a2:46:f0:fe:f0:35:37:bb:e4:d2:a7:b6:7d:4b:5b:fd:
        e1:da:0e:f7:92:f0:12:a7:2a:38:cd:39:f5:d4:1e:1f:8f:44:
        be:db:e6:11:65:88:97:90:21:d7:80:b2:47:34:de:f3:0a:b7:
        14:15:4d:6a:98:e1:ad:48:c1:8b:b9:4e:62:54:80:00:2c:6a:
        70:c7:2c:4e:61:f5:8e:86:bb:b0:f1:a3:fc:94:6a:81:18:d4:
        2f:c6:9c:2d
-----BEGIN CERTIFICATE-----
MIIEFzCCAv+gAwIBAgICEAQwDQYJKoZIhvcNAQELBQAwgYkxCzAJBgNVBAYTAlVT
MRAwDgYDVQQIDAdGbG9yaWRhMRAwDgYDVQQHDAdKdXBpdGVyMQ4wDAYDVQQKDAVa
ZXJvQzEMMAoGA1UECwwDSWNlMRgwFgYDVQQDDA9aZXJvQyBUZXN0IENBIDUxHjAc
BgkqhkiG9w0BCQEWD3Rlc3RzQHplcm9jLmNvbTAeFw0yNjA2MjUxNTEwMTZaFw0y
NzA3MjgxNTEwMTZaMIGPMRkwFwYDVQQDDBBTZXJ2ZXIgKE5vdCBZZXQpMQswCQYD
VQQGEwJVUzEQMA4GA1UECAwHRmxvcmlkYTEQMA4GA1UEBwwHSnVwaXRlcjEUMBIG
A1UECgwLWmVyb0MsIEluYy4xDDAKBgNVBAsMA0ljZTEdMBsGCSqGSIb3DQEJARYO
aW5mb0B6ZXJvYy5jb20wggEiMA0GCSqGSIb3DQEBAQUAA4IBDwAwggEKAoIBAQDu
A1ZF5dWi27a3c91lURzdU2nJc7KZjfw4rzhfdjYq7Z7OlYX66lkgmiFy64j8xRIX
AtOcH2vNZkp5CQlzRusIBvDAHKgTqA4XPuIusgTgRIcp9yohFVSofsCESsSNBu2r
CifIo1RRl0FtkMMoESlsRD2uqmIvnW8TNrLekASw5peDue84/6aWa/pWuBQpdbm7
SRy/cBnrkM1ge5H6UiH+izcnFoWMMOqLlXXqHzGAVtIFLQTawTyPPF2VF22d4CeR
T8MNqgjkiDLCFdveGUNUVXv5+3AaJvJ5/lismMiegCkrJ3MbsPid2aOTOwGxtYOv
429vr8AOVxFsYv9DXyX/AgMBAAGjgYAwfjAdBgNVHQ4EFgQUq1hgGsk16ixdqr1z
i2z/buZcymMwHwYDVR0jBBgwFoAURpzebA72emg2yJFX00fe2TDMOUgwDgYDVR0P
AQH/BAQDAgXgMBMGA1UdJQQMMAoGCCsGAQUFBwMBMBcGA1UdEQQQMA6HBH8AAAGC
BnNlcnZlcjANBgkqhkiG9w0BAQsFAAOCAQEAfUf3xcEJmaTIo1vqcILd2iPL2q62
wxjuyMyT2Wt3hjsFoXh0xFBUrCTooNyo52/pqJyxvj0OtJ4uQQ4AvzLTTTOSgrvo
Om+Zl6WgKwf7nAVufVzC1lLmMtYKTK+EmRQ+AU7lfsPi58y5mIO0qpVxbh3Eehnn
MspSqWftL1xwe1aOSsVASa7mCi4MeRsOdaGA9U5rTE6Lr0OqzXB29iEg/1icxKKi
RvD+8DU3u+TSp7Z9S1v94doO95LwEqcqOM059dQeH49EvtvmEWWIl5Ah14CyRzTe
8wq3FBVNapjhrUjBi7lOYlSAACxqcMcsTmH1joa7sPGj/JRqgRjUL8acLQ==
-----END CERTIFICATE-----
