Certificate:
    Data:
        Version: 3 (0x2)
        Serial Number: 4101 (0x1005)
        Signature Algorithm: sha256WithRSAEncryption
        Issuer: C=US, ST=Florida, L=Jupiter, O=ZeroC, OU=Ice, CN=ZeroC Test CA 5/emailAddress=tests@zeroc.com
        Validity
            Not Before: Apr 18 16:16:11 2024 GMT
            Not After : May 21 16:16:11 2025 GMT
        Subject: CN=Server (Expired), C=US, ST=Florida, L=Jupiter, O=ZeroC, Inc., OU=Ice/emailAddress=info@zeroc.com
        Subject Public Key Info:
            Public Key Algorithm: rsaEncryption
                Public-Key: (2048 bit)
                Modulus:
                    00:c1:c9:98:fb:b9:b5:e7:d6:22:d6:17:62:e2:75:
                    2b:26:e8:bb:aa:36:2c:67:4b:63:07:d3:c5:3d:ac:
                    bf:b8:69:51:5a:f0:e7:7d:4d:98:6b:3c:a2:17:78:
                    f5:c4:5c:9e:e9:6e:24:b3:44:07:76:e0:b8:5a:53:
                    83:c8:a5:e4:49:40:4c:f9:fc:7c:6f:4f:78:bb:d8:
                    26:28:77:93:51:df:3b:62:50:47:3e:a1:1d:a0:6f:
                    db:a1:a5:59:75:8a:cf:9f:aa:90:52:5b:92:ab:57:
                    c9:91:04:46:6d:c3:3e:8e:a0:35:04:fd:ed:6d:ad:
                    f8:d3:a0:5c:de:a2:d6:44:6f:62:35:2a:cf:dd:07:
                    ca:65:47:36:ee:ea:df:70:8f:7a:e3:8e:7b:06:c5:
                    45:33:56:7b:b5:ec:db:b9:80:f4:4b:83:54:a5:21:
                    a1:05:52:d1:de:a8:09:84:57:99:18:43:a4:29:ba:
                    56:fa:be:1d:bc:92:cc:70:e0:c8:8f:95:ec:da:93:
                    be:e8:9c:7a:77:e7:23:cc:e9:49:ab:b5:41:bc:08:
                    0d:f7:88:f1:4a:92:88:7c:45:e7:fe:c2:03:f3:91:
                    2f:37:71:6c:45:b3:6e:26:0e:3e:38:63:54:3d:79:
                    71:ef:03:7d:a9:8c:8c:a1:42:71:24:eb:63:32:3f:
                    63:3b
                Exponent: 65537 (0x10001)
        X509v3 extensions:
            X509v3 Subject Key Identifier: 
                3B:EE:78:F5:73:71:1E:65:E1:BD:B1:CD:A2:07:85:5F:46:1C:23:7F
            X509v3 Authority Key Identifier: 
                E1:B5:36:FD:16:CC:5E:39:07:0F:5F:E7:30:76:98:A7:FA:E4:D3:88
            X509v3 Key Usage: critical
                Digital Signature, Non Repudiation, Key Encipherment
            X509v3 Extended Key Usage: 
                TLS Web Server Authentication
            X509v3 Subject Alternative Name: 
                IP Address:127.0.0.1, DNS:server
    Signature Algorithm: sha256WithRSAEncryption
    Signature Value:
        56:6d:8a:04:d8:4d:65:17:b2:89:14:04:d5:0e:30:26:c3:5b:
        81:34:c2:f6:51:96:b1:ab:d5:2f:90:50:1d:f4:ca:7a:8b:4d:
        de:7d:84:59:ec:51:b1:a6:23:75:02:21:ad:5c:94:47:a1:06:
        29:55:7b:9a:97:f4:d2:cd:53:fc:30:b7:d3:f6:09:f3:e1:b2:
        69:5b:51:52:62:58:0e:2d:69:7e:1a:ec:12:fc:2c:2f:38:0d:
        83:b3:50:81:a9:bf:a5:96:bb:7e:bf:7d:77:8d:ba:3b:91:54:
        cf:75:ef:22:51:78:aa:9b:be:d3:0b:7b:95:ba:88:4e:7f:01:
        46:9d:b6:d2:5c:7f:2a:fa:b6:83:85:32:eb:ff:80:b3:68:35:
        43:c1:62:d4:1a:d1:cf:2a:e6:1d:6b:90:07:02:73:a7:9d:41:
        0d:1f:8e:61:ea:9a:2f:1e:b7:41:01:ba:98:21:13:e5:29:3d:
        28:60:c4:a1:0c:99:69:cc:17:4a:a0:7f:4e:00:7e:a2:23:66:
        50:52:1c:92:7e:a7:8d:eb:d1:e6:9d:9a:3e:53:21:71:34:93:
        a7:ec:35:c3:22:c6:c3:9f:88:07:bd:03:4c:b7:45:57:00:b7:
        2d:1a:8e:95:6f:9c:8e:8d:10:eb:10:6c:ba:e8:3e:bb:7c:64:
        a5:b0:89:6e
-----BEGIN CERTIFICATE-----
MIIEFzCCAv+gAwIBAgICEAUwDQYJKoZIhvcNAQELBQAwgYkxCzAJBgNVBAYTAlVT
MRAwDgYDVQQIDAdGbG9yaWRhMRAwDgYDVQQHDAdKdXBpdGVyMQ4wDAYDVQQKDAVa
ZXJvQzEMMAoGA1UECwwDSWNlMRgwFgYDVQQDDA9aZXJvQyBUZXN0IENBIDUxHjAc
BgkqhkiG9w0BCQEWD3Rlc3RzQHplcm9jLmNvbTAeFw0yNDA0MTgxNjE2MTFaFw0y
NTA1MjExNjE2MTFaMIGPMRkwFwYDVQQDDBBTZXJ2ZXIgKEV4cGlyZWQpMQswCQYD
VQQGEwJVUzEQMA4GA1UECAwHRmxvcmlkYTEQMA4GA1UEBwwHSnVwaXRlcjEUMBIG
A1UECgwLWmVyb0MsIEluYy4xDDAKBgNVBAsMA0ljZTEdMBsGCSqGSIb3DQEJARYO
aW5mb0B6ZXJvYy5jb20wggEiMA0GCSqGSIb3DQEBAQUAA4IBDwAwggEKAoIBAQDB
yZj7ubXn1iLWF2LidSsm6LuqNixnS2MH08U9rL+4aVFa8Od9TZhrPKIXePXEXJ7p
biSzRAd24LhaU4PIpeRJQEz5/HxvT3i72CYod5NR3ztiUEc+oR2gb9uhpVl1is+f
qpBSW5KrV8mRBEZtwz6OoDUE/e1trfjToFzeotZEb2I1Ks/dB8plRzbu6t9wj3rj
jnsGxUUzVnu17Nu5gPRLg1SlIaEFUtHeqAmEV5kYQ6Qpulb6vh28ksxw4MiPleza
k77onHp35yPM6UmrtUG8CA33iPFKkoh8Ref+wgPzkS83cWxFs24mDj44Y1Q9eXHv
A32pjIyhQnEk62MyP2M7AgMBAAGjgYAwfjAdBgNVHQ4EFgQUO+549XNxHmXhvbHN
ogeFX0YcI38wHwYDVR0jBBgwFoAU4bU2/RbMXjkHD1/nMHaYp/rk04gwDgYDVR0P
AQH/BAQDAgXgMBMGA1UdJQQMMAoGCCsGAQUFBwMBMBcGA1UdEQQQMA6HBH8AAAGC
BnNlcnZlcjANBgkqhkiG9w0BAQsFAAOCAQEAVm2KBNhNZReyiRQE1Q4wJsNbgTTC
9lGWsavVL5BQHfTKeotN3n2EWexRsaYjdQIhrVyUR6EGKVV7mpf00s1T/DC30/YJ
8+GyaVtRUmJYDi1pfhrsEvwsLzgNg7NQgam/pZa7fr99d426O5FUz3XvIlF4qpu+
0wt7lbqITn8BRp220lx/Kvq2g4Uy6/+As2g1Q8Fi1BrRzyrmHWuQBwJzp51BDR+O
YeqaLx63QQG6mCET5Sk9KGDEoQyZacwXSqB/TgB+oiNmUFIckn6njevR5p2aPlMh
cTSTp+w1wyLGw5+IB70DTLdFVwC3LRqOlW+cjo0Q6xBsuug+u3xkpbCJbg==
-----END CERTIFICATE-----
