Certificate:
    Data:
        Version: 3 (0x2)
        Serial Number: 4096 (0x1000)
        Signature Algorithm: sha256WithRSAEncryption
        Issuer: CN=CA1 Intermediate 1, C=US, ST=Florida, L=Jupiter, O=ZeroC, OU=Ice/emailAddress=tests@zeroc.com
        Validity
            Not Before: May 22 16:16:03 2025 GMT
            Not After : Jun 24 16:16:03 2026 GMT
        Subject: CN=ZeroC Test Intermediate 2, C=US, ST=Florida, L=Jupiter, O=ZeroC, OU=Ice Test Infrastructure/emailAddress=tests@zeroc.com
        Subject Public Key Info:
            Public Key Algorithm: rsaEncryption
                Public-Key: (2048 bit)
                Modulus:
                    00:c6:9e:67:a0:81:a8:15:13:58:c8:42:9d:1d:21:
                    de:0c:de:4a:38:1a:9a:e9:e4:2d:54:6b:08:a8:5e:
                    d7:3c:12:bf:d5:ec:4f:b0:f7:a1:de:81:c2:c3:3d:
                    db:b3:7b:c6:d0:55:18:33:76:35:0e:4f:9f:c2:51:
                    07:66:9e:5d:cc:3a:cd:ac:85:01:6c:b3:e6:51:38:
                    cd:37:9c:1c:20:f3:6c:33:83:2c:45:23:29:4e:7d:
                    be:36:d3:07:94:a9:18:b9:d9:6e:bc:cf:7f:e7:c7:
                    8a:e4:05:86:f0:f0:53:e5:d5:46:41:7c:c1:b9:29:
                    ac:29:1e:60:95:dd:c8:89:b4:e3:f3:4f:37:f3:23:
                    c8:7e:97:f7:0d:85:6e:7d:55:39:09:4c:bd:56:53:
                    c2:7c:49:27:0f:84:da:87:05:9c:58:b6:bb:a2:ad:
                    d1:a3:c3:93:4d:78:db:48:fb:ae:cf:7e:1a:6b:1d:
                    23:07:cf:e3:35:26:50:8b:46:4a:5c:d7:c6:0e:96:
                    0c:f0:7c:dd:38:8f:fa:f0:a1:fe:7f:00:52:f0:08:
                    e3:6f:b7:d4:7a:36:fa:36:c2:47:99:b1:1b:07:1c:
                    b3:31:08:87:89:8d:99:e6:72:27:84:a4:5d:01:a4:
                    14:d2:f9:de:8b:a9:8a:01:63:53:fb:8c:bf:ec:b6:
                    5d:f7
                Exponent: 65537 (0x10001)
        X509v3 extensions:
            X509v3 Subject Key Identifier: 
                AC:2A:D1:1B:E3:BB:1D:6E:AC:01:D8:CC:17:0D:2E:A0:E2:D4:39:4E
            X509v3 Authority Key Identifier: 
                3E:A6:D8:20:71:88:8F:97:C8:04:15:06:AB:64:F2:19:57:9D:6F:ED
            X509v3 Basic Constraints: critical
                CA:TRUE
            X509v3 Key Usage: critical
                Digital Signature, Certificate Sign, CRL Sign
    Signature Algorithm: sha256WithRSAEncryption
    Signature Value:
        1c:63:bd:f3:2e:0f:4d:fa:2f:77:19:d5:03:5d:1f:9e:41:0a:
        86:43:ab:1a:f2:8e:e6:61:50:c9:49:b1:44:5e:1d:8b:ca:6e:
        16:22:38:ac:1b:be:d6:71:36:48:90:a1:61:40:94:86:ab:b5:
        72:79:0e:9a:cf:7e:0a:be:84:50:8a:b0:2c:4c:da:b5:90:f8:
        1e:60:c1:06:3d:a0:1f:11:c5:07:4c:65:af:cc:9b:be:3e:8a:
        b8:9f:8f:8e:fa:55:f2:5d:2f:63:fa:dd:46:0a:b9:69:00:3d:
        e3:6e:19:8e:17:1a:ec:e3:30:a6:cf:34:6d:b4:2a:3e:34:80:
        1e:d0:ad:fe:e2:d2:fe:f6:13:0c:d5:a8:1f:e0:a5:4a:63:41:
        ce:9e:1d:6a:d7:b2:96:20:ef:c9:4e:19:cb:a9:4b:c0:0b:ea:
        33:5d:fe:d7:95:90:2d:aa:94:45:1c:7d:eb:c9:d8:0b:8b:08:
        01:3d:04:ae:43:5a:1f:3b:29:32:7c:d0:cf:f2:61:8c:c6:63:
        e4:a3:5b:0d:a5:a6:14:b1:5d:c3:ba:2e:3b:ce:57:b8:de:a9:
        17:fd:8c:09:d5:4e:bd:d0:d3:22:36:bc:76:61:b1:52:10:b5:
        51:2b:b6:f7:dc:74:e7:66:cd:1f:71:16:ef:72:0b:ae:02:f0:
        f9:13:b1:55
-----BEGIN CERTIFICATE-----
MIIEFDCCAvygAwIBAgICEAAwDQYJKoZIhvcNAQELBQAwgYwxGzAZBgNVBAMMEkNB
MSBJbnRlcm1lZGlhdGUgMTELMAkGA1UEBhMCVVMxEDAOBgNVBAgMB0Zsb3JpZGEx
EDAOBgNVBAcMB0p1cGl0ZXIxDjAMBgNVBAoMBVplcm9DMQwwCgYDVQQLDANJY2Ux
HjAcBgkqhkiG9w0BCQEWD3Rlc3RzQHplcm9jLmNvbTAeFw0yNTA1MjIxNjE2MDNa
Fw0yNjA2MjQxNjE2MDNaMIGnMSIwIAYDVQQDDBlaZXJvQyBUZXN0IEludGVybWVk
aWF0ZSAyMQswCQYDVQQGEwJVUzEQMA4GA1UECAwHRmxvcmlkYTEQMA4GA1UEBwwH
SnVwaXRlcjEOMAwGA1UECgwFWmVyb0MxIDAeBgNVBAsMF0ljZSBUZXN0IEluZnJh
c3RydWN0dXJlMR4wHAYJKoZIhvcNAQkBFg90ZXN0c0B6ZXJvYy5jb20wggEiMA0G
CSqGSIb3DQEBAQUAA4IBDwAwggEKAoIBAQDGnmeggagVE1jIQp0dId4M3ko4Gprp
5C1UawioXtc8Er/V7E+w96HegcLDPduze8bQVRgzdjUOT5/CUQdmnl3MOs2shQFs
s+ZROM03nBwg82wzgyxFIylOfb420weUqRi52W68z3/nx4rkBYbw8FPl1UZBfMG5
KawpHmCV3ciJtOPzTzfzI8h+l/cNhW59VTkJTL1WU8J8SScPhNqHBZxYtruirdGj
w5NNeNtI+67PfhprHSMHz+M1JlCLRkpc18YOlgzwfN04j/rwof5/AFLwCONvt9R6
Nvo2wkeZsRsHHLMxCIeJjZnmcieEpF0BpBTS+d6LqYoBY1P7jL/stl33AgMBAAGj
YzBhMB0GA1UdDgQWBBSsKtEb47sdbqwB2MwXDS6g4tQ5TjAfBgNVHSMEGDAWgBQ+
ptggcYiPl8gEFQarZPIZV51v7TAPBgNVHRMBAf8EBTADAQH/MA4GA1UdDwEB/wQE
AwIBhjANBgkqhkiG9w0BAQsFAAOCAQEAHGO98y4PTfovdxnVA10fnkEKhkOrGvKO
5mFQyUmxRF4di8puFiI4rBu+1nE2SJChYUCUhqu1cnkOms9+Cr6EUIqwLEzatZD4
HmDBBj2gHxHFB0xlr8ybvj6KuJ+PjvpV8l0vY/rdRgq5aQA9424Zjhca7OMwps80
bbQqPjSAHtCt/uLS/vYTDNWoH+ClSmNBzp4dateyliDvyU4Zy6lLwAvqM13+15WQ
LaqURRx968nYC4sIAT0ErkNaHzspMnzQz/JhjMZj5KNbDaWmFLFdw7ouO85XuN6p
F/2MCdVOvdDTIja8dmGxUhC1USu299x052bNH3EW73ILrgLw+ROxVQ==
-----END CERTIFICATE-----
