Certificate:
    Data:
        Version: 3 (0x2)
        Serial Number: 4096 (0x1000)
        Signature Algorithm: sha256WithRSAEncryption
        Issuer: CN=CA1 Intermediate 1, C=US, ST=Florida, L=Jupiter, O=ZeroC, OU=Ice/emailAddress=tests@zeroc.com
        Validity
            Not Before: May 22 15:10:09 2025 GMT
            Not After : Jun 24 15:10:09 2026 GMT
        Subject: CN=ZeroC Test Intermediate 2, C=US, ST=Florida, L=Jupiter, O=ZeroC, OU=Ice Test Infrastructure/emailAddress=tests@zeroc.com
        Subject Public Key Info:
            Public Key Algorithm: rsaEncryption
                Public-Key: (2048 bit)
                Modulus:
                    00:c1:55:6b:66:5f:ab:c7:45:1b:85:e2:e7:f8:d8:
                    bc:70:ac:43:f8:de:60:96:7b:92:4b:58:a4:7c:b9:
                    be:c4:17:7b:90:53:f8:6c:64:e5:2c:b2:2a:06:12:
                    2a:da:73:69:6b:65:9b:38:80:00:1d:ed:fd:ce:d2:
                    50:24:7a:4b:42:4b:28:41:5b:5d:f0:3b:db:ce:99:
                    52:a7:7d:0d:32:25:22:20:58:57:96:6b:69:ea:82:
                    32:d8:f4:b6:13:e1:40:6d:8c:f2:8e:5c:1b:32:69:
                    13:da:30:9e:d5:d3:89:af:b3:24:08:ff:e5:47:ae:
                    0e:43:3f:78:30:a9:9e:38:18:e8:7c:8a:51:ec:6e:
                    ce:6d:0e:8b:48:71:ee:15:b7:94:1b:67:dc:e5:1f:
                    52:ba:1b:aa:67:10:65:a4:1d:89:c4:3d:d2:a7:5d:
                    04:47:58:c7:3e:a4:c5:b5:53:6d:95:dc:58:96:0a:
                    f9:fa:05:0b:7a:7e:e0:a3:62:24:95:70:5c:45:30:
                    b6:42:52:82:cf:d5:2e:0d:cf:5b:17:4a:06:fa:12:
                    74:78:0c:7a:90:02:e6:86:f4:44:7c:82:8d:c8:50:
                    03:6c:42:dc:2b:92:e2:e5:24:3a:94:b4:fb:22:21:
                    24:f7:2c:dd:41:c2:e7:69:dd:9f:0b:8d:33:27:8a:
                    40:2d
                Exponent: 65537 (0x10001)
        X509v3 extensions:
            X509v3 Subject Key Identifier: 
                3B:81:6C:3A:05:E5:BF:91:20:57:EC:DF:58:41:78:02:CB:32:59:57
            X509v3 Authority Key Identifier: 
                75:99:76:0B:CD:A2:5A:E9:49:99:26:CB:7C:FA:F3:DD:9A:17:E3:BE
            X509v3 Basic Constraints: critical
                CA:TRUE
            X509v3 Key Usage: critical
                Digital Signature, Certificate Sign, CRL Sign
    Signature Algorithm: sha256WithRSAEncryption
    Signature Value:
        50:2e:80:83:cf:a3:99:ed:65:1e:c7:b9:34:42:52:08:43:56:
        7a:26:c8:2b:de:4d:37:ce:20:63:54:2b:09:fd:b3:de:e3:3e:
        1c:1e:05:00:be:93:e3:dd:af:8e:97:29:02:43:d8:60:ee:2a:
        94:40:04:26:53:c8:f1:b0:ba:7c:35:f7:38:2a:a3:06:cf:59:
        9b:d1:a7:c2:27:f7:68:43:19:14:ad:e0:c2:80:f0:55:1e:ac:
        af:13:16:d1:0d:47:8b:29:cf:4d:85:ba:5b:bf:74:55:34:25:
        69:3b:3b:14:5f:0a:ab:e0:02:46:3c:7f:45:06:74:5b:97:73:
        84:6f:82:c7:85:21:92:92:03:ab:77:b9:00:ad:03:38:07:07:
        73:9b:98:69:a4:fc:06:fb:6d:a1:8f:7d:c1:34:0f:bb:a2:cb:
        27:f9:66:e7:de:22:39:65:bb:ef:75:fd:74:ea:e8:ae:bd:cb:
        3a:fc:9a:9a:9f:52:57:14:46:d8:2f:b9:d9:e2:37:62:1d:cd:
        be:20:ad:19:57:e9:32:43:50:7a:af:77:61:bd:40:34:05:24:
        c7:c6:7a:71:ef:c2:9e:e9:aa:3b:bd:8b:1f:06:74:68:89:79:
        14:6b:24:96:45:76:8c:4b:6e:ec:4e:36:8f:ba:80:33:2e:24:
        41:c8:38:c7
-----BEGIN CERTIFICATE-----
MIIEFDCCAvygAwIBAgICEAAwDQYJKoZIhvcNAQELBQAwgYwxGzAZBgNVBAMMEkNB
MSBJbnRlcm1lZGlhdGUgMTELMAkGA1UEBhMCVVMxEDAOBgNVBAgMB0Zsb3JpZGEx
EDAOBgNVBAcMB0p1cGl0ZXIxDjAMBgNVBAoMBVplcm9DMQwwCgYDVQQLDANJY2Ux
HjAcBgkqhkiG9w0BCQEWD3Rlc3RzQHplcm9jLmNvbTAeFw0yNTA1MjIxNTEwMDla
Fw0yNjA2MjQxNTEwMDlaMIGnMSIwIAYDVQQDDBlaZXJvQyBUZXN0IEludGVybWVk
aWF0ZSAyMQswCQYDVQQGEwJVUzEQMA4GA1UECAwHRmxvcmlkYTEQMA4GA1UEBwwH
SnVwaXRlcjEOMAwGA1UECgwFWmVyb0MxIDAeBgNVBAsMF0ljZSBUZXN0IEluZnJh
c3RydWN0dXJlMR4wHAYJKoZIhvcNAQkBFg90ZXN0c0B6ZXJvYy5jb20wggEiMA0G
CSqGSIb3DQEBAQUAA4IBDwAwggEKAoIBAQDBVWtmX6vHRRuF4uf42LxwrEP43mCW
e5JLWKR8ub7EF3uQU/hsZOUssioGEirac2lrZZs4gAAd7f3O0lAkektCSyhBW13w
O9vOmVKnfQ0yJSIgWFeWa2nqgjLY9LYT4UBtjPKOXBsyaRPaMJ7V04mvsyQI/+VH
rg5DP3gwqZ44GOh8ilHsbs5tDotIce4Vt5QbZ9zlH1K6G6pnEGWkHYnEPdKnXQRH
WMc+pMW1U22V3FiWCvn6BQt6fuCjYiSVcFxFMLZCUoLP1S4Nz1sXSgb6EnR4DHqQ
AuaG9ER8go3IUANsQtwrkuLlJDqUtPsiIST3LN1Bwudp3Z8LjTMnikAtAgMBAAGj
YzBhMB0GA1UdDgQWBBQ7gWw6BeW/kSBX7N9YQXgCyzJZVzAfBgNVHSMEGDAWgBR1
mXYLzaJa6UmZJst8+vPdmhfjvjAPBgNVHRMBAf8EBTADAQH/MA4GA1UdDwEB/wQE
AwIBhjANBgkqhkiG9w0BAQsFAAOCAQEAUC6Ag8+jme1lHse5NEJSCENWeibIK95N
N84gY1QrCf2z3uM+HB4FAL6T492vjpcpAkPYYO4qlEAEJlPI8bC6fDX3OCqjBs9Z
m9Gnwif3aEMZFK3gwoDwVR6srxMW0Q1HiynPTYW6W790VTQlaTs7FF8Kq+ACRjx/
RQZ0W5dzhG+Cx4UhkpIDq3e5AK0DOAcHc5uYaaT8BvttoY99wTQPu6LLJ/lm594i
OWW773X9dOrorr3LOvyamp9SVxRG2C+52eI3Yh3NviCtGVfpMkNQeq93Yb1ANAUk
x8Z6ce/CnumqO72LHwZ0aIl5FGsklkV2jEtu7E42j7qAMy4kQcg4xw==
-----END CERTIFICATE-----
