Certificate:
    Data:
        Version: 3 (0x2)
        Serial Number: 4097 (0x1001)
        Signature Algorithm: sha256WithRSAEncryption
        Issuer: CN=ZeroC Test Intermediate 2, C=US, ST=Florida, L=Jupiter, O=ZeroC, OU=Ice Test Infrastructure/emailAddress=tests@zeroc.com
        Validity
            Not Before: May 22 16:16:10 2025 GMT
            Not After : Jun 24 16:16:10 2026 GMT
        Subject: CN=server, C=US, ST=Florida, L=Jupiter, O=ZeroC, Inc., OU=Ice/emailAddress=info@zeroc.com
        Subject Public Key Info:
            Public Key Algorithm: rsaEncryption
                Public-Key: (2048 bit)
                Modulus:
                    00:ca:77:ef:91:da:e7:df:71:37:c0:a9:3a:f0:76:
                    6f:02:f7:36:b0:ed:c7:45:49:3f:c3:fe:5b:e3:78:
                    8d:0a:34:c3:21:1c:9e:2b:cc:54:c1:1b:35:93:e1:
                    ff:31:ff:4e:51:ab:15:c4:3f:3a:30:bb:e0:e9:ce:
                    a2:9f:ca:b0:01:fa:19:4f:e2:83:db:91:07:a7:ca:
                    97:4a:ce:12:5c:97:a2:48:02:7d:93:7f:4b:b1:f1:
                    3a:48:35:25:45:91:e1:82:30:69:7e:74:42:f3:c7:
                    5c:c4:89:b7:57:2f:f3:e0:83:ff:f8:f0:8e:1a:ec:
                    40:71:b3:b8:38:f5:9d:3b:53:1c:23:97:1e:6c:bb:
                    e8:3c:f3:39:f7:80:e9:cd:94:31:0a:58:0f:78:77:
                    4c:29:e6:ea:5e:3a:be:d8:3a:47:8e:65:7d:94:ab:
                    6b:5e:c2:4f:2f:63:40:9f:a9:6a:bb:3a:67:6d:23:
                    f4:ef:25:05:93:61:89:37:e9:8c:bf:fc:60:e4:df:
                    11:2a:8e:42:7e:3c:d2:42:09:14:04:3d:05:d5:bc:
                    ca:23:02:24:7e:91:b2:7a:c0:82:f2:a4:3e:97:0b:
                    c2:60:41:fd:ce:bf:09:d0:61:42:e9:fc:0a:ce:f8:
                    6c:b1:4a:c0:a5:61:fa:ad:c3:f9:0e:98:ac:58:e2:
                    8d:5d
                Exponent: 65537 (0x10001)
        X509v3 extensions:
            X509v3 Subject Key Identifier: 
                FA:98:72:27:07:6B:BF:E0:89:7C:9D:3B:AB:B0:E6:CE:CE:A6:3D:5B
            X509v3 Authority Key Identifier: 
                AC:2A:D1:1B:E3:BB:1D:6E:AC:01:D8:CC:17:0D:2E:A0:E2:D4:39:4E
            X509v3 Key Usage: critical
                Digital Signature, Non Repudiation, Key Encipherment
            X509v3 Extended Key Usage: 
                TLS Web Server Authentication
            X509v3 Subject Alternative Name: 
                IP Address:127.0.0.1, DNS:server
    Signature Algorithm: sha256WithRSAEncryption
    Signature Value:
        19:f8:d8:89:18:cd:e5:26:26:8c:16:56:e8:cc:33:93:ec:db:
        28:f2:84:80:50:0e:45:da:3c:ca:e0:02:c8:46:1a:eb:e0:49:
        5e:fc:89:c8:05:f4:75:c0:5d:ec:51:9a:97:07:8e:9e:18:82:
        39:e9:0c:8b:e1:cf:dd:dd:0a:8b:69:ad:18:56:be:69:aa:7e:
        cd:f7:83:39:06:fa:48:7f:de:b5:27:c7:7d:15:ac:94:0c:b6:
        e2:73:26:c5:1c:19:64:e1:56:b5:b5:2f:d4:51:f1:15:0f:f3:
        44:13:3a:4b:40:f2:f8:16:be:62:8b:8b:2d:5e:be:35:3a:b8:
        ca:34:a9:df:7f:e5:d4:08:4d:cb:b4:ba:7c:c3:41:7a:cb:00:
        c8:f9:7e:bf:b3:3f:e0:6a:42:3d:fc:b9:19:32:52:39:0b:2d:
        72:d6:76:bf:f2:b2:8b:4c:e8:cf:60:93:9b:b0:38:88:5c:e7:
        d3:8d:26:81:77:9b:80:ee:4d:9a:f1:c2:34:41:ec:0c:50:e9:
        e7:5d:64:b3:7d:22:7f:3f:28:4c:5d:3a:80:ac:40:a3:90:dc:
        80:86:4b:f8:2c:c0:06:52:67:41:7d:9e:e5:9b:20:b8:e4:43:
        6f:4e:eb:33:4a:67:4a:0f:e8:c5:1a:ec:97:3c:23:a9:4b:8e:
        74:e4:f9:94
-----BEGIN CERTIFICATE-----
MIIEKzCCAxOgAwIBAgICEAEwDQYJKoZIhvcNAQELBQAwgacxIjAgBgNVBAMMGVpl
cm9DIFRlc3QgSW50ZXJtZWRpYXRlIDIxCzAJBgNVBAYTAlVTMRAwDgYDVQQIDAdG
bG9yaWRhMRAwDgYDVQQHDAdKdXBpdGVyMQ4wDAYDVQQKDAVaZXJvQzEgMB4GA1UE
CwwXSWNlIFRlc3QgSW5mcmFzdHJ1Y3R1cmUxHjAcBgkqhkiG9w0BCQEWD3Rlc3Rz
QHplcm9jLmNvbTAeFw0yNTA1MjIxNjE2MTBaFw0yNjA2MjQxNjE2MTBaMIGFMQ8w
DQYDVQQDDAZzZXJ2ZXIxCzAJBgNVBAYTAlVTMRAwDgYDVQQIDAdGbG9yaWRhMRAw
DgYDVQQHDAdKdXBpdGVyMRQwEgYDVQQKDAtaZXJvQywgSW5jLjEMMAoGA1UECwwD
SWNlMR0wGwYJKoZIhvcNAQkBFg5pbmZvQHplcm9jLmNvbTCCASIwDQYJKoZIhvcN
AQEBBQADggEPADCCAQoCggEBAMp375Ha599xN8CpOvB2bwL3NrDtx0VJP8P+W+N4
jQo0wyEcnivMVMEbNZPh/zH/TlGrFcQ/OjC74OnOop/KsAH6GU/ig9uRB6fKl0rO
ElyXokgCfZN/S7HxOkg1JUWR4YIwaX50QvPHXMSJt1cv8+CD//jwjhrsQHGzuDj1
nTtTHCOXHmy76DzzOfeA6c2UMQpYD3h3TCnm6l46vtg6R45lfZSra17CTy9jQJ+p
ars6Z20j9O8lBZNhiTfpjL/8YOTfESqOQn480kIJFAQ9BdW8yiMCJH6RsnrAgvKk
PpcLwmBB/c6/CdBhQun8Cs74bLFKwKVh+q3D+Q6YrFjijV0CAwEAAaOBgDB+MB0G
A1UdDgQWBBT6mHInB2u/4Il8nTursObOzqY9WzAfBgNVHSMEGDAWgBSsKtEb47sd
bqwB2MwXDS6g4tQ5TjAOBgNVHQ8BAf8EBAMCBeAwEwYDVR0lBAwwCgYIKwYBBQUH
AwEwFwYDVR0RBBAwDocEfwAAAYIGc2VydmVyMA0GCSqGSIb3DQEBCwUAA4IBAQAZ
+NiJGM3lJiaMFlbozDOT7Nso8oSAUA5F2jzK4ALIRhrr4Ele/InIBfR1wF3sUZqX
B46eGII56QyL4c/d3QqLaa0YVr5pqn7N94M5BvpIf961J8d9FayUDLbicybFHBlk
4Va1tS/UUfEVD/NEEzpLQPL4Fr5ii4stXr41OrjKNKnff+XUCE3LtLp8w0F6ywDI
+X6/sz/gakI9/LkZMlI5Cy1y1na/8rKLTOjPYJObsDiIXOfTjSaBd5uA7k2a8cI0
QewMUOnnXWSzfSJ/PyhMXTqArECjkNyAhkv4LMAGUmdBfZ7lmyC45ENvTuszSmdK
D+jFGuyXPCOpS4505PmU
-----END CERTIFICATE-----
