Certificate:
    Data:
        Version: 3 (0x2)
        Serial Number: 4097 (0x1001)
        Signature Algorithm: sha256WithRSAEncryption
        Issuer: CN=ZeroC Test Intermediate 2, C=US, ST=Florida, L=Jupiter, O=ZeroC, OU=Ice Test Infrastructure/emailAddress=tests@zeroc.com
        Validity
            Not Before: May 22 16:55:13 2025 GMT
            Not After : Jun 24 16:55:13 2026 GMT
        Subject: CN=server, C=US, ST=Florida, L=Jupiter, O=ZeroC, Inc., OU=Ice/emailAddress=info@zeroc.com
        Subject Public Key Info:
            Public Key Algorithm: rsaEncryption
                Public-Key: (2048 bit)
                Modulus:
                    00:f2:a1:a1:bf:96:d8:75:83:88:a8:74:2a:61:34:
                    dc:7d:ac:ba:97:86:2f:11:70:f3:32:be:b7:08:1e:
                    9d:ef:dd:26:75:ad:b7:e9:ff:cb:6f:cd:80:d3:ff:
                    f8:39:7a:09:b4:31:2a:b3:99:d2:45:0d:29:6e:52:
                    34:ea:b1:95:21:96:42:52:7c:45:63:68:09:cc:aa:
                    6a:3e:df:a1:42:70:6a:95:03:01:6f:84:72:e2:10:
                    e6:35:6d:d3:19:48:c4:15:fa:1c:55:94:7d:e5:14:
                    d0:ab:82:44:bd:8a:60:53:ad:30:72:d8:27:84:49:
                    18:83:57:79:7c:d4:5c:07:0a:10:bd:fb:61:93:ba:
                    1d:57:4b:2d:0a:8a:bf:79:db:27:b2:6f:38:5d:2b:
                    1b:4f:b2:d0:2e:64:53:4e:70:0c:b4:32:22:f3:11:
                    c1:da:67:32:f7:1d:e0:51:c8:82:99:86:70:71:ad:
                    c6:96:f5:ed:e1:dd:f3:77:2f:76:87:03:3a:38:1d:
                    3b:72:70:af:03:85:74:38:df:56:45:1a:f6:bd:b0:
                    d9:1d:d2:c3:ad:56:0d:ed:68:e3:81:a7:39:da:94:
                    5f:fe:36:69:3c:d4:34:4b:ef:4c:61:1b:53:54:fd:
                    21:f7:64:1b:a8:5a:e6:eb:d4:4c:b5:e3:b6:af:48:
                    99:d1
                Exponent: 65537 (0x10001)
        X509v3 extensions:
            X509v3 Subject Key Identifier: 
                91:9C:76:D6:75:2F:EA:CF:5B:51:8D:04:50:4D:B9:1A:06:19:38:AD
            X509v3 Authority Key Identifier: 
                8C:80:00:C8:B2:CE:46:A7:04:1B:ED:58:D8:03:9D:CC:4E:66:DC:FE
            X509v3 Key Usage: critical
                Digital Signature, Non Repudiation, Key Encipherment
            X509v3 Extended Key Usage: 
                TLS Web Server Authentication
            X509v3 Subject Alternative Name: 
                IP Address:127.0.0.1, DNS:server
    Signature Algorithm: sha256WithRSAEncryption
    Signature Value:
        83:d7:7d:9a:ae:15:14:6f:29:8a:fc:e7:f8:b4:f1:1c:23:38:
        5b:12:26:e8:d8:b8:78:00:f2:23:b7:e4:f1:e6:d4:53:ea:f3:
        45:4f:e9:91:c6:0b:86:b0:23:bb:61:15:3c:83:ba:96:9f:3b:
        a0:e0:0b:b7:3f:24:07:1c:ed:92:ec:a4:8c:0a:76:9f:f3:1d:
        63:42:ac:53:9f:ad:d8:21:53:c7:4e:29:45:08:d6:58:85:25:
        86:a2:08:e7:07:fa:f0:d5:ee:2f:bd:9b:ac:bf:9f:51:9e:c4:
        db:4b:b2:fb:db:ed:39:a2:74:58:79:dd:96:5f:f7:a5:47:2a:
        bc:9b:06:c0:81:25:be:85:aa:12:0a:ce:c6:5b:e0:9c:89:19:
        55:21:f7:78:f9:67:7b:24:5f:98:b4:b6:f5:f5:ae:73:6a:a1:
        12:71:32:e5:a6:19:8c:64:93:cd:d7:05:16:71:88:9f:68:81:
        50:46:76:d9:52:a8:4f:42:68:88:ea:78:d7:08:5e:dd:68:00:
        d1:ef:fd:2b:1d:be:f8:f9:c9:39:73:71:c6:61:73:09:15:f3:
        eb:83:96:b6:ba:ed:fb:17:b2:79:2f:b5:69:17:25:5f:42:32:
        ae:93:54:1f:b4:88:4c:a9:d9:72:34:80:18:1b:02:47:aa:3f:
        f1:b7:61:6a
-----BEGIN CERTIFICATE-----
MIIEKzCCAxOgAwIBAgICEAEwDQYJKoZIhvcNAQELBQAwgacxIjAgBgNVBAMMGVpl
cm9DIFRlc3QgSW50ZXJtZWRpYXRlIDIxCzAJBgNVBAYTAlVTMRAwDgYDVQQIDAdG
bG9yaWRhMRAwDgYDVQQHDAdKdXBpdGVyMQ4wDAYDVQQKDAVaZXJvQzEgMB4GA1UE
CwwXSWNlIFRlc3QgSW5mcmFzdHJ1Y3R1cmUxHjAcBgkqhkiG9w0BCQEWD3Rlc3Rz
QHplcm9jLmNvbTAeFw0yNTA1MjIxNjU1MTNaFw0yNjA2MjQxNjU1MTNaMIGFMQ8w
DQYDVQQDDAZzZXJ2ZXIxCzAJBgNVBAYTAlVTMRAwDgYDVQQIDAdGbG9yaWRhMRAw
DgYDVQQHDAdKdXBpdGVyMRQwEgYDVQQKDAtaZXJvQywgSW5jLjEMMAoGA1UECwwD
SWNlMR0wGwYJKoZIhvcNAQkBFg5pbmZvQHplcm9jLmNvbTCCASIwDQYJKoZIhvcN
AQEBBQADggEPADCCAQoCggEBAPKhob+W2HWDiKh0KmE03H2supeGLxFw8zK+twge
ne/dJnWtt+n/y2/NgNP/+Dl6CbQxKrOZ0kUNKW5SNOqxlSGWQlJ8RWNoCcyqaj7f
oUJwapUDAW+EcuIQ5jVt0xlIxBX6HFWUfeUU0KuCRL2KYFOtMHLYJ4RJGINXeXzU
XAcKEL37YZO6HVdLLQqKv3nbJ7JvOF0rG0+y0C5kU05wDLQyIvMRwdpnMvcd4FHI
gpmGcHGtxpb17eHd83cvdocDOjgdO3JwrwOFdDjfVkUa9r2w2R3Sw61WDe1o44Gn
OdqUX/42aTzUNEvvTGEbU1T9IfdkG6ha5uvUTLXjtq9ImdECAwEAAaOBgDB+MB0G
A1UdDgQWBBSRnHbWdS/qz1tRjQRQTbkaBhk4rTAfBgNVHSMEGDAWgBSMgADIss5G
pwQb7VjYA53MTmbc/jAOBgNVHQ8BAf8EBAMCBeAwEwYDVR0lBAwwCgYIKwYBBQUH
AwEwFwYDVR0RBBAwDocEfwAAAYIGc2VydmVyMA0GCSqGSIb3DQEBCwUAA4IBAQCD
132arhUUbymK/Of4tPEcIzhbEibo2Lh4APIjt+Tx5tRT6vNFT+mRxguGsCO7YRU8
g7qWnzug4Au3PyQHHO2S7KSMCnaf8x1jQqxTn63YIVPHTilFCNZYhSWGogjnB/rw
1e4vvZusv59RnsTbS7L72+05onRYed2WX/elRyq8mwbAgSW+haoSCs7GW+CciRlV
Ifd4+Wd7JF+YtLb19a5zaqEScTLlphmMZJPN1wUWcYifaIFQRnbZUqhPQmiI6njX
CF7daADR7/0rHb74+ck5c3HGYXMJFfPrg5a2uu37F7J5L7VpFyVfQjKuk1QftIhM
qdlyNIAYGwJHqj/xt2Fq
-----END CERTIFICATE-----
