Certificate:
    Data:
        Version: 3 (0x2)
        Serial Number: 4096 (0x1000)
        Signature Algorithm: sha256WithRSAEncryption
        Issuer: CN=CA5 Intermediate 1 (Expired), C=US, ST=Florida, L=Jupiter, O=ZeroC, OU=Ice/emailAddress=tests@zeroc.com
        Validity
            Not Before: Apr 18 16:55:10 2024 GMT
            Not After : May 21 16:55:10 2025 GMT
        Subject: CN=Client, C=US, ST=Florida, L=Jupiter, O=ZeroC, Inc., OU=Ice/emailAddress=info@zeroc.com
        Subject Public Key Info:
            Public Key Algorithm: rsaEncryption
                Public-Key: (2048 bit)
                Modulus:
                    00:bd:cb:81:c6:8d:15:db:53:d8:9c:a7:9c:fc:7e:
                    89:27:a8:74:40:11:fc:9f:3c:1f:7b:fa:5b:44:51:
                    0d:d1:e0:a7:e6:57:b4:b0:1d:33:1a:c9:10:0d:9a:
                    eb:78:66:e6:2c:28:02:1a:72:c4:48:9f:3b:d0:d1:
                    3b:5f:00:73:cf:28:6c:b8:b8:53:19:ec:0d:a5:bf:
                    05:ab:44:27:c5:b0:9a:9d:9f:a2:a0:71:1e:2d:ed:
                    18:d8:90:1e:34:d5:84:28:ac:2f:cb:01:72:60:42:
                    43:09:64:87:db:27:d6:d5:78:a7:e2:b6:b0:20:a0:
                    4c:3f:f7:52:21:fc:35:0e:a2:26:9a:f1:e5:15:f9:
                    a1:b7:ad:e1:26:3b:2a:69:39:08:7c:3b:c6:b3:f5:
                    dd:28:6e:44:2e:2d:0d:12:0f:5f:b9:eb:1a:52:3c:
                    0c:f6:b9:cb:01:a3:60:0c:ce:d5:c6:55:d6:7b:a0:
                    33:cd:cd:08:99:20:86:25:e8:b3:b3:84:fe:80:d7:
                    fd:37:5c:46:a5:85:8b:a0:74:a9:df:5f:9a:5a:44:
                    e5:d6:b4:f6:3d:4e:49:18:8a:f3:0d:6b:9e:34:cd:
                    47:15:f0:12:10:24:44:c9:ce:93:3e:ec:16:65:d5:
                    9b:16:7d:38:7e:7f:a2:f8:fe:9c:53:c0:c3:06:53:
                    08:d5
                Exponent: 65537 (0x10001)
        X509v3 extensions:
            X509v3 Subject Key Identifier: 
                7B:CE:76:4C:3C:67:FE:DF:32:C7:85:D1:F6:32:6B:4C:7C:C9:C1:44
            X509v3 Authority Key Identifier: 
                59:4B:B5:7E:82:6E:79:8E:86:53:63:A4:82:C4:7C:41:EA:1B:8B:92
            X509v3 Key Usage: critical
                Digital Signature, Non Repudiation, Key Encipherment
            X509v3 Extended Key Usage: 
                TLS Web Client Authentication
            X509v3 Subject Alternative Name: 
                IP Address:127.0.0.1, DNS:client
    Signature Algorithm: sha256WithRSAEncryption
    Signature Value:
        4e:92:5e:d5:f1:f8:51:a1:42:43:f4:d5:65:4a:81:55:47:5e:
        59:78:b5:17:a6:c5:86:be:5d:22:b5:f6:f9:91:ea:ba:e8:64:
        18:7f:59:1e:3d:e3:95:a7:0e:ae:4c:23:16:84:f5:c4:19:ff:
        5b:ef:70:24:ee:61:3e:97:25:85:14:e8:fc:0f:24:6a:30:2a:
        40:30:e7:61:8e:d9:6f:83:a2:74:a9:6f:31:24:32:72:04:a3:
        54:25:bf:e7:6b:0b:34:a9:f8:7f:ea:07:15:12:bd:b9:77:b4:
        35:b2:73:56:3c:d1:03:7b:88:22:78:f4:c6:31:8e:a6:4f:8c:
        3f:65:c0:3b:f6:38:bb:79:b8:23:e0:28:07:2a:b7:67:8f:9a:
        c3:5e:0a:71:1c:59:25:72:46:05:2c:41:91:52:eb:bf:95:f7:
        96:57:49:d5:cc:62:d9:42:99:cc:da:79:6c:48:12:f8:4c:e3:
        9e:95:aa:91:62:d2:a5:e6:ae:e2:a3:4d:b0:77:15:91:04:29:
        61:7e:07:59:f8:8f:c4:d5:4a:f1:3d:7a:af:f2:ca:28:26:cb:
        3f:de:7b:7d:5d:18:c3:17:5f:76:14:42:50:53:c2:4f:55:30:
        9b:36:79:9d:7a:e5:04:92:c9:32:a5:c5:25:bb:81:26:bd:9a:
        4e:bd:28:37
-----BEGIN CERTIFICATE-----
MIIEGjCCAwKgAwIBAgICEAAwDQYJKoZIhvcNAQELBQAwgZYxJTAjBgNVBAMMHENB
NSBJbnRlcm1lZGlhdGUgMSAoRXhwaXJlZCkxCzAJBgNVBAYTAlVTMRAwDgYDVQQI
DAdGbG9yaWRhMRAwDgYDVQQHDAdKdXBpdGVyMQ4wDAYDVQQKDAVaZXJvQzEMMAoG
A1UECwwDSWNlMR4wHAYJKoZIhvcNAQkBFg90ZXN0c0B6ZXJvYy5jb20wHhcNMjQw
NDE4MTY1NTEwWhcNMjUwNTIxMTY1NTEwWjCBhTEPMA0GA1UEAwwGQ2xpZW50MQsw
CQYDVQQGEwJVUzEQMA4GA1UECAwHRmxvcmlkYTEQMA4GA1UEBwwHSnVwaXRlcjEU
MBIGA1UECgwLWmVyb0MsIEluYy4xDDAKBgNVBAsMA0ljZTEdMBsGCSqGSIb3DQEJ
ARYOaW5mb0B6ZXJvYy5jb20wggEiMA0GCSqGSIb3DQEBAQUAA4IBDwAwggEKAoIB
AQC9y4HGjRXbU9icp5z8foknqHRAEfyfPB97+ltEUQ3R4KfmV7SwHTMayRANmut4
ZuYsKAIacsRInzvQ0TtfAHPPKGy4uFMZ7A2lvwWrRCfFsJqdn6KgcR4t7RjYkB40
1YQorC/LAXJgQkMJZIfbJ9bVeKfitrAgoEw/91Ih/DUOoiaa8eUV+aG3reEmOypp
OQh8O8az9d0obkQuLQ0SD1+56xpSPAz2ucsBo2AMztXGVdZ7oDPNzQiZIIYl6LOz
hP6A1/03XEalhYugdKnfX5paROXWtPY9TkkYivMNa540zUcV8BIQJETJzpM+7BZl
1ZsWfTh+f6L4/pxTwMMGUwjVAgMBAAGjgYAwfjAdBgNVHQ4EFgQUe852TDxn/t8y
x4XR9jJrTHzJwUQwHwYDVR0jBBgwFoAUWUu1foJueY6GU2OkgsR8Qeobi5IwDgYD
VR0PAQH/BAQDAgXgMBMGA1UdJQQMMAoGCCsGAQUFBwMCMBcGA1UdEQQQMA6HBH8A
AAGCBmNsaWVudDANBgkqhkiG9w0BAQsFAAOCAQEATpJe1fH4UaFCQ/TVZUqBVUde
WXi1F6bFhr5dIrX2+ZHquuhkGH9ZHj3jlacOrkwjFoT1xBn/W+9wJO5hPpclhRTo
/A8kajAqQDDnYY7Zb4OidKlvMSQycgSjVCW/52sLNKn4f+oHFRK9uXe0NbJzVjzR
A3uIInj0xjGOpk+MP2XAO/Y4u3m4I+AoByq3Z4+aw14KcRxZJXJGBSxBkVLrv5X3
lldJ1cxi2UKZzNp5bEgS+EzjnpWqkWLSpeau4qNNsHcVkQQpYX4HWfiPxNVK8T16
r/LKKCbLP957fV0YwxdfdhRCUFPCT1UwmzZ5nXrlBJLJMqXFJbuBJr2aTr0oNw==
-----END CERTIFICATE-----
