Certificate:
    Data:
        Version: 3 (0x2)
        Serial Number: 4096 (0x1000)
        Signature Algorithm: sha256WithRSAEncryption
        Issuer: C=US, ST=Florida, L=Jupiter, O=ZeroC, OU=Ice, CN=ZeroC Test CA 1/emailAddress=tests@zeroc.com
        Validity
            Not Before: May 22 15:10:09 2025 GMT
            Not After : Jun 24 15:10:09 2026 GMT
        Subject: CN=CA1 Intermediate 1, C=US, ST=Florida, L=Jupiter, O=ZeroC, OU=Ice/emailAddress=tests@zeroc.com
        Subject Public Key Info:
            Public Key Algorithm: rsaEncryption
                Public-Key: (2048 bit)
                Modulus:
                    00:dc:4b:a6:4c:b3:61:d8:0c:47:74:8c:66:31:7f:
                    04:ed:cb:c4:ad:f7:70:08:b2:4c:54:38:d6:55:9a:
                    69:c5:d2:9f:7c:3c:c7:14:a0:4f:35:17:39:5f:3e:
                    7f:e4:e2:d1:fc:ac:3b:45:ea:e5:76:b0:e0:8b:69:
                    a5:5d:7e:f2:b9:ec:f5:1a:22:f1:21:da:e8:25:23:
                    c6:51:fd:12:78:a1:1a:b1:82:02:4e:87:e5:44:06:
                    c9:eb:8a:4d:86:30:7c:3c:8a:9f:5d:14:6e:d7:e6:
                    5f:57:c3:14:6a:5c:da:f6:8d:92:85:e5:1f:cf:bb:
                    a6:ef:3f:57:f3:fb:51:3f:41:41:c9:e2:3e:1f:f7:
                    07:90:28:4e:be:0a:ee:f9:a4:8c:4a:e8:6d:97:d4:
                    7a:0c:07:49:f2:ac:07:a9:df:ab:19:0b:da:79:f0:
                    3d:9a:fe:e2:96:13:aa:ca:ab:a4:d3:89:8b:c0:04:
                    e5:7a:64:7e:01:ae:b5:d8:55:fe:77:27:af:97:01:
                    9f:b9:17:22:93:96:98:1c:56:fb:48:ce:8e:0d:b5:
                    98:11:d8:2c:38:b7:4a:95:45:f6:0a:d5:6e:f5:98:
                    8c:2a:ec:e7:43:50:2d:c4:d5:bf:3a:19:a4:af:20:
                    02:32:da:e4:a3:5c:d2:d0:0d:0c:83:60:db:b3:da:
                    f2:43
                Exponent: 65537 (0x10001)
        X509v3 extensions:
            X509v3 Subject Key Identifier: 
                75:99:76:0B:CD:A2:5A:E9:49:99:26:CB:7C:FA:F3:DD:9A:17:E3:BE
            X509v3 Authority Key Identifier: 
                DA:FC:2F:0E:65:38:82:A6:37:87:8A:5E:C8:1C:FB:FB:FF:86:78:C5
            X509v3 Basic Constraints: critical
                CA:TRUE
            X509v3 Key Usage: critical
                Digital Signature, Certificate Sign, CRL Sign
    Signature Algorithm: sha256WithRSAEncryption
    Signature Value:
        a0:85:19:60:31:e8:21:e1:b6:a0:b9:be:c3:1a:2d:ce:51:e1:
        9f:78:e9:04:04:76:64:b1:8e:e6:92:5f:04:4f:bd:b3:eb:6d:
        33:b6:d0:1b:58:0e:30:f9:d7:26:f5:a9:86:d0:79:5c:f5:a8:
        84:17:b4:58:f1:ae:91:73:82:1c:fe:53:40:eb:63:45:29:32:
        2a:44:eb:b0:f2:e4:fa:b6:6e:56:b0:f4:b9:05:30:2c:42:5c:
        c5:fb:a3:5c:07:a8:65:df:b0:4f:d0:c4:c7:4b:17:08:a5:2a:
        dd:5d:4c:85:5b:8f:24:7c:bb:c4:4a:ca:96:98:39:1e:27:41:
        ca:55:5e:93:a4:d0:92:a5:57:80:04:92:82:3a:4b:7f:6e:fd:
        1f:89:9c:76:ff:7f:43:32:55:c3:e6:0b:db:ad:91:90:4d:21:
        76:a1:36:78:3b:23:9e:9f:b1:6a:f2:a0:92:74:94:c8:8a:65:
        98:9b:ab:d2:f5:8c:43:5b:15:88:76:59:69:a5:77:fa:b9:50:
        89:13:d0:b4:3d:d4:82:a8:21:77:2f:67:0d:87:4f:2d:60:6b:
        03:b2:6a:24:e9:a5:f9:e5:cd:77:d6:e1:31:a7:77:5d:c8:3f:
        74:bf:d6:3b:98:c6:35:8a:86:80:0c:d3:ec:83:55:05:f4:6f:
        57:28:4a:7e
-----BEGIN CERTIFICATE-----
MIID9jCCAt6gAwIBAgICEAAwDQYJKoZIhvcNAQELBQAwgYkxCzAJBgNVBAYTAlVT
MRAwDgYDVQQIDAdGbG9yaWRhMRAwDgYDVQQHDAdKdXBpdGVyMQ4wDAYDVQQKDAVa
ZXJvQzEMMAoGA1UECwwDSWNlMRgwFgYDVQQDDA9aZXJvQyBUZXN0IENBIDExHjAc
BgkqhkiG9w0BCQEWD3Rlc3RzQHplcm9jLmNvbTAeFw0yNTA1MjIxNTEwMDlaFw0y
NjA2MjQxNTEwMDlaMIGMMRswGQYDVQQDDBJDQTEgSW50ZXJtZWRpYXRlIDExCzAJ
BgNVBAYTAlVTMRAwDgYDVQQIDAdGbG9yaWRhMRAwDgYDVQQHDAdKdXBpdGVyMQ4w
DAYDVQQKDAVaZXJvQzEMMAoGA1UECwwDSWNlMR4wHAYJKoZIhvcNAQkBFg90ZXN0
c0B6ZXJvYy5jb20wggEiMA0GCSqGSIb3DQEBAQUAA4IBDwAwggEKAoIBAQDcS6ZM
s2HYDEd0jGYxfwTty8St93AIskxUONZVmmnF0p98PMcUoE81FzlfPn/k4tH8rDtF
6uV2sOCLaaVdfvK57PUaIvEh2uglI8ZR/RJ4oRqxggJOh+VEBsnrik2GMHw8ip9d
FG7X5l9XwxRqXNr2jZKF5R/Pu6bvP1fz+1E/QUHJ4j4f9weQKE6+Cu75pIxK6G2X
1HoMB0nyrAep36sZC9p58D2a/uKWE6rKq6TTiYvABOV6ZH4BrrXYVf53J6+XAZ+5
FyKTlpgcVvtIzo4NtZgR2Cw4t0qVRfYK1W71mIwq7OdDUC3E1b86GaSvIAIy2uSj
XNLQDQyDYNuz2vJDAgMBAAGjYzBhMB0GA1UdDgQWBBR1mXYLzaJa6UmZJst8+vPd
mhfjvjAfBgNVHSMEGDAWgBTa/C8OZTiCpjeHil7IHPv7/4Z4xTAPBgNVHRMBAf8E
BTADAQH/MA4GA1UdDwEB/wQEAwIBhjANBgkqhkiG9w0BAQsFAAOCAQEAoIUZYDHo
IeG2oLm+wxotzlHhn3jpBAR2ZLGO5pJfBE+9s+ttM7bQG1gOMPnXJvWphtB5XPWo
hBe0WPGukXOCHP5TQOtjRSkyKkTrsPLk+rZuVrD0uQUwLEJcxfujXAeoZd+wT9DE
x0sXCKUq3V1MhVuPJHy7xErKlpg5HidBylVek6TQkqVXgASSgjpLf279H4mcdv9/
QzJVw+YL262RkE0hdqE2eDsjnp+xavKgknSUyIplmJur0vWMQ1sViHZZaaV3+rlQ
iRPQtD3Ugqghdy9nDYdPLWBrA7JqJOml+eXNd9bhMad3Xcg/dL/WO5jGNYqGgAzT
7INVBfRvVyhKfg==
-----END CERTIFICATE-----
