Certificate:
    Data:
        Version: 3 (0x2)
        Serial Number: 4097 (0x1001)
        Signature Algorithm: sha256WithRSAEncryption
        Issuer: C=US, ST=Florida, L=Jupiter, O=ZeroC, OU=Ice, CN=ZeroC Test CA 1/emailAddress=tests@zeroc.com
        Validity
            Not Before: May 22 15:10:10 2025 GMT
            Not After : Jun 24 15:10:10 2026 GMT
        Subject: CN=Client, C=US, ST=Florida, L=Jupiter, O=ZeroC, Inc., OU=Ice/emailAddress=info@zeroc.com
        Subject Public Key Info:
            Public Key Algorithm: rsaEncryption
                Public-Key: (2048 bit)
                Modulus:
                    00:de:fc:68:c3:92:62:bd:9e:af:de:ea:fa:d8:0f:
                    b3:a3:00:0a:b7:23:bd:e0:3e:fe:40:47:e0:26:95:
                    2f:cd:eb:ed:54:76:a0:3c:c4:c0:41:3a:c7:12:3c:
                    6d:d4:09:9e:58:73:15:8c:65:4b:9e:1d:f5:96:99:
                    46:0f:94:d5:37:81:b4:0e:fc:eb:79:93:85:85:ff:
                    e1:3c:06:92:28:09:85:e2:14:df:df:09:c3:f6:ff:
                    ed:71:9f:dc:04:ad:10:ce:1c:ed:d0:1e:71:39:d2:
                    9d:e1:a6:3f:98:17:15:60:89:fe:de:f3:e8:0e:53:
                    ee:e0:72:d9:ae:2b:f3:7f:8e:56:24:8c:a5:c4:c3:
                    e7:06:c0:70:a6:9a:54:9d:31:a6:ed:77:e8:40:58:
                    a3:c0:22:ab:96:27:ba:12:79:6d:d1:14:b0:6b:c3:
                    05:6e:1d:62:21:90:c0:26:29:1c:58:58:8d:63:64:
                    a6:61:60:74:75:f4:39:3c:0d:10:e2:be:f5:d7:b9:
                    25:fd:e3:49:f1:e8:27:e3:8f:d9:79:d9:1b:e5:e4:
                    79:c2:64:95:db:c8:3c:6a:f1:aa:a2:a9:68:af:a1:
                    72:75:88:2e:d7:75:36:44:6a:e7:c5:b7:56:08:a7:
                    cc:14:50:d6:fc:e3:9b:10:e2:3c:35:af:2f:6e:e7:
                    94:15
                Exponent: 65537 (0x10001)
        X509v3 extensions:
            X509v3 Subject Key Identifier: 
                EE:8B:2E:B2:BF:1C:60:86:E3:45:05:F9:7D:A3:73:94:18:31:B4:36
            X509v3 Authority Key Identifier: 
                DA:FC:2F:0E:65:38:82:A6:37:87:8A:5E:C8:1C:FB:FB:FF:86:78:C5
            X509v3 Key Usage: critical
                Digital Signature, Non Repudiation, Key Encipherment
            X509v3 Extended Key Usage: 
                TLS Web Client Authentication
            X509v3 Subject Alternative Name: 
                IP Address:127.0.0.1, DNS:client
    Signature Algorithm: sha256WithRSAEncryption
    Signature Value:
        71:e2:48:77:e9:af:c2:a3:6b:3d:75:76:37:fd:08:12:89:65:
        fd:6e:d1:34:ec:93:4c:d7:ec:0d:86:67:af:8e:47:0b:32:b8:
        e9:0d:3a:e8:22:f5:aa:08:8a:f2:72:23:a5:95:23:60:03:c2:
        30:3d:d6:c2:8e:35:e1:bd:03:1a:e6:75:27:73:92:02:29:67:
        4e:45:cc:38:58:63:82:bb:8f:db:03:73:96:2e:7e:15:fd:c6:
        9a:8f:be:db:a5:54:47:88:b5:cd:40:c7:4c:ec:09:bf:8f:21:
        01:3a:a7:c5:af:47:1d:c1:60:6d:1f:34:8b:4c:1a:42:f3:5d:
        64:2d:c8:ac:6e:f7:cc:44:f8:00:7f:ab:f3:12:63:84:d3:a3:
        e6:02:ce:f0:0f:82:17:9f:9e:f6:62:6f:e9:24:fc:d6:5c:37:
        51:a0:f3:db:4a:41:d4:f9:c2:05:5f:25:6f:a2:9e:4c:34:ac:
        92:f3:bf:e6:bb:00:63:64:a7:c6:44:c5:59:5b:fe:7e:a8:58:
        45:f6:18:8f:fa:cf:28:19:04:3c:fb:29:b8:14:1f:79:f5:84:
        09:75:1e:8b:c6:2e:1a:0f:40:cc:94:73:9d:ba:e2:1f:69:15:
        75:ed:08:0b:08:03:c5:d9:38:b2:4f:ce:21:51:66:57:3b:a0:
        e5:73:44:bd
-----BEGIN CERTIFICATE-----
MIIEDTCCAvWgAwIBAgICEAEwDQYJKoZIhvcNAQELBQAwgYkxCzAJBgNVBAYTAlVT
MRAwDgYDVQQIDAdGbG9yaWRhMRAwDgYDVQQHDAdKdXBpdGVyMQ4wDAYDVQQKDAVa
ZXJvQzEMMAoGA1UECwwDSWNlMRgwFgYDVQQDDA9aZXJvQyBUZXN0IENBIDExHjAc
BgkqhkiG9w0BCQEWD3Rlc3RzQHplcm9jLmNvbTAeFw0yNTA1MjIxNTEwMTBaFw0y
NjA2MjQxNTEwMTBaMIGFMQ8wDQYDVQQDDAZDbGllbnQxCzAJBgNVBAYTAlVTMRAw
DgYDVQQIDAdGbG9yaWRhMRAwDgYDVQQHDAdKdXBpdGVyMRQwEgYDVQQKDAtaZXJv
QywgSW5jLjEMMAoGA1UECwwDSWNlMR0wGwYJKoZIhvcNAQkBFg5pbmZvQHplcm9j
LmNvbTCCASIwDQYJKoZIhvcNAQEBBQADggEPADCCAQoCggEBAN78aMOSYr2er97q
+tgPs6MACrcjveA+/kBH4CaVL83r7VR2oDzEwEE6xxI8bdQJnlhzFYxlS54d9ZaZ
Rg+U1TeBtA7863mThYX/4TwGkigJheIU398Jw/b/7XGf3AStEM4c7dAecTnSneGm
P5gXFWCJ/t7z6A5T7uBy2a4r83+OViSMpcTD5wbAcKaaVJ0xpu136EBYo8Aiq5Yn
uhJ5bdEUsGvDBW4dYiGQwCYpHFhYjWNkpmFgdHX0OTwNEOK+9de5Jf3jSfHoJ+OP
2XnZG+XkecJkldvIPGrxqqKpaK+hcnWILtd1NkRq58W3VginzBRQ1vzjmxDiPDWv
L27nlBUCAwEAAaOBgDB+MB0GA1UdDgQWBBTuiy6yvxxghuNFBfl9o3OUGDG0NjAf
BgNVHSMEGDAWgBTa/C8OZTiCpjeHil7IHPv7/4Z4xTAOBgNVHQ8BAf8EBAMCBeAw
EwYDVR0lBAwwCgYIKwYBBQUHAwIwFwYDVR0RBBAwDocEfwAAAYIGY2xpZW50MA0G
CSqGSIb3DQEBCwUAA4IBAQBx4kh36a/Co2s9dXY3/QgSiWX9btE07JNM1+wNhmev
jkcLMrjpDTroIvWqCIryciOllSNgA8IwPdbCjjXhvQMa5nUnc5ICKWdORcw4WGOC
u4/bA3OWLn4V/caaj77bpVRHiLXNQMdM7Am/jyEBOqfFr0cdwWBtHzSLTBpC811k
LcisbvfMRPgAf6vzEmOE06PmAs7wD4IXn572Ym/pJPzWXDdRoPPbSkHU+cIFXyVv
op5MNKyS87/muwBjZKfGRMVZW/5+qFhF9hiP+s8oGQQ8+ym4FB959YQJdR6Lxi4a
D0DMlHOduuIfaRV17QgLCAPF2TiyT84hUWZXO6Dlc0S9
-----END CERTIFICATE-----
