Certificate:
    Data:
        Version: 3 (0x2)
        Serial Number: 4097 (0x1001)
        Signature Algorithm: sha256WithRSAEncryption
        Issuer: C=US, ST=Florida, L=Jupiter, O=ZeroC, OU=Ice, CN=ZeroC Test CA 1/emailAddress=tests@zeroc.com
        Validity
            Not Before: May 22 16:55:08 2025 GMT
            Not After : Jun 24 16:55:08 2026 GMT
        Subject: CN=Client, C=US, ST=Florida, L=Jupiter, O=ZeroC, Inc., OU=Ice/emailAddress=info@zeroc.com
        Subject Public Key Info:
            Public Key Algorithm: rsaEncryption
                Public-Key: (2048 bit)
                Modulus:
                    00:9c:4b:c8:ac:06:72:dc:42:97:57:ff:3d:8d:24:
                    c5:66:00:d1:ba:8d:59:63:ba:c7:70:ad:1d:51:6f:
                    8f:f7:d2:c0:56:a7:72:48:b4:c4:7c:c3:2b:cf:95:
                    19:74:35:ac:5b:2b:03:c0:6a:b6:38:4d:71:c7:54:
                    4d:25:ad:08:3a:55:52:6a:5a:6c:2f:e0:60:73:02:
                    c6:c6:cf:d9:51:f7:70:c7:17:cb:d4:e1:3e:89:97:
                    b6:6b:5e:d0:8e:40:4f:53:e5:7e:4d:d1:9a:12:23:
                    56:2f:ce:f5:d4:c2:ae:0c:0c:f0:1a:36:8d:e5:0c:
                    e6:45:2c:7a:e4:04:87:30:48:ba:b9:a4:a8:3d:a3:
                    de:b3:18:80:ae:2f:ce:8e:e7:02:10:c6:ef:4f:9d:
                    64:60:71:e3:49:0e:99:cd:d4:c7:e6:2c:13:8d:13:
                    04:e5:7b:e4:ec:6f:f3:c8:27:43:a4:62:e8:b6:5c:
                    dc:67:57:30:72:98:ee:bc:f9:cb:d5:6a:fe:3a:ce:
                    97:7b:9a:a7:bc:fc:22:76:4d:60:b1:e4:41:d2:82:
                    7b:52:7a:7b:fd:3d:ff:f9:0b:2f:dc:f8:fa:c9:df:
                    b1:90:44:b9:20:0c:75:be:6e:68:42:ac:e5:e8:4a:
                    ee:cf:54:49:2a:50:98:60:ff:98:1d:cb:c6:7f:8f:
                    fc:ff
                Exponent: 65537 (0x10001)
        X509v3 extensions:
            X509v3 Subject Key Identifier: 
                EF:E6:16:83:DF:C4:43:61:F6:DF:DF:5E:5C:3D:97:50:37:00:C5:B5
            X509v3 Authority Key Identifier: 
                75:F1:34:2D:9F:C0:A0:4E:71:BB:0C:37:85:8A:88:FC:6D:A2:28:55
            X509v3 Key Usage: critical
                Digital Signature, Non Repudiation, Key Encipherment
            X509v3 Extended Key Usage: 
                TLS Web Client Authentication
            X509v3 Subject Alternative Name: 
                IP Address:127.0.0.1, DNS:client
    Signature Algorithm: sha256WithRSAEncryption
    Signature Value:
        02:1e:e3:9d:dc:75:ad:46:a5:96:cb:8f:73:93:00:a4:b5:4f:
        b5:be:fb:65:f6:a8:2c:59:a8:6d:b9:14:c2:6d:6c:9c:30:2c:
        53:8e:1a:c3:a1:bc:41:1a:63:ad:05:1d:0e:c1:58:e8:ac:57:
        70:ec:a3:fe:39:96:e8:e3:c3:06:67:aa:21:73:38:3e:d1:e0:
        4e:5e:72:81:52:bf:fb:32:c5:66:e4:51:53:7b:6b:79:a2:78:
        0e:32:fe:95:af:e6:64:32:c2:e5:27:b6:48:43:3a:6a:cd:84:
        76:c6:2d:50:63:f4:60:a8:38:7d:7f:eb:3f:4a:1e:89:49:11:
        91:7c:de:3b:f1:75:73:39:75:c6:b6:4d:7f:75:b9:f7:58:af:
        68:5f:a9:55:bf:3d:8f:cf:22:74:90:83:13:f8:0d:a8:b2:1d:
        4d:d1:d8:dd:9f:8a:c1:b6:be:64:6d:db:54:84:28:7f:bc:13:
        48:2b:cb:08:32:7e:ce:05:0d:86:3c:53:01:46:cd:eb:1e:c4:
        72:5a:78:92:ba:3e:a3:36:2c:29:72:df:49:d5:e9:6c:49:b6:
        33:67:f0:28:f7:d2:57:f5:50:93:5b:91:45:2b:bf:1a:b1:cb:
        56:a8:11:dd:7a:92:70:79:11:98:74:ca:f0:45:5b:d9:9c:fc:
        d3:4c:e3:fb
-----BEGIN CERTIFICATE-----
MIIEDTCCAvWgAwIBAgICEAEwDQYJKoZIhvcNAQELBQAwgYkxCzAJBgNVBAYTAlVT
MRAwDgYDVQQIDAdGbG9yaWRhMRAwDgYDVQQHDAdKdXBpdGVyMQ4wDAYDVQQKDAVa
ZXJvQzEMMAoGA1UECwwDSWNlMRgwFgYDVQQDDA9aZXJvQyBUZXN0IENBIDExHjAc
BgkqhkiG9w0BCQEWD3Rlc3RzQHplcm9jLmNvbTAeFw0yNTA1MjIxNjU1MDhaFw0y
NjA2MjQxNjU1MDhaMIGFMQ8wDQYDVQQDDAZDbGllbnQxCzAJBgNVBAYTAlVTMRAw
DgYDVQQIDAdGbG9yaWRhMRAwDgYDVQQHDAdKdXBpdGVyMRQwEgYDVQQKDAtaZXJv
QywgSW5jLjEMMAoGA1UECwwDSWNlMR0wGwYJKoZIhvcNAQkBFg5pbmZvQHplcm9j
LmNvbTCCASIwDQYJKoZIhvcNAQEBBQADggEPADCCAQoCggEBAJxLyKwGctxCl1f/
PY0kxWYA0bqNWWO6x3CtHVFvj/fSwFancki0xHzDK8+VGXQ1rFsrA8BqtjhNccdU
TSWtCDpVUmpabC/gYHMCxsbP2VH3cMcXy9ThPomXtmte0I5AT1Plfk3RmhIjVi/O
9dTCrgwM8Bo2jeUM5kUseuQEhzBIurmkqD2j3rMYgK4vzo7nAhDG70+dZGBx40kO
mc3Ux+YsE40TBOV75Oxv88gnQ6Ri6LZc3GdXMHKY7rz5y9Vq/jrOl3uap7z8InZN
YLHkQdKCe1J6e/09//kLL9z4+snfsZBEuSAMdb5uaEKs5ehK7s9USSpQmGD/mB3L
xn+P/P8CAwEAAaOBgDB+MB0GA1UdDgQWBBTv5haD38RDYfbf315cPZdQNwDFtTAf
BgNVHSMEGDAWgBR18TQtn8CgTnG7DDeFioj8baIoVTAOBgNVHQ8BAf8EBAMCBeAw
EwYDVR0lBAwwCgYIKwYBBQUHAwIwFwYDVR0RBBAwDocEfwAAAYIGY2xpZW50MA0G
CSqGSIb3DQEBCwUAA4IBAQACHuOd3HWtRqWWy49zkwCktU+1vvtl9qgsWahtuRTC
bWycMCxTjhrDobxBGmOtBR0OwVjorFdw7KP+OZbo48MGZ6ohczg+0eBOXnKBUr/7
MsVm5FFTe2t5ongOMv6Vr+ZkMsLlJ7ZIQzpqzYR2xi1QY/RgqDh9f+s/Sh6JSRGR
fN478XVzOXXGtk1/dbn3WK9oX6lVvz2PzyJ0kIMT+A2osh1N0djdn4rBtr5kbdtU
hCh/vBNIK8sIMn7OBQ2GPFMBRs3rHsRyWniSuj6jNiwpct9J1elsSbYzZ/Ao99JX
9VCTW5FFK78asctWqBHdepJweRGYdMrwRVvZnPzTTOP7
-----END CERTIFICATE-----
