Certificate:
    Data:
        Version: 3 (0x2)
        Serial Number: 4098 (0x1002)
        Signature Algorithm: sha256WithRSAEncryption
        Issuer: C=US, ST=Florida, L=Jupiter, O=ZeroC, OU=Ice, CN=ZeroC Test CA 1/emailAddress=tests@zeroc.com
        Validity
            Not Before: May 22 15:10:10 2025 GMT
            Not After : Jun 24 15:10:10 2026 GMT
        Subject: CN=client, C=US, ST=Florida, L=Jupiter, O=ZeroC, Inc., OU=Ice/emailAddress=info@zeroc.com
        Subject Public Key Info:
            Public Key Algorithm: rsaEncryption
                Public-Key: (2048 bit)
                Modulus:
                    00:9f:e2:25:0b:6d:dc:c5:b7:b1:8e:13:fb:97:d6:
                    44:7e:bf:e5:94:44:2e:b4:f6:a1:f6:4a:62:f9:8b:
                    99:32:15:30:46:0e:4e:3d:3a:57:01:0a:37:6d:79:
                    13:2e:6c:39:4f:88:6f:db:be:1f:fc:50:30:e0:d6:
                    48:c3:da:93:96:9f:e1:6b:56:01:99:e0:1b:51:6f:
                    e4:bd:78:a8:73:b6:24:e3:2b:58:ee:56:57:e5:0a:
                    04:b7:b9:01:84:f1:4a:b7:f1:bf:4f:ca:3b:d6:e7:
                    59:bc:2a:14:cc:a8:fa:62:d6:70:71:e4:c3:de:27:
                    50:6d:c4:e6:44:85:1f:e0:9b:81:ae:76:70:c6:ef:
                    2a:60:48:0d:4e:94:79:18:1c:1d:59:69:c3:6c:b9:
                    d8:88:6d:5a:1a:b7:f9:f6:93:9b:91:91:bf:f5:20:
                    f1:5b:12:38:4e:e3:d8:64:2c:57:6e:81:cb:ab:5c:
                    03:32:ab:ad:ad:f5:8c:23:55:c6:fe:74:8b:02:d4:
                    94:f8:0c:07:e7:20:a3:38:4d:45:aa:6a:aa:79:dd:
                    19:85:e5:19:8a:5c:77:b6:1d:f5:f1:7a:94:20:8f:
                    ab:3b:9e:16:10:01:c2:56:f1:e7:50:24:31:e1:18:
                    81:f3:46:78:56:57:4a:bf:b6:77:35:ff:5d:22:25:
                    f3:89
                Exponent: 65537 (0x10001)
        X509v3 extensions:
            X509v3 Subject Key Identifier: 
                B6:F9:94:03:AF:B6:18:F8:BA:EB:43:E0:4B:A0:52:C8:12:39:32:33
            X509v3 Authority Key Identifier: 
                DA:FC:2F:0E:65:38:82:A6:37:87:8A:5E:C8:1C:FB:FB:FF:86:78:C5
            X509v3 Key Usage: critical
                Digital Signature, Non Repudiation, Key Encipherment
            X509v3 Extended Key Usage: 
                TLS Web Client Authentication
            X509v3 Subject Alternative Name: 
                IP Address:127.0.0.1, DNS:client
    Signature Algorithm: sha256WithRSAEncryption
    Signature Value:
        ba:47:22:a3:cb:3a:d1:c0:1e:58:54:e8:d9:08:1d:17:da:f9:
        43:e6:1c:eb:c2:6d:c4:16:c9:53:42:d5:56:19:4d:cb:c4:ff:
        8d:c7:f1:61:47:91:16:cd:f4:71:95:53:8b:4a:0d:1a:b5:f5:
        ff:4e:82:ed:af:26:01:18:3f:e8:8c:17:80:9d:37:f1:44:ea:
        81:ac:f8:50:ff:c3:47:11:eb:cc:64:81:e6:a9:eb:f3:56:c0:
        36:59:ba:a3:ed:69:04:92:3f:36:ee:df:26:51:3f:93:f6:40:
        ff:84:dd:47:01:cc:e6:b6:f9:ff:99:47:74:65:52:89:c1:da:
        91:e5:a9:c7:09:4d:ae:f2:9b:60:67:80:c3:23:a4:e9:e9:89:
        d6:a4:43:64:6b:c6:3a:c9:69:b5:7a:0b:4e:e3:fc:53:ac:d9:
        8f:6b:c7:cf:ff:35:0a:dc:a7:cb:cd:e8:1e:85:dd:2d:3b:23:
        c5:6c:a9:29:14:1b:c8:31:82:02:df:cb:b0:a1:b4:fb:ca:12:
        d8:ba:94:4b:75:5f:f2:d8:f6:56:61:89:33:7b:95:a4:de:2a:
        ba:8f:af:a7:93:dc:56:81:e2:c8:1a:1d:a8:5d:38:d8:3c:d1:
        c6:ca:f7:55:d3:b6:d3:00:ed:1a:1b:2b:3e:13:69:32:cd:33:
        e7:e2:15:b1
-----BEGIN CERTIFICATE-----
MIIEDTCCAvWgAwIBAgICEAIwDQYJKoZIhvcNAQELBQAwgYkxCzAJBgNVBAYTAlVT
MRAwDgYDVQQIDAdGbG9yaWRhMRAwDgYDVQQHDAdKdXBpdGVyMQ4wDAYDVQQKDAVa
ZXJvQzEMMAoGA1UECwwDSWNlMRgwFgYDVQQDDA9aZXJvQyBUZXN0IENBIDExHjAc
BgkqhkiG9w0BCQEWD3Rlc3RzQHplcm9jLmNvbTAeFw0yNTA1MjIxNTEwMTBaFw0y
NjA2MjQxNTEwMTBaMIGFMQ8wDQYDVQQDDAZjbGllbnQxCzAJBgNVBAYTAlVTMRAw
DgYDVQQIDAdGbG9yaWRhMRAwDgYDVQQHDAdKdXBpdGVyMRQwEgYDVQQKDAtaZXJv
QywgSW5jLjEMMAoGA1UECwwDSWNlMR0wGwYJKoZIhvcNAQkBFg5pbmZvQHplcm9j
LmNvbTCCASIwDQYJKoZIhvcNAQEBBQADggEPADCCAQoCggEBAJ/iJQtt3MW3sY4T
+5fWRH6/5ZRELrT2ofZKYvmLmTIVMEYOTj06VwEKN215Ey5sOU+Ib9u+H/xQMODW
SMPak5af4WtWAZngG1Fv5L14qHO2JOMrWO5WV+UKBLe5AYTxSrfxv0/KO9bnWbwq
FMyo+mLWcHHkw94nUG3E5kSFH+Cbga52cMbvKmBIDU6UeRgcHVlpw2y52IhtWhq3
+faTm5GRv/Ug8VsSOE7j2GQsV26By6tcAzKrra31jCNVxv50iwLUlPgMB+cgozhN
RapqqnndGYXlGYpcd7Yd9fF6lCCPqzueFhABwlbx51AkMeEYgfNGeFZXSr+2dzX/
XSIl84kCAwEAAaOBgDB+MB0GA1UdDgQWBBS2+ZQDr7YY+LrrQ+BLoFLIEjkyMzAf
BgNVHSMEGDAWgBTa/C8OZTiCpjeHil7IHPv7/4Z4xTAOBgNVHQ8BAf8EBAMCBeAw
EwYDVR0lBAwwCgYIKwYBBQUHAwIwFwYDVR0RBBAwDocEfwAAAYIGY2xpZW50MA0G
CSqGSIb3DQEBCwUAA4IBAQC6RyKjyzrRwB5YVOjZCB0X2vlD5hzrwm3EFslTQtVW
GU3LxP+Nx/FhR5EWzfRxlVOLSg0atfX/ToLtryYBGD/ojBeAnTfxROqBrPhQ/8NH
EevMZIHmqevzVsA2Wbqj7WkEkj827t8mUT+T9kD/hN1HAczmtvn/mUd0ZVKJwdqR
5anHCU2u8ptgZ4DDI6Tp6YnWpENka8Y6yWm1egtO4/xTrNmPa8fP/zUK3KfLzege
hd0tOyPFbKkpFBvIMYIC38uwobT7yhLYupRLdV/y2PZWYYkze5Wk3iq6j6+nk9xW
geLIGh2oXTjYPNHGyvdV07bTAO0aGys+E2kyzTPn4hWx
-----END CERTIFICATE-----
