Certificate:
    Data:
        Version: 3 (0x2)
        Serial Number: 4098 (0x1002)
        Signature Algorithm: sha256WithRSAEncryption
        Issuer: C=US, ST=Florida, L=Jupiter, O=ZeroC, OU=Ice, CN=ZeroC Test CA 1/emailAddress=tests@zeroc.com
        Validity
            Not Before: May 22 16:55:09 2025 GMT
            Not After : Jun 24 16:55:09 2026 GMT
        Subject: CN=client, C=US, ST=Florida, L=Jupiter, O=ZeroC, Inc., OU=Ice/emailAddress=info@zeroc.com
        Subject Public Key Info:
            Public Key Algorithm: rsaEncryption
                Public-Key: (2048 bit)
                Modulus:
                    00:c6:5f:8b:bd:75:4a:bc:f9:7e:84:92:07:a5:4b:
                    3c:b9:6a:9e:27:38:4b:0c:f3:c6:a5:65:d3:42:e0:
                    55:cc:e6:79:f1:3e:d4:61:c4:ab:b3:c4:63:77:1d:
                    85:59:4b:eb:fb:26:85:64:a4:c9:c1:af:c1:20:bf:
                    c2:f6:a0:96:87:f9:01:d8:0c:62:5a:4d:2e:b6:19:
                    cf:31:e1:0f:d9:b4:ed:05:d1:f0:98:79:ac:1f:eb:
                    82:98:51:b7:d3:98:45:e2:e6:3f:c9:a1:50:bf:4b:
                    ca:ce:05:1c:69:3b:c4:02:11:4d:18:8a:8d:1d:03:
                    08:a9:44:f4:24:30:b4:8a:de:5e:07:1b:62:48:5c:
                    3e:5e:8d:20:ea:67:27:2c:55:81:94:0d:0f:51:e1:
                    36:ee:97:b4:93:e7:7d:92:ad:06:8e:e7:35:7f:29:
                    06:0e:0e:95:77:2e:a6:b3:aa:f8:5f:44:1b:da:46:
                    fb:3f:50:ca:f9:7f:28:d5:45:56:c8:f9:e2:1b:d4:
                    e4:dd:3e:d3:9e:4b:8c:6e:fe:cf:13:61:d8:ba:ad:
                    c9:12:9d:f8:84:46:54:40:d0:a4:91:29:8c:c6:bf:
                    58:f0:73:1d:9f:c5:28:63:d2:ec:e9:8f:51:f5:81:
                    f8:6c:10:aa:4f:bc:c7:35:1b:72:a8:ae:fd:9e:9f:
                    f3:51
                Exponent: 65537 (0x10001)
        X509v3 extensions:
            X509v3 Subject Key Identifier: 
                9D:B3:5D:E7:CC:06:47:CE:71:7F:DF:6A:9A:3C:2F:66:93:5E:57:FE
            X509v3 Authority Key Identifier: 
                75:F1:34:2D:9F:C0:A0:4E:71:BB:0C:37:85:8A:88:FC:6D:A2:28:55
            X509v3 Key Usage: critical
                Digital Signature, Non Repudiation, Key Encipherment
            X509v3 Extended Key Usage: 
                TLS Web Client Authentication
            X509v3 Subject Alternative Name: 
                IP Address:127.0.0.1, DNS:client
    Signature Algorithm: sha256WithRSAEncryption
    Signature Value:
        43:37:cc:d1:f8:73:17:a5:58:20:52:22:e0:80:70:65:44:06:
        03:ac:fe:15:1b:f2:c8:e6:bb:ae:ce:26:8b:ee:ee:e3:b0:b8:
        ef:4a:ef:d5:6e:e2:23:8f:ed:50:69:84:19:2a:4d:3d:da:3f:
        71:6b:ac:d9:03:e1:a9:1c:7a:b6:1b:0f:ac:10:87:ca:fc:e8:
        cd:26:4e:27:4e:2f:ba:22:43:cc:fe:f5:5b:42:45:7d:73:cf:
        6b:c4:b2:92:87:63:84:59:69:62:dc:a9:17:1a:b7:55:1f:21:
        ef:76:d8:1a:02:b6:06:28:44:da:66:ef:e4:91:9e:f4:42:06:
        3d:f5:f1:37:69:53:26:d6:d3:8f:de:2e:4f:89:9f:2d:85:97:
        98:e8:7a:0a:1a:a4:a3:87:04:e9:34:fa:db:0e:eb:b8:72:54:
        05:33:fe:f3:9e:92:c3:97:4e:0f:0e:ed:af:55:3c:b9:c6:44:
        22:ce:10:05:b8:8c:42:25:ce:78:48:c9:e7:25:15:4f:f0:ea:
        e4:3c:cd:2c:d2:eb:70:fc:22:18:c5:68:15:bc:7d:20:56:ed:
        23:a5:10:4c:85:f9:56:28:48:bf:92:bf:4d:29:b3:2f:e5:80:
        9d:5f:49:a2:74:5d:30:1c:bd:e1:fb:1d:93:5d:f8:2d:2d:05:
        45:e1:dd:05
-----BEGIN CERTIFICATE-----
MIIEDTCCAvWgAwIBAgICEAIwDQYJKoZIhvcNAQELBQAwgYkxCzAJBgNVBAYTAlVT
MRAwDgYDVQQIDAdGbG9yaWRhMRAwDgYDVQQHDAdKdXBpdGVyMQ4wDAYDVQQKDAVa
ZXJvQzEMMAoGA1UECwwDSWNlMRgwFgYDVQQDDA9aZXJvQyBUZXN0IENBIDExHjAc
BgkqhkiG9w0BCQEWD3Rlc3RzQHplcm9jLmNvbTAeFw0yNTA1MjIxNjU1MDlaFw0y
NjA2MjQxNjU1MDlaMIGFMQ8wDQYDVQQDDAZjbGllbnQxCzAJBgNVBAYTAlVTMRAw
DgYDVQQIDAdGbG9yaWRhMRAwDgYDVQQHDAdKdXBpdGVyMRQwEgYDVQQKDAtaZXJv
QywgSW5jLjEMMAoGA1UECwwDSWNlMR0wGwYJKoZIhvcNAQkBFg5pbmZvQHplcm9j
LmNvbTCCASIwDQYJKoZIhvcNAQEBBQADggEPADCCAQoCggEBAMZfi711Srz5foSS
B6VLPLlqnic4SwzzxqVl00LgVczmefE+1GHEq7PEY3cdhVlL6/smhWSkycGvwSC/
wvaglof5AdgMYlpNLrYZzzHhD9m07QXR8Jh5rB/rgphRt9OYReLmP8mhUL9Lys4F
HGk7xAIRTRiKjR0DCKlE9CQwtIreXgcbYkhcPl6NIOpnJyxVgZQND1HhNu6XtJPn
fZKtBo7nNX8pBg4OlXcuprOq+F9EG9pG+z9Qyvl/KNVFVsj54hvU5N0+055LjG7+
zxNh2LqtyRKd+IRGVEDQpJEpjMa/WPBzHZ/FKGPS7OmPUfWB+GwQqk+8xzUbcqiu
/Z6f81ECAwEAAaOBgDB+MB0GA1UdDgQWBBSds13nzAZHznF/32qaPC9mk15X/jAf
BgNVHSMEGDAWgBR18TQtn8CgTnG7DDeFioj8baIoVTAOBgNVHQ8BAf8EBAMCBeAw
EwYDVR0lBAwwCgYIKwYBBQUHAwIwFwYDVR0RBBAwDocEfwAAAYIGY2xpZW50MA0G
CSqGSIb3DQEBCwUAA4IBAQBDN8zR+HMXpVggUiLggHBlRAYDrP4VG/LI5ruuziaL
7u7jsLjvSu/VbuIjj+1QaYQZKk092j9xa6zZA+GpHHq2Gw+sEIfK/OjNJk4nTi+6
IkPM/vVbQkV9c89rxLKSh2OEWWli3KkXGrdVHyHvdtgaArYGKETaZu/kkZ70QgY9
9fE3aVMm1tOP3i5PiZ8thZeY6HoKGqSjhwTpNPrbDuu4clQFM/7znpLDl04PDu2v
VTy5xkQizhAFuIxCJc54SMnnJRVP8OrkPM0s0utw/CIYxWgVvH0gVu0jpRBMhflW
KEi/kr9NKbMv5YCdX0midF0wHL3h+x2TXfgtLQVF4d0F
-----END CERTIFICATE-----
