Certificate:
    Data:
        Version: 3 (0x2)
        Serial Number: 4098 (0x1002)
        Signature Algorithm: sha256WithRSAEncryption
        Issuer: C=US, ST=Florida, L=Jupiter, O=ZeroC, OU=Ice, CN=ZeroC Test CA 1/emailAddress=tests@zeroc.com
        Validity
            Not Before: May 22 16:16:05 2025 GMT
            Not After : Jun 24 16:16:05 2026 GMT
        Subject: CN=client, C=US, ST=Florida, L=Jupiter, O=ZeroC, Inc., OU=Ice/emailAddress=info@zeroc.com
        Subject Public Key Info:
            Public Key Algorithm: rsaEncryption
                Public-Key: (2048 bit)
                Modulus:
                    00:8c:f9:bf:b6:5b:9b:50:63:78:d0:e8:71:25:34:
                    0a:c5:6f:14:cc:4d:33:f8:8a:d7:9f:ed:48:2f:9f:
                    52:6e:1b:92:78:68:76:f5:4e:3c:eb:0d:95:f6:6e:
                    27:a5:4b:e2:34:b9:f3:98:fb:37:16:fc:27:ab:6c:
                    f3:80:73:84:ac:05:03:23:5b:35:c0:0d:6b:92:fe:
                    19:d0:1d:5a:bc:cb:f5:bd:54:5d:cd:dd:9c:98:d6:
                    ec:2c:dd:6f:47:c7:d7:b6:e0:e7:43:61:8d:e4:56:
                    5d:7a:4e:11:1e:28:66:98:44:d8:f6:94:36:9a:fa:
                    fb:93:dc:c6:5b:e9:94:fa:18:90:62:50:76:a3:82:
                    5d:ed:b2:59:e2:3a:2d:d5:38:96:8c:9e:1c:c2:8d:
                    6c:3c:eb:d7:67:98:41:15:d8:67:72:a4:57:a8:06:
                    19:15:36:f0:5b:6c:41:9a:92:5f:a7:57:85:dd:85:
                    57:8e:81:c6:61:75:8a:9a:ed:ca:96:c1:b8:1d:b0:
                    79:b2:83:03:96:d5:63:7f:25:70:29:48:64:fc:47:
                    29:a6:07:dc:2e:de:99:b8:80:7b:37:42:dc:a9:33:
                    66:66:d2:df:87:c6:64:05:b2:08:28:32:ed:b4:aa:
                    76:3d:70:c8:72:ff:c1:63:6c:a8:40:5e:ab:7f:f1:
                    5c:65
                Exponent: 65537 (0x10001)
        X509v3 extensions:
            X509v3 Subject Key Identifier: 
                84:24:13:5E:F4:41:01:9E:F0:A9:22:36:FC:31:64:2A:87:A2:C2:27
            X509v3 Authority Key Identifier: 
                F7:4F:F3:3B:30:9F:3B:1F:27:4E:C3:C7:A4:7F:0C:FA:A6:40:B6:A1
            X509v3 Key Usage: critical
                Digital Signature, Non Repudiation, Key Encipherment
            X509v3 Extended Key Usage: 
                TLS Web Client Authentication
            X509v3 Subject Alternative Name: 
                IP Address:127.0.0.1, DNS:client
    Signature Algorithm: sha256WithRSAEncryption
    Signature Value:
        03:41:b3:69:07:b0:bf:38:57:39:c6:55:37:54:b6:29:1a:e6:
        87:a4:e2:4c:c8:27:5c:50:3f:d7:2c:8a:0e:f2:15:6b:79:61:
        a6:ab:ba:b9:e8:9e:1b:96:e3:2a:09:95:99:39:11:2f:15:85:
        9c:aa:8a:e0:78:c6:65:51:82:07:68:49:8a:1f:cc:ac:ee:2b:
        53:e9:84:84:74:74:d2:bc:2a:82:51:ba:c4:c1:ae:6e:83:bf:
        b8:ac:a9:a7:91:87:b3:46:74:24:e2:7a:6a:3c:cd:61:98:f1:
        94:b9:1d:cc:9a:9c:6d:2c:c4:5d:7c:24:ff:ff:8b:5f:99:21:
        43:2b:ee:a6:a5:cb:3d:a1:de:10:b8:85:94:3b:a9:e7:73:19:
        61:ed:a4:53:ea:6e:fd:d1:e5:2e:3b:3f:e7:5d:d4:a0:04:79:
        ef:79:c4:e7:4a:a9:88:9d:94:ae:57:6e:c1:c7:ba:82:d4:5d:
        6c:0a:30:56:02:9e:e3:ae:5c:70:ee:52:f0:3b:8b:12:24:c7:
        a0:8e:1a:32:6a:ef:43:d7:40:7e:42:f9:8c:1d:8d:60:af:d6:
        51:f9:51:36:d1:aa:25:30:66:7f:3c:a9:9a:ce:a1:51:80:8c:
        8c:89:30:42:17:13:6c:32:69:af:a7:cf:e7:d9:6e:6c:f5:0b:
        21:9c:b0:7d
-----BEGIN CERTIFICATE-----
MIIEDTCCAvWgAwIBAgICEAIwDQYJKoZIhvcNAQELBQAwgYkxCzAJBgNVBAYTAlVT
MRAwDgYDVQQIDAdGbG9yaWRhMRAwDgYDVQQHDAdKdXBpdGVyMQ4wDAYDVQQKDAVa
ZXJvQzEMMAoGA1UECwwDSWNlMRgwFgYDVQQDDA9aZXJvQyBUZXN0IENBIDExHjAc
BgkqhkiG9w0BCQEWD3Rlc3RzQHplcm9jLmNvbTAeFw0yNTA1MjIxNjE2MDVaFw0y
NjA2MjQxNjE2MDVaMIGFMQ8wDQYDVQQDDAZjbGllbnQxCzAJBgNVBAYTAlVTMRAw
DgYDVQQIDAdGbG9yaWRhMRAwDgYDVQQHDAdKdXBpdGVyMRQwEgYDVQQKDAtaZXJv
QywgSW5jLjEMMAoGA1UECwwDSWNlMR0wGwYJKoZIhvcNAQkBFg5pbmZvQHplcm9j
LmNvbTCCASIwDQYJKoZIhvcNAQEBBQADggEPADCCAQoCggEBAIz5v7Zbm1BjeNDo
cSU0CsVvFMxNM/iK15/tSC+fUm4bknhodvVOPOsNlfZuJ6VL4jS585j7Nxb8J6ts
84BzhKwFAyNbNcANa5L+GdAdWrzL9b1UXc3dnJjW7Czdb0fH17bg50NhjeRWXXpO
ER4oZphE2PaUNpr6+5PcxlvplPoYkGJQdqOCXe2yWeI6LdU4loyeHMKNbDzr12eY
QRXYZ3KkV6gGGRU28FtsQZqSX6dXhd2FV46BxmF1iprtypbBuB2webKDA5bVY38l
cClIZPxHKaYH3C7embiAezdC3KkzZmbS34fGZAWyCCgy7bSqdj1wyHL/wWNsqEBe
q3/xXGUCAwEAAaOBgDB+MB0GA1UdDgQWBBSEJBNe9EEBnvCpIjb8MWQqh6LCJzAf
BgNVHSMEGDAWgBT3T/M7MJ87HydOw8ekfwz6pkC2oTAOBgNVHQ8BAf8EBAMCBeAw
EwYDVR0lBAwwCgYIKwYBBQUHAwIwFwYDVR0RBBAwDocEfwAAAYIGY2xpZW50MA0G
CSqGSIb3DQEBCwUAA4IBAQADQbNpB7C/OFc5xlU3VLYpGuaHpOJMyCdcUD/XLIoO
8hVreWGmq7q56J4bluMqCZWZOREvFYWcqorgeMZlUYIHaEmKH8ys7itT6YSEdHTS
vCqCUbrEwa5ug7+4rKmnkYezRnQk4npqPM1hmPGUuR3MmpxtLMRdfCT//4tfmSFD
K+6mpcs9od4QuIWUO6nncxlh7aRT6m790eUuOz/nXdSgBHnvecTnSqmInZSuV27B
x7qC1F1sCjBWAp7jrlxw7lLwO4sSJMegjhoyau9D10B+QvmMHY1gr9ZR+VE20aol
MGZ/PKmazqFRgIyMiTBCFxNsMmmvp8/n2W5s9QshnLB9
-----END CERTIFICATE-----
