Certificate:
    Data:
        Version: 3 (0x2)
        Serial Number: 4099 (0x1003)
        Signature Algorithm: sha256WithRSAEncryption
        Issuer: C=US, ST=Florida, L=Jupiter, O=ZeroC, OU=Ice, CN=ZeroC Test CA 1/emailAddress=tests@zeroc.com
        Validity
            Not Before: May 22 16:16:07 2025 GMT
            Not After : Jun 24 16:16:07 2026 GMT
        Subject: CN=server, C=US, ST=Florida, L=Jupiter, O=ZeroC, Inc., OU=Ice CN2/emailAddress=info@zeroc.com
        Subject Public Key Info:
            Public Key Algorithm: rsaEncryption
                Public-Key: (2048 bit)
                Modulus:
                    00:a0:f6:e3:36:39:e0:dc:a3:91:9d:af:e0:fc:9d:
                    d9:ba:85:1a:77:fa:37:fc:48:65:ec:ba:3a:ed:c8:
                    66:69:54:7e:64:4c:8b:7c:6d:1f:57:10:a4:f3:87:
                    1f:ad:43:05:d9:1a:b4:49:fb:16:07:4b:95:24:8d:
                    eb:48:b6:e9:ad:63:8c:96:35:ac:a5:10:4e:09:3a:
                    48:38:b3:a4:27:16:0a:83:fa:2a:84:b4:bb:2e:59:
                    e6:8b:10:06:d3:68:9a:fa:3b:01:da:fa:fb:fe:d0:
                    79:87:88:0c:d9:3f:b9:34:1c:11:2f:0b:e6:8a:0b:
                    4c:3c:28:a7:c6:b2:1b:a4:20:d9:d6:8c:12:66:47:
                    88:02:11:f9:48:9c:e1:3b:b4:a2:44:36:3c:25:85:
                    be:c6:45:cd:c2:77:4f:39:99:11:ca:e3:62:4d:9c:
                    92:fc:9c:a7:e8:33:34:b1:f4:e4:45:c2:73:96:d8:
                    18:1b:d4:ad:d2:52:3e:00:ae:24:b3:ff:63:28:1c:
                    c1:12:eb:e4:45:a1:e6:d5:0d:c9:75:0f:28:53:a8:
                    26:26:55:d3:04:27:ee:28:b8:06:ba:6f:c9:8f:74:
                    cd:40:5b:93:14:21:c5:bb:4d:4b:27:f4:89:27:4d:
                    cc:9a:2a:00:46:8c:60:52:9d:c3:08:f4:51:8e:10:
                    30:55
                Exponent: 65537 (0x10001)
        X509v3 extensions:
            X509v3 Subject Key Identifier: 
                30:32:02:4D:33:AC:FF:BD:40:19:0A:C8:B4:8D:13:25:C1:DA:71:5D
            X509v3 Authority Key Identifier: 
                F7:4F:F3:3B:30:9F:3B:1F:27:4E:C3:C7:A4:7F:0C:FA:A6:40:B6:A1
            X509v3 Key Usage: critical
                Digital Signature, Non Repudiation, Key Encipherment
            X509v3 Extended Key Usage: 
                TLS Web Server Authentication, TLS Web Client Authentication
            X509v3 Subject Alternative Name: 
                DNS:localhostX
    Signature Algorithm: sha256WithRSAEncryption
    Signature Value:
        28:9d:16:e6:d4:25:f6:45:8d:1d:aa:2e:34:e8:d5:20:13:d8:
        1a:6c:48:35:d8:b7:bc:9f:0e:6d:f2:6f:82:ee:ae:79:3e:b0:
        89:13:58:cc:79:3f:e1:00:b0:7c:f2:66:8c:3f:43:1b:da:30:
        4d:b5:d9:b4:09:01:0b:58:4a:dd:09:69:f4:af:2c:e7:3f:ef:
        94:7f:d1:6d:b5:2b:e5:c6:bc:2f:a1:da:d5:6f:d6:67:b4:59:
        19:b4:ee:0d:aa:bf:cf:2f:63:8e:67:34:ae:a8:98:05:ba:5f:
        69:3d:0f:40:f3:4e:72:a5:39:44:ac:1d:05:9b:ca:2c:fa:b4:
        00:68:dc:f3:f4:d1:54:21:f9:43:0a:ba:92:b9:ef:ad:9c:7d:
        ed:56:b9:21:24:f2:58:d3:46:ae:f4:3a:4d:8d:ce:a3:39:ec:
        89:28:3b:50:58:59:88:42:3b:49:bb:13:2d:f5:d4:4e:ed:c1:
        79:16:e5:a6:97:09:7d:28:2e:69:36:01:60:a5:1c:ee:fe:f5:
        a6:db:02:e8:76:ac:53:85:52:8e:39:2d:1c:d6:2e:25:97:00:
        03:24:6a:22:3c:4a:4e:0f:ae:2d:c3:b5:85:4c:bc:db:83:e6:
        40:73:1c:5d:cf:62:d8:bd:50:e5:76:bd:9a:d0:76:de:ed:1d:
        9f:bb:60:d3
-----BEGIN CERTIFICATE-----
MIIEGjCCAwKgAwIBAgICEAMwDQYJKoZIhvcNAQELBQAwgYkxCzAJBgNVBAYTAlVT
MRAwDgYDVQQIDAdGbG9yaWRhMRAwDgYDVQQHDAdKdXBpdGVyMQ4wDAYDVQQKDAVa
ZXJvQzEMMAoGA1UECwwDSWNlMRgwFgYDVQQDDA9aZXJvQyBUZXN0IENBIDExHjAc
BgkqhkiG9w0BCQEWD3Rlc3RzQHplcm9jLmNvbTAeFw0yNTA1MjIxNjE2MDdaFw0y
NjA2MjQxNjE2MDdaMIGJMQ8wDQYDVQQDDAZzZXJ2ZXIxCzAJBgNVBAYTAlVTMRAw
DgYDVQQIDAdGbG9yaWRhMRAwDgYDVQQHDAdKdXBpdGVyMRQwEgYDVQQKDAtaZXJv
QywgSW5jLjEQMA4GA1UECwwHSWNlIENOMjEdMBsGCSqGSIb3DQEJARYOaW5mb0B6
ZXJvYy5jb20wggEiMA0GCSqGSIb3DQEBAQUAA4IBDwAwggEKAoIBAQCg9uM2OeDc
o5Gdr+D8ndm6hRp3+jf8SGXsujrtyGZpVH5kTIt8bR9XEKTzhx+tQwXZGrRJ+xYH
S5UkjetItumtY4yWNaylEE4JOkg4s6QnFgqD+iqEtLsuWeaLEAbTaJr6OwHa+vv+
0HmHiAzZP7k0HBEvC+aKC0w8KKfGshukINnWjBJmR4gCEflInOE7tKJENjwlhb7G
Rc3Cd085mRHK42JNnJL8nKfoMzSx9ORFwnOW2Bgb1K3SUj4AriSz/2MoHMES6+RF
oebVDcl1DyhTqCYmVdMEJ+4ouAa6b8mPdM1AW5MUIcW7TUsn9IknTcyaKgBGjGBS
ncMI9FGOEDBVAgMBAAGjgYkwgYYwHQYDVR0OBBYEFDAyAk0zrP+9QBkKyLSNEyXB
2nFdMB8GA1UdIwQYMBaAFPdP8zswnzsfJ07Dx6R/DPqmQLahMA4GA1UdDwEB/wQE
AwIF4DAdBgNVHSUEFjAUBggrBgEFBQcDAQYIKwYBBQUHAwIwFQYDVR0RBA4wDIIK
bG9jYWxob3N0WDANBgkqhkiG9w0BAQsFAAOCAQEAKJ0W5tQl9kWNHaouNOjVIBPY
GmxINdi3vJ8ObfJvgu6ueT6wiRNYzHk/4QCwfPJmjD9DG9owTbXZtAkBC1hK3Qlp
9K8s5z/vlH/RbbUr5ca8L6Ha1W/WZ7RZGbTuDaq/zy9jjmc0rqiYBbpfaT0PQPNO
cqU5RKwdBZvKLPq0AGjc8/TRVCH5Qwq6krnvrZx97Va5ISTyWNNGrvQ6TY3Oozns
iSg7UFhZiEI7SbsTLfXUTu3BeRblppcJfSguaTYBYKUc7v71ptsC6HasU4VSjjkt
HNYuJZcAAyRqIjxKTg+uLcO1hUy824PmQHMcXc9i2L1Q5Xa9mtB23u0dn7tg0w==
-----END CERTIFICATE-----
