Certificate:
    Data:
        Version: 3 (0x2)
        Serial Number: 4100 (0x1004)
        Signature Algorithm: sha256WithRSAEncryption
        Issuer: C=US, ST=Florida, L=Jupiter, O=ZeroC, OU=Ice, CN=ZeroC Test CA 1/emailAddress=tests@zeroc.com
        Validity
            Not Before: May 22 16:55:11 2025 GMT
            Not After : Jun 24 16:55:11 2026 GMT
        Subject: CN=localhost, C=US, ST=Florida, L=Jupiter, O=ZeroC, Inc., OU=Ice CN3/emailAddress=info@zeroc.com
        Subject Public Key Info:
            Public Key Algorithm: rsaEncryption
                Public-Key: (2048 bit)
                Modulus:
                    00:ad:76:8f:89:bb:38:3a:6b:14:2a:a9:09:3e:71:
                    55:9c:69:11:01:cb:aa:96:69:ea:05:9f:2b:78:46:
                    ab:8a:e0:af:98:d3:4c:2a:b5:ea:19:c5:6a:d1:e5:
                    57:25:74:80:cb:53:4f:4e:6c:cf:21:c5:17:d7:38:
                    44:72:be:8f:44:20:b7:58:8d:4d:3b:dc:0a:2f:37:
                    02:1d:2a:9e:19:71:25:c7:a8:a9:b0:58:d2:d8:aa:
                    ed:06:8c:42:14:50:c7:ef:14:81:f1:f8:96:3b:8b:
                    11:7e:f1:bf:b8:ed:49:ec:a1:ec:f1:7d:88:9d:41:
                    26:34:7a:79:b5:38:2b:3a:18:77:1b:e4:4c:db:bd:
                    8a:49:21:aa:04:99:a3:71:06:af:79:70:f9:57:5c:
                    28:da:13:6f:d2:8c:89:9c:c8:18:e6:6c:35:b6:16:
                    62:55:57:33:b3:a0:04:49:45:de:21:ac:de:0d:2f:
                    af:04:87:e3:f6:e5:0a:a1:a1:25:e0:a2:00:71:df:
                    8a:45:6d:3e:bb:47:ba:d1:ef:95:b6:63:e0:a4:b7:
                    b7:61:b5:fe:d8:a9:7e:c6:b6:83:4b:70:7b:38:b2:
                    ce:f7:72:02:13:1a:44:73:a6:c4:bf:93:15:d0:55:
                    2b:4f:73:0f:c0:49:74:81:e4:a6:89:2e:f1:37:4a:
                    0f:fd
                Exponent: 65537 (0x10001)
        X509v3 extensions:
            X509v3 Subject Key Identifier: 
                18:7B:74:5F:C7:1F:3F:7E:5E:8E:91:30:05:77:76:2F:85:A5:3E:A5
            X509v3 Authority Key Identifier: 
                75:F1:34:2D:9F:C0:A0:4E:71:BB:0C:37:85:8A:88:FC:6D:A2:28:55
            X509v3 Key Usage: critical
                Digital Signature, Non Repudiation, Key Encipherment
            X509v3 Extended Key Usage: 
                TLS Web Server Authentication
    Signature Algorithm: sha256WithRSAEncryption
    Signature Value:
        3c:7a:eb:09:91:11:88:57:fa:52:ca:92:8c:6f:f3:6e:4b:b0:
        61:b8:db:6a:f0:f8:69:06:40:7d:66:7d:98:10:59:87:e0:0c:
        c2:af:11:2a:8c:eb:df:02:11:71:3e:67:56:ab:31:84:ad:e7:
        e9:d7:28:9a:57:30:0d:e0:02:8a:b0:21:76:98:5f:02:67:61:
        1c:3c:98:b2:c2:18:d2:b3:68:d4:f8:58:f2:d9:11:a9:ab:bf:
        a2:07:50:8a:af:ae:4d:b7:66:bc:18:47:47:40:f8:55:1b:63:
        d2:b5:5e:53:9c:80:72:de:de:e6:bb:b6:7d:98:19:a4:53:55:
        f8:81:2f:7b:85:71:7b:64:0b:21:95:b2:77:46:42:ff:f4:bc:
        20:50:72:77:ad:e5:a2:d5:3d:1a:6b:5c:5a:95:df:8c:e2:cd:
        82:9c:61:d5:13:5e:e8:8a:85:d7:08:d4:f1:5d:3f:25:2c:ca:
        03:6d:d7:b6:f1:76:07:3d:13:f5:a4:f5:fc:3d:17:eb:e0:db:
        c3:92:a0:1e:b5:b8:6d:fb:4f:a6:96:34:20:53:3f:69:02:25:
        47:6e:fd:8a:a9:be:47:c9:24:e8:3c:c0:08:76:7b:a9:92:80:
        d8:25:ef:fc:fa:27:1d:b1:02:0b:03:5b:5d:d7:5c:52:9f:6a:
        87:76:14:07
-----BEGIN CERTIFICATE-----
MIID+jCCAuKgAwIBAgICEAQwDQYJKoZIhvcNAQELBQAwgYkxCzAJBgNVBAYTAlVT
MRAwDgYDVQQIDAdGbG9yaWRhMRAwDgYDVQQHDAdKdXBpdGVyMQ4wDAYDVQQKDAVa
ZXJvQzEMMAoGA1UECwwDSWNlMRgwFgYDVQQDDA9aZXJvQyBUZXN0IENBIDExHjAc
BgkqhkiG9w0BCQEWD3Rlc3RzQHplcm9jLmNvbTAeFw0yNTA1MjIxNjU1MTFaFw0y
NjA2MjQxNjU1MTFaMIGMMRIwEAYDVQQDDAlsb2NhbGhvc3QxCzAJBgNVBAYTAlVT
MRAwDgYDVQQIDAdGbG9yaWRhMRAwDgYDVQQHDAdKdXBpdGVyMRQwEgYDVQQKDAta
ZXJvQywgSW5jLjEQMA4GA1UECwwHSWNlIENOMzEdMBsGCSqGSIb3DQEJARYOaW5m
b0B6ZXJvYy5jb20wggEiMA0GCSqGSIb3DQEBAQUAA4IBDwAwggEKAoIBAQCtdo+J
uzg6axQqqQk+cVWcaREBy6qWaeoFnyt4RquK4K+Y00wqteoZxWrR5VcldIDLU09O
bM8hxRfXOERyvo9EILdYjU073AovNwIdKp4ZcSXHqKmwWNLYqu0GjEIUUMfvFIHx
+JY7ixF+8b+47UnsoezxfYidQSY0enm1OCs6GHcb5EzbvYpJIaoEmaNxBq95cPlX
XCjaE2/SjImcyBjmbDW2FmJVVzOzoARJRd4hrN4NL68Eh+P25QqhoSXgogBx34pF
bT67R7rR75W2Y+Ckt7dhtf7YqX7GtoNLcHs4ss73cgITGkRzpsS/kxXQVStPcw/A
SXSB5KaJLvE3Sg/9AgMBAAGjZzBlMB0GA1UdDgQWBBQYe3Rfxx8/fl6OkTAFd3Yv
haU+pTAfBgNVHSMEGDAWgBR18TQtn8CgTnG7DDeFioj8baIoVTAOBgNVHQ8BAf8E
BAMCBeAwEwYDVR0lBAwwCgYIKwYBBQUHAwEwDQYJKoZIhvcNAQELBQADggEBADx6
6wmREYhX+lLKkoxv825LsGG422rw+GkGQH1mfZgQWYfgDMKvESqM698CEXE+Z1ar
MYSt5+nXKJpXMA3gAoqwIXaYXwJnYRw8mLLCGNKzaNT4WPLZEamrv6IHUIqvrk23
ZrwYR0dA+FUbY9K1XlOcgHLe3ua7tn2YGaRTVfiBL3uFcXtkCyGVsndGQv/0vCBQ
cnet5aLVPRprXFqV34zizYKcYdUTXuiKhdcI1PFdPyUsygNt17bxdgc9E/Wk9fw9
F+vg28OSoB61uG37T6aWNCBTP2kCJUdu/YqpvkfJJOg8wAh2e6mSgNgl7/z6Jx2x
AgsDW13XXFKfaod2FAc=
-----END CERTIFICATE-----
