Certificate:
    Data:
        Version: 3 (0x2)
        Serial Number: 4101 (0x1005)
        Signature Algorithm: sha256WithRSAEncryption
        Issuer: C=US, ST=Florida, L=Jupiter, O=ZeroC, OU=Ice, CN=ZeroC Test CA 1/emailAddress=tests@zeroc.com
        Validity
            Not Before: May 22 16:55:12 2025 GMT
            Not After : Jun 24 16:55:12 2026 GMT
        Subject: CN=server, C=US, ST=Florida, L=Jupiter, O=ZeroC, Inc., OU=Ice CN1/emailAddress=info@zeroc.com
        Subject Public Key Info:
            Public Key Algorithm: rsaEncryption
                Public-Key: (2048 bit)
                Modulus:
                    00:c7:7c:f5:fb:74:48:a5:cf:af:80:0f:1e:b3:e2:
                    5b:de:75:d6:d5:7b:1b:fe:2e:07:d7:00:22:d6:46:
                    86:a5:8e:df:78:bf:b1:af:44:43:98:a8:02:44:f5:
                    a4:84:9c:54:08:fe:f1:a0:4e:2c:5b:db:ce:23:ab:
                    bb:74:9d:3d:d7:7c:ea:46:2c:6b:18:a0:93:7b:01:
                    d7:6b:c3:59:02:2a:c1:fe:a5:ff:c6:c9:a4:af:36:
                    92:34:34:84:78:5b:d5:2f:43:e0:97:86:3d:86:d5:
                    8b:66:8c:3a:74:4c:34:64:13:89:e9:2b:3f:af:29:
                    cd:5f:8f:d0:1b:ce:e4:54:36:5e:68:57:b6:ba:f8:
                    24:a0:e1:bc:23:a0:e0:5b:a3:c2:f4:ae:d2:c4:60:
                    76:89:4b:a9:a2:51:60:79:90:2d:4b:a8:ab:8f:2f:
                    9b:fc:7e:6d:f9:cb:7d:2e:b8:38:9f:46:c9:89:db:
                    a9:8c:51:3f:5e:e5:3c:03:a3:bb:c7:e3:be:62:ad:
                    7b:f3:b8:15:3b:01:b4:d1:b4:a6:bf:16:b5:b9:a3:
                    88:a3:e2:03:05:44:1c:f1:c9:29:a5:f1:0e:ab:59:
                    53:f8:41:86:0a:6d:87:cc:b2:ad:5d:ab:25:34:cc:
                    f7:73:0d:b6:ba:63:50:48:b9:cf:06:1b:c6:db:c5:
                    6b:79
                Exponent: 65537 (0x10001)
        X509v3 extensions:
            X509v3 Subject Key Identifier: 
                58:21:A6:BA:68:CA:26:3E:58:9E:3D:D2:28:B9:A5:35:77:EB:12:7E
            X509v3 Authority Key Identifier: 
                75:F1:34:2D:9F:C0:A0:4E:71:BB:0C:37:85:8A:88:FC:6D:A2:28:55
            X509v3 Key Usage: critical
                Digital Signature, Non Repudiation, Key Encipherment
            X509v3 Extended Key Usage: 
                TLS Web Server Authentication
            X509v3 Subject Alternative Name: 
                DNS:localhost
    Signature Algorithm: sha256WithRSAEncryption
    Signature Value:
        37:10:4d:a3:01:01:84:c7:e2:b3:c4:b8:82:ef:bf:3c:f9:02:
        24:f5:05:32:bd:ca:5a:f3:65:3b:e3:c3:c3:d2:0f:64:09:6b:
        07:57:b6:d0:8b:97:a2:9e:c2:3e:8d:18:4b:fd:48:0d:87:5d:
        c9:a6:dc:37:2b:4d:d1:e0:ac:38:50:af:16:d7:79:b6:da:7f:
        09:a8:8e:73:fb:f1:e6:79:48:26:a4:af:d5:2c:e0:42:c4:75:
        91:58:3b:46:cc:88:31:c5:0f:03:de:f4:b5:96:e0:bd:9f:cf:
        75:e6:af:84:98:ff:71:67:96:3b:a3:3e:b7:ec:3f:df:84:f5:
        c0:d3:8b:04:e7:a4:c7:1b:f6:86:22:1f:c5:5f:d7:02:df:65:
        6f:ba:3c:88:64:d6:89:62:11:9c:bc:5f:7c:88:c9:83:31:8e:
        9b:d1:28:a8:9a:97:a6:ca:af:e8:5f:d6:72:3c:82:4f:06:79:
        35:27:2d:b6:f0:0d:8b:9b:7b:d9:37:ee:83:c5:fb:7b:fa:6b:
        1c:1f:91:4d:0d:45:0b:bc:31:35:01:5a:5d:ef:17:0d:c5:56:
        99:bf:00:b6:5a:ad:55:79:77:6c:08:da:f9:47:92:ae:28:92:
        a8:73:c1:6d:bb:b9:48:20:9b:96:0b:73:f6:e5:12:e7:89:67:
        80:ed:fb:66
-----BEGIN CERTIFICATE-----
MIIEDTCCAvWgAwIBAgICEAUwDQYJKoZIhvcNAQELBQAwgYkxCzAJBgNVBAYTAlVT
MRAwDgYDVQQIDAdGbG9yaWRhMRAwDgYDVQQHDAdKdXBpdGVyMQ4wDAYDVQQKDAVa
ZXJvQzEMMAoGA1UECwwDSWNlMRgwFgYDVQQDDA9aZXJvQyBUZXN0IENBIDExHjAc
BgkqhkiG9w0BCQEWD3Rlc3RzQHplcm9jLmNvbTAeFw0yNTA1MjIxNjU1MTJaFw0y
NjA2MjQxNjU1MTJaMIGJMQ8wDQYDVQQDDAZzZXJ2ZXIxCzAJBgNVBAYTAlVTMRAw
DgYDVQQIDAdGbG9yaWRhMRAwDgYDVQQHDAdKdXBpdGVyMRQwEgYDVQQKDAtaZXJv
QywgSW5jLjEQMA4GA1UECwwHSWNlIENOMTEdMBsGCSqGSIb3DQEJARYOaW5mb0B6
ZXJvYy5jb20wggEiMA0GCSqGSIb3DQEBAQUAA4IBDwAwggEKAoIBAQDHfPX7dEil
z6+ADx6z4lveddbVexv+LgfXACLWRoaljt94v7GvREOYqAJE9aSEnFQI/vGgTixb
284jq7t0nT3XfOpGLGsYoJN7Addrw1kCKsH+pf/GyaSvNpI0NIR4W9UvQ+CXhj2G
1YtmjDp0TDRkE4npKz+vKc1fj9AbzuRUNl5oV7a6+CSg4bwjoOBbo8L0rtLEYHaJ
S6miUWB5kC1LqKuPL5v8fm35y30uuDifRsmJ26mMUT9e5TwDo7vH475irXvzuBU7
AbTRtKa/FrW5o4ij4gMFRBzxySml8Q6rWVP4QYYKbYfMsq1dqyU0zPdzDba6Y1BI
uc8GG8bbxWt5AgMBAAGjfTB7MB0GA1UdDgQWBBRYIaa6aMomPliePdIouaU1d+sS
fjAfBgNVHSMEGDAWgBR18TQtn8CgTnG7DDeFioj8baIoVTAOBgNVHQ8BAf8EBAMC
BeAwEwYDVR0lBAwwCgYIKwYBBQUHAwEwFAYDVR0RBA0wC4IJbG9jYWxob3N0MA0G
CSqGSIb3DQEBCwUAA4IBAQA3EE2jAQGEx+KzxLiC7788+QIk9QUyvcpa82U748PD
0g9kCWsHV7bQi5einsI+jRhL/UgNh13Jptw3K03R4Kw4UK8W13m22n8JqI5z+/Hm
eUgmpK/VLOBCxHWRWDtGzIgxxQ8D3vS1luC9n8915q+EmP9xZ5Y7oz637D/fhPXA
04sE56THG/aGIh/FX9cC32VvujyIZNaJYhGcvF98iMmDMY6b0Siompemyq/oX9Zy
PIJPBnk1Jy228A2Lm3vZN+6Dxft7+mscH5FNDUULvDE1AVpd7xcNxVaZvwC2Wq1V
eXdsCNr5R5KuKJKoc8Ftu7lIIJuWC3P25RLniWeA7ftm
-----END CERTIFICATE-----
