Certificate:
    Data:
        Version: 3 (0x2)
        Serial Number: 4101 (0x1005)
        Signature Algorithm: sha256WithRSAEncryption
        Issuer: C=US, ST=Florida, L=Jupiter, O=ZeroC, OU=Ice, CN=ZeroC Test CA 1/emailAddress=tests@zeroc.com
        Validity
            Not Before: May 22 16:16:07 2025 GMT
            Not After : Jun 24 16:16:07 2026 GMT
        Subject: CN=server, C=US, ST=Florida, L=Jupiter, O=ZeroC, Inc., OU=Ice CN1/emailAddress=info@zeroc.com
        Subject Public Key Info:
            Public Key Algorithm: rsaEncryption
                Public-Key: (2048 bit)
                Modulus:
                    00:9d:3e:29:cc:c5:77:b6:f8:10:27:07:d7:f8:3d:
                    0d:40:55:fb:48:60:1a:73:cf:f5:5d:46:be:dc:32:
                    5d:25:42:62:b6:71:c1:78:56:ed:d9:95:44:a1:2f:
                    a3:df:27:c5:30:96:55:eb:92:7e:73:7d:7a:e7:90:
                    76:e6:23:48:23:58:ca:86:9f:90:15:bd:fd:ab:66:
                    34:89:a6:81:10:78:ec:49:42:6f:93:47:70:18:4a:
                    b2:63:94:f2:2e:9f:20:6b:ad:be:03:be:a0:3e:25:
                    9d:01:2a:a6:3a:75:a3:2a:e0:24:3d:b6:d8:99:ae:
                    6f:3a:4f:94:06:b0:5b:a7:d4:20:40:97:99:3c:07:
                    f7:bf:ce:ab:24:54:77:5a:6a:d6:47:14:91:33:60:
                    6c:ff:df:8b:85:6c:60:fe:00:a0:2d:7c:c6:6d:75:
                    65:72:b2:db:07:0d:9c:ab:9b:a3:a6:d2:65:b1:f1:
                    38:ae:9b:fa:9c:9a:4c:c3:67:6c:45:f8:9a:2e:80:
                    1a:88:7a:8e:5a:47:d5:fc:1d:a2:19:27:4c:b1:33:
                    de:e8:45:09:c2:da:c5:ad:f2:b3:12:7e:93:2f:c3:
                    9d:ba:66:06:09:c4:95:77:e1:8c:79:84:99:1d:69:
                    ff:fa:7e:66:60:67:62:e2:65:84:b1:a3:9f:ff:30:
                    e3:77
                Exponent: 65537 (0x10001)
        X509v3 extensions:
            X509v3 Subject Key Identifier: 
                47:7D:70:25:39:1C:42:D5:77:55:D6:AB:13:98:61:94:6C:70:13:5C
            X509v3 Authority Key Identifier: 
                F7:4F:F3:3B:30:9F:3B:1F:27:4E:C3:C7:A4:7F:0C:FA:A6:40:B6:A1
            X509v3 Key Usage: critical
                Digital Signature, Non Repudiation, Key Encipherment
            X509v3 Extended Key Usage: 
                TLS Web Server Authentication
            X509v3 Subject Alternative Name: 
                DNS:localhost
    Signature Algorithm: sha256WithRSAEncryption
    Signature Value:
        46:33:7b:16:4b:79:df:75:b9:b1:c9:9f:c2:03:ee:07:55:4a:
        ef:6f:39:27:37:e4:6d:d8:f5:b1:4f:3c:fa:db:c9:2a:c2:2f:
        47:43:8a:76:62:18:b1:cc:23:48:d2:8f:7e:d0:10:00:e1:6d:
        9a:3e:95:40:a6:95:c8:38:92:af:59:45:27:97:d8:04:8e:21:
        a6:b8:f4:ec:b6:82:9d:d3:9e:5a:7b:bb:b7:8c:ba:95:df:81:
        6f:50:62:6a:71:96:32:6b:b4:32:c2:4b:c5:27:e3:a8:ba:4e:
        99:12:af:f8:93:40:96:ae:fb:c9:f3:69:98:39:2d:04:02:56:
        b3:b8:e4:fa:74:9e:46:5e:4a:7f:c7:cb:c3:57:f9:25:3a:3e:
        1b:e9:f1:dc:02:1b:ca:8d:9a:7e:db:89:b7:bc:e4:31:41:e9:
        0f:ee:d5:32:ef:25:a2:5a:33:34:fe:e9:5e:28:59:53:a5:9c:
        7e:24:7e:16:8e:a8:27:23:fc:e5:d5:4e:e7:a7:29:89:b3:03:
        02:bc:f9:9d:c7:2a:fc:70:46:d2:cb:33:38:bd:8f:f0:e1:b8:
        77:ed:65:86:b0:4c:7c:fe:c1:1c:a4:ff:c5:c4:15:54:0f:47:
        a4:29:58:2d:9f:90:9a:e4:c3:59:b3:3f:54:0b:af:1d:ee:58:
        17:43:ee:1d
-----BEGIN CERTIFICATE-----
MIIEDTCCAvWgAwIBAgICEAUwDQYJKoZIhvcNAQELBQAwgYkxCzAJBgNVBAYTAlVT
MRAwDgYDVQQIDAdGbG9yaWRhMRAwDgYDVQQHDAdKdXBpdGVyMQ4wDAYDVQQKDAVa
ZXJvQzEMMAoGA1UECwwDSWNlMRgwFgYDVQQDDA9aZXJvQyBUZXN0IENBIDExHjAc
BgkqhkiG9w0BCQEWD3Rlc3RzQHplcm9jLmNvbTAeFw0yNTA1MjIxNjE2MDdaFw0y
NjA2MjQxNjE2MDdaMIGJMQ8wDQYDVQQDDAZzZXJ2ZXIxCzAJBgNVBAYTAlVTMRAw
DgYDVQQIDAdGbG9yaWRhMRAwDgYDVQQHDAdKdXBpdGVyMRQwEgYDVQQKDAtaZXJv
QywgSW5jLjEQMA4GA1UECwwHSWNlIENOMTEdMBsGCSqGSIb3DQEJARYOaW5mb0B6
ZXJvYy5jb20wggEiMA0GCSqGSIb3DQEBAQUAA4IBDwAwggEKAoIBAQCdPinMxXe2
+BAnB9f4PQ1AVftIYBpzz/VdRr7cMl0lQmK2ccF4Vu3ZlUShL6PfJ8UwllXrkn5z
fXrnkHbmI0gjWMqGn5AVvf2rZjSJpoEQeOxJQm+TR3AYSrJjlPIunyBrrb4DvqA+
JZ0BKqY6daMq4CQ9ttiZrm86T5QGsFun1CBAl5k8B/e/zqskVHdaatZHFJEzYGz/
34uFbGD+AKAtfMZtdWVystsHDZyrm6Om0mWx8Tium/qcmkzDZ2xF+JougBqIeo5a
R9X8HaIZJ0yxM97oRQnC2sWt8rMSfpMvw526ZgYJxJV34Yx5hJkdaf/6fmZgZ2Li
ZYSxo5//MON3AgMBAAGjfTB7MB0GA1UdDgQWBBRHfXAlORxC1XdV1qsTmGGUbHAT
XDAfBgNVHSMEGDAWgBT3T/M7MJ87HydOw8ekfwz6pkC2oTAOBgNVHQ8BAf8EBAMC
BeAwEwYDVR0lBAwwCgYIKwYBBQUHAwEwFAYDVR0RBA0wC4IJbG9jYWxob3N0MA0G
CSqGSIb3DQEBCwUAA4IBAQBGM3sWS3nfdbmxyZ/CA+4HVUrvbzknN+Rt2PWxTzz6
28kqwi9HQ4p2YhixzCNI0o9+0BAA4W2aPpVAppXIOJKvWUUnl9gEjiGmuPTstoKd
055ae7u3jLqV34FvUGJqcZYya7QywkvFJ+Oouk6ZEq/4k0CWrvvJ82mYOS0EAlaz
uOT6dJ5GXkp/x8vDV/klOj4b6fHcAhvKjZp+24m3vOQxQekP7tUy7yWiWjM0/ule
KFlTpZx+JH4WjqgnI/zl1U7npymJswMCvPmdxyr8cEbSyzM4vY/w4bh37WWGsEx8
/sEcpP/FxBVUD0ekKVgtn5Ca5MNZsz9UC68d7lgXQ+4d
-----END CERTIFICATE-----
