Certificate:
    Data:
        Version: 3 (0x2)
        Serial Number: 4102 (0x1006)
        Signature Algorithm: sha256WithRSAEncryption
        Issuer: C=US, ST=Florida, L=Jupiter, O=ZeroC, OU=Ice, CN=ZeroC Test CA 1/emailAddress=tests@zeroc.com
        Validity
            Not Before: May 22 15:10:13 2025 GMT
            Not After : Jun 24 15:10:13 2026 GMT
        Subject: CN=localhostXX, C=US, ST=Florida, L=Jupiter, O=ZeroC, Inc., OU=Ice CN4/emailAddress=info@zeroc.com
        Subject Public Key Info:
            Public Key Algorithm: rsaEncryption
                Public-Key: (2048 bit)
                Modulus:
                    00:e7:ca:4f:3d:55:2f:80:15:74:41:82:5e:a2:97:
                    08:cf:89:5e:5d:80:19:c2:d0:b1:41:1e:11:a2:11:
                    ff:76:f2:fe:0c:c9:6c:6c:18:14:ea:62:5e:bf:d2:
                    ba:86:e3:dd:d1:92:56:53:66:12:4e:9a:02:d9:2c:
                    21:50:bc:66:bb:2d:c1:53:a7:95:c2:4a:4a:be:32:
                    22:0a:36:29:f7:a6:dc:3c:f5:92:61:20:6d:73:2f:
                    81:6d:1d:8d:b7:b9:ab:e4:2e:5a:e3:ea:46:f5:f6:
                    56:85:62:a1:7d:3b:98:47:57:32:93:c5:f3:f8:a8:
                    3c:72:21:8d:d6:02:ed:c4:c6:96:c3:92:b3:20:64:
                    6f:a6:bf:9d:cc:73:a0:a0:e6:37:25:b3:63:5d:ba:
                    93:b2:f5:c8:c7:00:cc:86:66:3e:b7:42:bc:77:af:
                    39:8a:5f:7c:40:12:75:19:39:9f:09:39:d8:ef:f7:
                    ad:84:4b:17:3b:49:f8:0b:03:90:98:58:c0:7b:43:
                    f1:90:2b:f2:91:a1:33:e6:f6:e0:26:cd:40:bc:8e:
                    3b:8a:2d:55:33:37:dc:fd:eb:fc:9f:f8:dd:b7:49:
                    1a:49:77:48:b3:5a:25:b9:52:f9:df:49:9d:87:06:
                    5d:8c:11:08:2d:65:21:0f:a7:1c:1d:77:cd:07:6d:
                    b5:57
                Exponent: 65537 (0x10001)
        X509v3 extensions:
            X509v3 Subject Key Identifier: 
                2A:A9:05:97:D8:08:71:55:EA:13:AE:1C:C1:0C:C5:75:22:A9:57:9C
            X509v3 Authority Key Identifier: 
                DA:FC:2F:0E:65:38:82:A6:37:87:8A:5E:C8:1C:FB:FB:FF:86:78:C5
            X509v3 Key Usage: critical
                Digital Signature, Non Repudiation, Key Encipherment
            X509v3 Extended Key Usage: 
                TLS Web Server Authentication
    Signature Algorithm: sha256WithRSAEncryption
    Signature Value:
        0f:81:f7:de:b6:80:a5:49:8f:ed:cc:49:8d:76:30:60:14:6c:
        4f:4e:53:b0:03:14:6e:04:e3:28:3d:f0:95:9b:01:49:7b:da:
        79:52:b6:a0:7b:98:39:fd:a8:44:d0:5b:ac:4a:7e:6b:64:aa:
        22:09:0d:e5:0c:f2:c3:93:bc:95:fa:bf:e4:79:43:b3:da:06:
        62:6a:0f:23:c0:8b:7b:ac:85:26:1f:4f:6c:91:9b:c8:02:ff:
        34:d5:73:26:9f:48:f4:ed:27:2e:82:b8:9b:82:9d:3e:6d:84:
        7c:a3:e6:65:18:02:92:12:ed:f2:00:b5:eb:f7:f5:78:f1:2a:
        82:f0:79:50:e2:c5:b0:fe:9f:b7:19:d0:1e:4a:15:a3:73:61:
        f6:63:de:cc:da:c8:2f:3a:9f:6b:e8:31:77:26:34:87:ec:8c:
        90:4a:bd:c6:a9:26:f2:bd:0a:47:b8:0b:f9:3a:d4:3b:63:dc:
        ea:50:17:a5:2e:7a:46:28:15:e1:a2:4e:82:90:11:fc:b8:7c:
        05:2f:91:f1:65:6c:73:f5:23:e4:11:25:b0:97:6a:3e:7f:3c:
        b4:85:19:28:4b:f2:31:b5:da:4a:b2:f6:60:b7:c1:b5:25:65:
        30:61:bd:e5:63:57:ad:ed:b7:8d:39:91:9e:6a:10:3f:9e:2e:
        63:d2:6e:e4
-----BEGIN CERTIFICATE-----
MIID/DCCAuSgAwIBAgICEAYwDQYJKoZIhvcNAQELBQAwgYkxCzAJBgNVBAYTAlVT
MRAwDgYDVQQIDAdGbG9yaWRhMRAwDgYDVQQHDAdKdXBpdGVyMQ4wDAYDVQQKDAVa
ZXJvQzEMMAoGA1UECwwDSWNlMRgwFgYDVQQDDA9aZXJvQyBUZXN0IENBIDExHjAc
BgkqhkiG9w0BCQEWD3Rlc3RzQHplcm9jLmNvbTAeFw0yNTA1MjIxNTEwMTNaFw0y
NjA2MjQxNTEwMTNaMIGOMRQwEgYDVQQDDAtsb2NhbGhvc3RYWDELMAkGA1UEBhMC
VVMxEDAOBgNVBAgMB0Zsb3JpZGExEDAOBgNVBAcMB0p1cGl0ZXIxFDASBgNVBAoM
C1plcm9DLCBJbmMuMRAwDgYDVQQLDAdJY2UgQ040MR0wGwYJKoZIhvcNAQkBFg5p
bmZvQHplcm9jLmNvbTCCASIwDQYJKoZIhvcNAQEBBQADggEPADCCAQoCggEBAOfK
Tz1VL4AVdEGCXqKXCM+JXl2AGcLQsUEeEaIR/3by/gzJbGwYFOpiXr/Suobj3dGS
VlNmEk6aAtksIVC8ZrstwVOnlcJKSr4yIgo2Kfem3Dz1kmEgbXMvgW0djbe5q+Qu
WuPqRvX2VoVioX07mEdXMpPF8/ioPHIhjdYC7cTGlsOSsyBkb6a/ncxzoKDmNyWz
Y126k7L1yMcAzIZmPrdCvHevOYpffEASdRk5nwk52O/3rYRLFztJ+AsDkJhYwHtD
8ZAr8pGhM+b24CbNQLyOO4otVTM33P3r/J/43bdJGkl3SLNaJblS+d9JnYcGXYwR
CC1lIQ+nHB13zQdttVcCAwEAAaNnMGUwHQYDVR0OBBYEFCqpBZfYCHFV6hOuHMEM
xXUiqVecMB8GA1UdIwQYMBaAFNr8Lw5lOIKmN4eKXsgc+/v/hnjFMA4GA1UdDwEB
/wQEAwIF4DATBgNVHSUEDDAKBggrBgEFBQcDATANBgkqhkiG9w0BAQsFAAOCAQEA
D4H33raApUmP7cxJjXYwYBRsT05TsAMUbgTjKD3wlZsBSXvaeVK2oHuYOf2oRNBb
rEp+a2SqIgkN5Qzyw5O8lfq/5HlDs9oGYmoPI8CLe6yFJh9PbJGbyAL/NNVzJp9I
9O0nLoK4m4KdPm2EfKPmZRgCkhLt8gC16/f1ePEqgvB5UOLFsP6ftxnQHkoVo3Nh
9mPezNrILzqfa+gxdyY0h+yMkEq9xqkm8r0KR7gL+TrUO2Pc6lAXpS56RigV4aJO
gpAR/Lh8BS+R8WVsc/Uj5BElsJdqPn88tIUZKEvyMbXaSrL2YLfBtSVlMGG95WNX
re23jTmRnmoQP54uY9Ju5A==
-----END CERTIFICATE-----
