Certificate:
    Data:
        Version: 3 (0x2)
        Serial Number: 4103 (0x1007)
        Signature Algorithm: sha256WithRSAEncryption
        Issuer: C=US, ST=Florida, L=Jupiter, O=ZeroC, OU=Ice, CN=ZeroC Test CA 1/emailAddress=tests@zeroc.com
        Validity
            Not Before: May 22 16:16:08 2025 GMT
            Not After : Jun 24 16:16:08 2026 GMT
        Subject: CN=localhost, C=US, ST=Florida, L=Jupiter, O=ZeroC, Inc., OU=Ice CN5/emailAddress=info@zeroc.com
        Subject Public Key Info:
            Public Key Algorithm: rsaEncryption
                Public-Key: (2048 bit)
                Modulus:
                    00:9e:60:5f:6b:87:5e:bc:19:ca:b4:c9:60:f7:ac:
                    c4:7a:dc:26:2a:60:e4:1d:64:33:8d:34:8c:7b:c8:
                    f5:11:f0:05:d7:5d:c5:fe:a9:89:6b:6e:34:3a:23:
                    35:47:82:00:a1:93:50:05:da:13:86:75:15:5c:a9:
                    69:a5:4c:38:e4:eb:b2:10:75:d5:3e:52:bc:c0:59:
                    7e:7d:6d:0f:ae:15:50:40:be:6d:87:a4:a6:05:25:
                    ab:a5:0d:0e:f8:bb:28:f6:f9:0a:f6:12:a4:35:a5:
                    51:d5:90:cb:3a:ab:d0:2d:61:77:c7:26:53:89:a5:
                    61:d4:3a:79:74:50:52:c9:d1:bf:68:a2:32:4c:75:
                    ee:94:f5:6b:b8:ff:82:ee:c5:e4:dc:63:de:ce:8c:
                    9d:ec:4f:9d:20:e1:ab:cc:dc:f4:86:05:b6:fe:a3:
                    9f:0f:00:1d:9b:5e:7a:d8:75:5d:bc:d7:2b:88:ab:
                    aa:3b:15:11:96:dd:89:08:c9:21:e6:16:2c:19:20:
                    d5:92:78:fb:53:76:c4:4f:a4:3f:b6:a9:ee:5d:1c:
                    23:ed:39:2d:09:8f:a4:fc:21:b0:2a:14:84:85:ef:
                    d1:45:b4:d8:ec:dd:80:09:9e:63:a0:31:6d:c8:70:
                    d0:d3:20:cf:6e:af:ef:13:2e:f1:dd:54:00:6a:24:
                    bc:8b
                Exponent: 65537 (0x10001)
        X509v3 extensions:
            X509v3 Subject Key Identifier: 
                3F:84:ED:45:C2:5F:46:00:25:C6:16:6B:4F:D3:17:EE:AF:B4:99:1D
            X509v3 Authority Key Identifier: 
                F7:4F:F3:3B:30:9F:3B:1F:27:4E:C3:C7:A4:7F:0C:FA:A6:40:B6:A1
            X509v3 Key Usage: critical
                Digital Signature, Non Repudiation, Key Encipherment
            X509v3 Extended Key Usage: 
                TLS Web Server Authentication
            X509v3 Subject Alternative Name: 
                DNS:localhostX
    Signature Algorithm: sha256WithRSAEncryption
    Signature Value:
        44:64:bc:38:91:8c:35:73:cd:9e:62:dd:85:95:da:ef:bc:00:
        94:16:d8:16:5a:f8:7c:29:0b:0c:7f:53:67:b0:52:94:7c:f6:
        44:07:b0:a8:93:c9:0a:ba:13:6e:87:88:3e:0c:00:f5:71:f7:
        36:2d:b0:c3:09:28:b5:98:41:f7:0a:70:21:13:b7:d7:94:0e:
        9b:79:72:83:03:01:c4:cf:9d:28:d0:51:0f:fb:b2:c6:29:aa:
        4d:20:f3:cd:9d:ab:4c:45:d4:b8:dd:bf:27:de:3c:5d:a0:5f:
        02:50:ae:c1:99:2d:66:49:f1:fa:eb:ef:59:26:9b:d1:53:80:
        98:f6:f5:d0:72:12:19:51:a3:e4:dc:d1:6c:b9:1b:a2:bb:b3:
        f9:d5:f9:e9:cf:dc:7c:41:ee:ca:d0:88:0b:0b:4a:78:d5:e7:
        91:57:c7:5c:e5:a7:58:0b:8c:16:08:b4:2d:c8:3a:71:6c:a9:
        0a:a5:b1:98:a7:00:dc:57:9a:00:cc:95:38:47:b4:63:20:cd:
        8c:32:8c:a1:96:e2:2f:9a:5a:f7:88:b7:dd:a2:fc:a3:fe:e4:
        0c:50:b8:ea:a4:e2:40:cd:f0:07:9b:15:b1:9c:97:c9:e3:49:
        a7:92:a6:ac:80:17:64:9f:7e:50:e8:da:81:ea:75:c6:c9:3d:
        c2:9e:2e:cc
-----BEGIN CERTIFICATE-----
MIIEETCCAvmgAwIBAgICEAcwDQYJKoZIhvcNAQELBQAwgYkxCzAJBgNVBAYTAlVT
MRAwDgYDVQQIDAdGbG9yaWRhMRAwDgYDVQQHDAdKdXBpdGVyMQ4wDAYDVQQKDAVa
ZXJvQzEMMAoGA1UECwwDSWNlMRgwFgYDVQQDDA9aZXJvQyBUZXN0IENBIDExHjAc
BgkqhkiG9w0BCQEWD3Rlc3RzQHplcm9jLmNvbTAeFw0yNTA1MjIxNjE2MDhaFw0y
NjA2MjQxNjE2MDhaMIGMMRIwEAYDVQQDDAlsb2NhbGhvc3QxCzAJBgNVBAYTAlVT
MRAwDgYDVQQIDAdGbG9yaWRhMRAwDgYDVQQHDAdKdXBpdGVyMRQwEgYDVQQKDAta
ZXJvQywgSW5jLjEQMA4GA1UECwwHSWNlIENONTEdMBsGCSqGSIb3DQEJARYOaW5m
b0B6ZXJvYy5jb20wggEiMA0GCSqGSIb3DQEBAQUAA4IBDwAwggEKAoIBAQCeYF9r
h168Gcq0yWD3rMR63CYqYOQdZDONNIx7yPUR8AXXXcX+qYlrbjQ6IzVHggChk1AF
2hOGdRVcqWmlTDjk67IQddU+UrzAWX59bQ+uFVBAvm2HpKYFJaulDQ74uyj2+Qr2
EqQ1pVHVkMs6q9AtYXfHJlOJpWHUOnl0UFLJ0b9oojJMde6U9Wu4/4LuxeTcY97O
jJ3sT50g4avM3PSGBbb+o58PAB2bXnrYdV281yuIq6o7FRGW3YkIySHmFiwZINWS
ePtTdsRPpD+2qe5dHCPtOS0Jj6T8IbAqFISF79FFtNjs3YAJnmOgMW3IcNDTIM9u
r+8TLvHdVABqJLyLAgMBAAGjfjB8MB0GA1UdDgQWBBQ/hO1Fwl9GACXGFmtP0xfu
r7SZHTAfBgNVHSMEGDAWgBT3T/M7MJ87HydOw8ekfwz6pkC2oTAOBgNVHQ8BAf8E
BAMCBeAwEwYDVR0lBAwwCgYIKwYBBQUHAwEwFQYDVR0RBA4wDIIKbG9jYWxob3N0
WDANBgkqhkiG9w0BAQsFAAOCAQEARGS8OJGMNXPNnmLdhZXa77wAlBbYFlr4fCkL
DH9TZ7BSlHz2RAewqJPJCroTboeIPgwA9XH3Ni2wwwkotZhB9wpwIRO315QOm3ly
gwMBxM+dKNBRD/uyximqTSDzzZ2rTEXUuN2/J948XaBfAlCuwZktZknx+uvvWSab
0VOAmPb10HISGVGj5NzRbLkboruz+dX56c/cfEHuytCICwtKeNXnkVfHXOWnWAuM
Fgi0Lcg6cWypCqWxmKcA3FeaAMyVOEe0YyDNjDKMoZbiL5pa94i33aL8o/7kDFC4
6qTiQM3wB5sVsZyXyeNJp5KmrIAXZJ9+UOjagep1xsk9wp4uzA==
-----END CERTIFICATE-----
