Certificate:
    Data:
        Version: 3 (0x2)
        Serial Number: 4103 (0x1007)
        Signature Algorithm: sha256WithRSAEncryption
        Issuer: C=US, ST=Florida, L=Jupiter, O=ZeroC, OU=Ice, CN=ZeroC Test CA 1/emailAddress=tests@zeroc.com
        Validity
            Not Before: May 22 16:55:12 2025 GMT
            Not After : Jun 24 16:55:12 2026 GMT
        Subject: CN=localhost, C=US, ST=Florida, L=Jupiter, O=ZeroC, Inc., OU=Ice CN5/emailAddress=info@zeroc.com
        Subject Public Key Info:
            Public Key Algorithm: rsaEncryption
                Public-Key: (2048 bit)
                Modulus:
                    00:a8:52:05:67:b8:7c:02:ba:a9:f6:a2:f2:f2:43:
                    94:d0:fe:28:8c:31:85:b5:40:ee:2c:5f:48:d8:ac:
                    7f:cb:df:a4:68:50:34:7e:6d:da:0b:21:1b:2f:53:
                    89:a5:0f:fa:3c:ea:51:c7:5c:c7:bb:4f:5d:fc:36:
                    04:b2:51:38:fd:05:50:40:25:7c:a6:46:f3:96:29:
                    d5:0a:ed:8b:1e:2c:23:c8:07:1b:a9:93:40:83:40:
                    8c:0b:c7:23:9f:04:5b:21:a3:7b:4d:83:fb:07:46:
                    dc:d2:9e:99:64:c4:f2:a9:a9:44:d2:19:60:58:02:
                    34:f2:21:d1:f2:0a:1f:bb:a8:96:1b:1d:ad:4f:c8:
                    30:bb:25:3c:2e:a3:82:44:75:61:75:b3:39:30:e2:
                    9b:a7:16:7b:71:92:18:e6:b6:f2:8e:8f:db:23:cb:
                    97:13:4f:b4:b4:b9:67:98:05:bd:1d:83:27:cc:df:
                    9b:18:93:49:f8:a8:f3:01:2d:84:91:4f:fc:1e:35:
                    16:00:3b:82:23:27:19:3b:e9:b8:cb:b4:e8:fb:23:
                    d1:64:3a:f2:f7:fe:50:57:01:4f:0f:0b:9e:72:50:
                    85:35:c9:e8:88:e4:57:c3:1b:b0:27:ea:f3:04:83:
                    ff:16:aa:17:c7:99:8a:75:19:0a:d3:f4:2c:ea:a2:
                    c6:01
                Exponent: 65537 (0x10001)
        X509v3 extensions:
            X509v3 Subject Key Identifier: 
                DC:7A:B0:17:76:1C:3D:57:04:8E:06:12:18:03:23:AC:03:FA:18:58
            X509v3 Authority Key Identifier: 
                75:F1:34:2D:9F:C0:A0:4E:71:BB:0C:37:85:8A:88:FC:6D:A2:28:55
            X509v3 Key Usage: critical
                Digital Signature, Non Repudiation, Key Encipherment
            X509v3 Extended Key Usage: 
                TLS Web Server Authentication
            X509v3 Subject Alternative Name: 
                DNS:localhostX
    Signature Algorithm: sha256WithRSAEncryption
    Signature Value:
        27:b4:63:89:8f:7b:a8:fd:06:a0:55:22:d2:ea:08:e2:f8:61:
        09:31:e0:f6:1f:2d:b0:e4:5b:2a:fc:6d:19:ef:0c:62:bc:35:
        27:5b:df:db:34:27:97:0a:06:a8:c0:3d:e2:09:95:97:0a:0a:
        2a:7d:bd:77:87:14:23:93:46:bc:1e:8f:84:56:68:41:49:e8:
        75:e1:9d:a7:7c:54:b0:b8:fa:fa:2d:d8:7f:63:3b:88:c6:1a:
        66:f1:d1:1c:85:00:74:ab:5d:46:01:87:db:f8:6f:c2:38:9d:
        da:b6:1a:e9:e2:a3:e1:2a:90:11:e8:36:46:12:06:af:6e:68:
        c9:cf:e3:10:0b:11:cd:0e:74:da:57:c8:8f:c6:46:81:55:40:
        1f:8c:45:69:64:4a:33:97:fa:e4:d3:1f:5d:8c:de:14:4e:64:
        90:aa:21:92:34:3f:cf:86:91:f3:af:d1:13:3b:a8:98:39:a2:
        dd:2c:ee:ce:2e:52:5a:a3:a2:8e:c8:6a:5e:01:94:d7:c8:88:
        9c:15:e9:45:e0:fa:e4:79:d3:29:29:29:49:a5:6b:32:6f:e1:
        4b:b5:73:29:aa:23:39:d8:9c:15:27:8c:06:64:69:b0:69:19:
        69:84:dc:95:3b:8e:f8:3b:f6:8a:0c:eb:7c:9d:45:b1:51:5d:
        4e:73:6e:0e
-----BEGIN CERTIFICATE-----
MIIEETCCAvmgAwIBAgICEAcwDQYJKoZIhvcNAQELBQAwgYkxCzAJBgNVBAYTAlVT
MRAwDgYDVQQIDAdGbG9yaWRhMRAwDgYDVQQHDAdKdXBpdGVyMQ4wDAYDVQQKDAVa
ZXJvQzEMMAoGA1UECwwDSWNlMRgwFgYDVQQDDA9aZXJvQyBUZXN0IENBIDExHjAc
BgkqhkiG9w0BCQEWD3Rlc3RzQHplcm9jLmNvbTAeFw0yNTA1MjIxNjU1MTJaFw0y
NjA2MjQxNjU1MTJaMIGMMRIwEAYDVQQDDAlsb2NhbGhvc3QxCzAJBgNVBAYTAlVT
MRAwDgYDVQQIDAdGbG9yaWRhMRAwDgYDVQQHDAdKdXBpdGVyMRQwEgYDVQQKDAta
ZXJvQywgSW5jLjEQMA4GA1UECwwHSWNlIENONTEdMBsGCSqGSIb3DQEJARYOaW5m
b0B6ZXJvYy5jb20wggEiMA0GCSqGSIb3DQEBAQUAA4IBDwAwggEKAoIBAQCoUgVn
uHwCuqn2ovLyQ5TQ/iiMMYW1QO4sX0jYrH/L36RoUDR+bdoLIRsvU4mlD/o86lHH
XMe7T138NgSyUTj9BVBAJXymRvOWKdUK7YseLCPIBxupk0CDQIwLxyOfBFsho3tN
g/sHRtzSnplkxPKpqUTSGWBYAjTyIdHyCh+7qJYbHa1PyDC7JTwuo4JEdWF1szkw
4punFntxkhjmtvKOj9sjy5cTT7S0uWeYBb0dgyfM35sYk0n4qPMBLYSRT/weNRYA
O4IjJxk76bjLtOj7I9FkOvL3/lBXAU8PC55yUIU1yeiI5FfDG7An6vMEg/8WqhfH
mYp1GQrT9CzqosYBAgMBAAGjfjB8MB0GA1UdDgQWBBTcerAXdhw9VwSOBhIYAyOs
A/oYWDAfBgNVHSMEGDAWgBR18TQtn8CgTnG7DDeFioj8baIoVTAOBgNVHQ8BAf8E
BAMCBeAwEwYDVR0lBAwwCgYIKwYBBQUHAwEwFQYDVR0RBA4wDIIKbG9jYWxob3N0
WDANBgkqhkiG9w0BAQsFAAOCAQEAJ7RjiY97qP0GoFUi0uoI4vhhCTHg9h8tsORb
KvxtGe8MYrw1J1vf2zQnlwoGqMA94gmVlwoKKn29d4cUI5NGvB6PhFZoQUnodeGd
p3xUsLj6+i3Yf2M7iMYaZvHRHIUAdKtdRgGH2/hvwjid2rYa6eKj4SqQEeg2RhIG
r25oyc/jEAsRzQ502lfIj8ZGgVVAH4xFaWRKM5f65NMfXYzeFE5kkKohkjQ/z4aR
86/REzuomDmi3Szuzi5SWqOijshqXgGU18iInBXpReD65HnTKSkpSaVrMm/hS7Vz
KaojOdicFSeMBmRpsGkZaYTclTuO+Dv2igzrfJ1FsVFdTnNuDg==
-----END CERTIFICATE-----
