Certificate:
    Data:
        Version: 3 (0x2)
        Serial Number: 4104 (0x1008)
        Signature Algorithm: sha256WithRSAEncryption
        Issuer: C=US, ST=Florida, L=Jupiter, O=ZeroC, OU=Ice, CN=ZeroC Test CA 1/emailAddress=tests@zeroc.com
        Validity
            Not Before: May 22 15:10:14 2025 GMT
            Not After : Jun 24 15:10:14 2026 GMT
        Subject: CN=server, C=US, ST=Florida, L=Jupiter, O=ZeroC, Inc., OU=Ice CN7/emailAddress=info@zeroc.com
        Subject Public Key Info:
            Public Key Algorithm: rsaEncryption
                Public-Key: (2048 bit)
                Modulus:
                    00:97:d4:90:a2:d0:61:13:2d:c2:d4:2c:90:e9:6c:
                    5b:9a:03:9d:cc:83:26:ab:74:59:df:8a:27:dd:43:
                    6f:1b:3b:0e:44:81:c6:97:98:23:b9:13:eb:4d:8b:
                    f7:e0:81:7b:09:fa:68:42:cd:6e:21:1b:bb:50:f4:
                    81:41:20:41:91:b5:c0:ec:d2:58:52:7c:8b:05:f1:
                    77:78:9b:0f:02:6d:0e:62:d2:d1:40:db:2a:e8:c1:
                    7f:a0:ba:62:07:d6:45:eb:45:bf:75:13:76:f1:01:
                    a2:a5:53:05:d9:0d:05:7d:5e:42:40:f1:4a:78:3f:
                    bf:dc:11:f2:17:ed:99:54:40:35:44:ea:10:62:a1:
                    f7:89:29:73:04:67:71:a4:8a:c8:f6:fe:8e:10:4b:
                    4e:92:cf:31:a7:d9:f2:b4:a6:a2:78:2f:2a:b7:c4:
                    34:f2:cb:49:3a:e0:61:95:a0:3b:a3:32:51:87:69:
                    e5:18:6b:a0:ad:ff:4d:7e:bb:cd:df:37:18:7a:84:
                    68:1a:18:a0:95:93:27:7e:8d:c6:a0:3e:d0:b4:19:
                    3e:44:b1:a5:26:b2:fe:28:05:85:a0:79:ef:dc:21:
                    a3:8b:e7:7b:4d:0c:66:c2:76:28:6c:1a:3b:2f:95:
                    de:c1:79:cb:03:e3:9d:96:67:bc:ac:01:74:e4:44:
                    11:bd
                Exponent: 65537 (0x10001)
        X509v3 extensions:
            X509v3 Subject Key Identifier: 
                52:EF:5F:C6:EE:97:4A:FC:62:81:B6:FB:A9:39:5E:46:15:B6:01:7F
            X509v3 Authority Key Identifier: 
                DA:FC:2F:0E:65:38:82:A6:37:87:8A:5E:C8:1C:FB:FB:FF:86:78:C5
            X509v3 Key Usage: critical
                Digital Signature, Non Repudiation, Key Encipherment
            X509v3 Extended Key Usage: 
                TLS Web Server Authentication
            X509v3 Subject Alternative Name: 
                IP Address:127.0.0.2
    Signature Algorithm: sha256WithRSAEncryption
    Signature Value:
        4e:38:61:64:ba:81:40:cc:30:04:0b:0a:88:9a:53:28:04:fb:
        71:57:23:f7:68:4c:96:42:4f:e3:c1:70:8f:a0:97:d3:c2:a1:
        e1:6a:45:95:ba:67:1a:93:db:6f:e7:bd:86:bc:af:76:90:7d:
        d9:c2:a3:99:e6:ec:72:fc:59:f9:e4:83:ac:31:4a:ba:b9:3b:
        09:57:e0:ea:8c:2a:37:e0:5f:89:85:5b:90:d6:43:a3:a9:00:
        2d:12:3c:01:b4:29:e4:6c:7a:6e:e0:3d:73:da:dc:77:c2:61:
        b3:d4:52:02:40:af:a5:d9:64:03:fe:be:89:55:da:c4:5a:df:
        0e:3f:95:02:52:30:9b:d1:24:0a:e4:3c:88:3b:1e:8d:32:32:
        80:23:94:e4:5d:23:bf:94:92:b3:37:51:4d:41:48:0a:a6:4d:
        79:5f:28:cb:40:b0:83:37:a2:b0:ab:c5:2f:79:b9:d8:54:27:
        94:5f:9c:40:10:be:36:a2:8e:bb:4c:48:2c:c2:0c:6a:12:91:
        76:40:f3:2b:48:51:09:7e:d1:a2:b3:bb:5c:cc:aa:5e:cc:35:
        7b:76:fc:16:11:f5:cb:7e:5c:b8:58:e6:87:b0:f5:4d:45:67:
        4e:a1:27:7a:ba:5c:a7:77:ff:a9:8b:cd:1d:42:7c:cc:c2:06:
        fd:8f:88:4b
-----BEGIN CERTIFICATE-----
MIIECDCCAvCgAwIBAgICEAgwDQYJKoZIhvcNAQELBQAwgYkxCzAJBgNVBAYTAlVT
MRAwDgYDVQQIDAdGbG9yaWRhMRAwDgYDVQQHDAdKdXBpdGVyMQ4wDAYDVQQKDAVa
ZXJvQzEMMAoGA1UECwwDSWNlMRgwFgYDVQQDDA9aZXJvQyBUZXN0IENBIDExHjAc
BgkqhkiG9w0BCQEWD3Rlc3RzQHplcm9jLmNvbTAeFw0yNTA1MjIxNTEwMTRaFw0y
NjA2MjQxNTEwMTRaMIGJMQ8wDQYDVQQDDAZzZXJ2ZXIxCzAJBgNVBAYTAlVTMRAw
DgYDVQQIDAdGbG9yaWRhMRAwDgYDVQQHDAdKdXBpdGVyMRQwEgYDVQQKDAtaZXJv
QywgSW5jLjEQMA4GA1UECwwHSWNlIENONzEdMBsGCSqGSIb3DQEJARYOaW5mb0B6
ZXJvYy5jb20wggEiMA0GCSqGSIb3DQEBAQUAA4IBDwAwggEKAoIBAQCX1JCi0GET
LcLULJDpbFuaA53MgyardFnfiifdQ28bOw5EgcaXmCO5E+tNi/fggXsJ+mhCzW4h
G7tQ9IFBIEGRtcDs0lhSfIsF8Xd4mw8CbQ5i0tFA2yrowX+gumIH1kXrRb91E3bx
AaKlUwXZDQV9XkJA8Up4P7/cEfIX7ZlUQDVE6hBiofeJKXMEZ3Gkisj2/o4QS06S
zzGn2fK0pqJ4Lyq3xDTyy0k64GGVoDujMlGHaeUYa6Ct/01+u83fNxh6hGgaGKCV
kyd+jcagPtC0GT5EsaUmsv4oBYWgee/cIaOL53tNDGbCdihsGjsvld7BecsD452W
Z7ysAXTkRBG9AgMBAAGjeDB2MB0GA1UdDgQWBBRS71/G7pdK/GKBtvupOV5GFbYB
fzAfBgNVHSMEGDAWgBTa/C8OZTiCpjeHil7IHPv7/4Z4xTAOBgNVHQ8BAf8EBAMC
BeAwEwYDVR0lBAwwCgYIKwYBBQUHAwEwDwYDVR0RBAgwBocEfwAAAjANBgkqhkiG
9w0BAQsFAAOCAQEATjhhZLqBQMwwBAsKiJpTKAT7cVcj92hMlkJP48Fwj6CX08Kh
4WpFlbpnGpPbb+e9hryvdpB92cKjmebscvxZ+eSDrDFKurk7CVfg6owqN+BfiYVb
kNZDo6kALRI8AbQp5Gx6buA9c9rcd8Jhs9RSAkCvpdlkA/6+iVXaxFrfDj+VAlIw
m9EkCuQ8iDsejTIygCOU5F0jv5SSszdRTUFICqZNeV8oy0CwgzeisKvFL3m52FQn
lF+cQBC+NqKOu0xILMIMahKRdkDzK0hRCX7RorO7XMyqXsw1e3b8FhH1y35cuFjm
h7D1TUVnTqEnerpcp3f/qYvNHUJ8zMIG/Y+ISw==
-----END CERTIFICATE-----
