Certificate:
    Data:
        Version: 3 (0x2)
        Serial Number: 4104 (0x1008)
        Signature Algorithm: sha256WithRSAEncryption
        Issuer: C=US, ST=Florida, L=Jupiter, O=ZeroC, OU=Ice, CN=ZeroC Test CA 1/emailAddress=tests@zeroc.com
        Validity
            Not Before: May 22 16:55:12 2025 GMT
            Not After : Jun 24 16:55:12 2026 GMT
        Subject: CN=server, C=US, ST=Florida, L=Jupiter, O=ZeroC, Inc., OU=Ice CN7/emailAddress=info@zeroc.com
        Subject Public Key Info:
            Public Key Algorithm: rsaEncryption
                Public-Key: (2048 bit)
                Modulus:
                    00:d1:4b:a8:e6:0a:bf:cb:89:9c:e0:70:6f:5a:5e:
                    31:25:26:85:2f:99:0d:1c:b3:a0:df:9c:86:4e:e0:
                    3b:6d:64:b9:d0:a3:c0:17:67:1b:40:88:58:39:32:
                    43:a0:aa:b5:db:f7:24:ed:05:91:b2:9a:fd:22:ec:
                    76:e5:84:f6:4f:2c:80:90:8c:b3:31:35:7b:30:1e:
                    80:c6:11:7e:b1:3b:c4:2b:d1:20:80:23:75:19:b5:
                    c2:75:51:f9:f1:ff:a1:55:32:2c:f0:e2:b7:c4:4d:
                    9f:90:7b:d0:7c:63:60:7f:85:09:a1:22:3c:ed:1e:
                    5c:91:03:94:e1:63:3b:41:4d:5d:f6:e5:ad:6c:f7:
                    bd:6a:d5:66:97:fa:62:97:43:e9:6a:b3:4d:4c:72:
                    c6:bd:a0:2e:c5:05:fa:6b:81:13:2d:72:a3:94:d3:
                    19:65:a7:38:d3:64:4b:73:f3:f2:1c:d9:4f:d8:7e:
                    d0:f8:61:f8:64:09:bc:cb:0c:48:19:1b:16:46:39:
                    c3:ca:71:29:55:87:b8:7d:a5:51:2e:63:60:dc:74:
                    9a:77:ac:4d:2d:f1:9b:09:18:a2:f5:86:c8:5f:e9:
                    18:2a:64:89:71:58:29:c0:01:14:b8:24:6b:11:49:
                    ce:ca:ee:ae:f7:58:ef:e2:8d:ef:06:0b:1a:80:56:
                    44:e3
                Exponent: 65537 (0x10001)
        X509v3 extensions:
            X509v3 Subject Key Identifier: 
                EB:77:8D:72:61:57:F3:22:9D:4A:DC:36:17:BD:C2:03:47:02:5D:AE
            X509v3 Authority Key Identifier: 
                75:F1:34:2D:9F:C0:A0:4E:71:BB:0C:37:85:8A:88:FC:6D:A2:28:55
            X509v3 Key Usage: critical
                Digital Signature, Non Repudiation, Key Encipherment
            X509v3 Extended Key Usage: 
                TLS Web Server Authentication
            X509v3 Subject Alternative Name: 
                IP Address:127.0.0.2
    Signature Algorithm: sha256WithRSAEncryption
    Signature Value:
        85:01:d4:30:7c:59:0c:97:d0:d4:22:06:07:0e:f6:d8:cd:0e:
        63:d3:0b:a2:bd:27:8e:3a:2d:b1:50:ec:1d:bc:15:50:3d:41:
        43:77:b9:9b:72:22:d8:92:64:28:9f:4f:81:e6:6e:a4:73:06:
        b0:56:a9:5e:58:3e:bf:f2:fe:6a:38:57:f8:0d:70:d0:60:8e:
        ac:4e:7f:cb:23:a8:db:3c:91:63:89:54:f1:63:9d:81:49:16:
        c4:9d:5c:23:13:3a:3b:2d:09:9f:52:e7:ef:c7:b5:9c:42:9e:
        81:7b:f1:df:53:67:ca:c0:96:5a:aa:59:af:60:e6:cd:94:63:
        27:20:93:7c:a0:c9:03:0e:5e:b3:9d:11:27:9d:d7:18:0d:4d:
        eb:ba:89:39:c4:28:48:58:07:a7:d3:2b:08:44:42:be:3c:9a:
        33:19:c4:64:cd:f3:1e:23:66:e2:93:d7:5f:a8:f6:b5:a6:da:
        98:9e:27:3e:6a:cc:58:47:ea:f5:ee:2d:1e:b1:92:5c:6a:8c:
        4f:c3:29:40:7a:91:91:5f:15:b6:cc:dd:5d:f2:27:53:8c:77:
        1b:75:9b:1f:35:10:ff:b4:78:34:1a:bb:a3:ee:44:f3:d9:f1:
        98:df:29:6a:a9:c9:f7:d4:31:17:0c:4a:b8:de:87:78:fc:89:
        19:b4:ff:4d
-----BEGIN CERTIFICATE-----
MIIECDCCAvCgAwIBAgICEAgwDQYJKoZIhvcNAQELBQAwgYkxCzAJBgNVBAYTAlVT
MRAwDgYDVQQIDAdGbG9yaWRhMRAwDgYDVQQHDAdKdXBpdGVyMQ4wDAYDVQQKDAVa
ZXJvQzEMMAoGA1UECwwDSWNlMRgwFgYDVQQDDA9aZXJvQyBUZXN0IENBIDExHjAc
BgkqhkiG9w0BCQEWD3Rlc3RzQHplcm9jLmNvbTAeFw0yNTA1MjIxNjU1MTJaFw0y
NjA2MjQxNjU1MTJaMIGJMQ8wDQYDVQQDDAZzZXJ2ZXIxCzAJBgNVBAYTAlVTMRAw
DgYDVQQIDAdGbG9yaWRhMRAwDgYDVQQHDAdKdXBpdGVyMRQwEgYDVQQKDAtaZXJv
QywgSW5jLjEQMA4GA1UECwwHSWNlIENONzEdMBsGCSqGSIb3DQEJARYOaW5mb0B6
ZXJvYy5jb20wggEiMA0GCSqGSIb3DQEBAQUAA4IBDwAwggEKAoIBAQDRS6jmCr/L
iZzgcG9aXjElJoUvmQ0cs6DfnIZO4DttZLnQo8AXZxtAiFg5MkOgqrXb9yTtBZGy
mv0i7HblhPZPLICQjLMxNXswHoDGEX6xO8Qr0SCAI3UZtcJ1Ufnx/6FVMizw4rfE
TZ+Qe9B8Y2B/hQmhIjztHlyRA5ThYztBTV325a1s971q1WaX+mKXQ+lqs01Mcsa9
oC7FBfprgRMtcqOU0xllpzjTZEtz8/Ic2U/YftD4YfhkCbzLDEgZGxZGOcPKcSlV
h7h9pVEuY2DcdJp3rE0t8ZsJGKL1hshf6RgqZIlxWCnAARS4JGsRSc7K7q73WO/i
je8GCxqAVkTjAgMBAAGjeDB2MB0GA1UdDgQWBBTrd41yYVfzIp1K3DYXvcIDRwJd
rjAfBgNVHSMEGDAWgBR18TQtn8CgTnG7DDeFioj8baIoVTAOBgNVHQ8BAf8EBAMC
BeAwEwYDVR0lBAwwCgYIKwYBBQUHAwEwDwYDVR0RBAgwBocEfwAAAjANBgkqhkiG
9w0BAQsFAAOCAQEAhQHUMHxZDJfQ1CIGBw722M0OY9MLor0njjotsVDsHbwVUD1B
Q3e5m3Ii2JJkKJ9PgeZupHMGsFapXlg+v/L+ajhX+A1w0GCOrE5/yyOo2zyRY4lU
8WOdgUkWxJ1cIxM6Oy0Jn1Ln78e1nEKegXvx31NnysCWWqpZr2DmzZRjJyCTfKDJ
Aw5es50RJ53XGA1N67qJOcQoSFgHp9MrCERCvjyaMxnEZM3zHiNm4pPXX6j2taba
mJ4nPmrMWEfq9e4tHrGSXGqMT8MpQHqRkV8VtszdXfInU4x3G3WbHzUQ/7R4NBq7
o+5E89nxmN8paqnJ99QxFwxKuN6HePyJGbT/TQ==
-----END CERTIFICATE-----
