Certificate:
    Data:
        Version: 3 (0x2)
        Serial Number: 4104 (0x1008)
        Signature Algorithm: sha256WithRSAEncryption
        Issuer: C=US, ST=Florida, L=Jupiter, O=ZeroC, OU=Ice, CN=ZeroC Test CA 1/emailAddress=tests@zeroc.com
        Validity
            Not Before: May 22 16:16:09 2025 GMT
            Not After : Jun 24 16:16:09 2026 GMT
        Subject: CN=server, C=US, ST=Florida, L=Jupiter, O=ZeroC, Inc., OU=Ice CN7/emailAddress=info@zeroc.com
        Subject Public Key Info:
            Public Key Algorithm: rsaEncryption
                Public-Key: (2048 bit)
                Modulus:
                    00:d4:b8:87:1b:0f:27:21:63:51:ea:db:f3:2f:bd:
                    c0:39:de:3d:66:6b:4b:cf:66:0c:58:65:e8:3f:02:
                    3c:54:96:6e:f8:14:4a:38:b4:7f:3e:26:77:a3:e0:
                    7d:0a:00:93:73:95:13:07:c2:6f:48:ba:9b:8d:ad:
                    fb:c7:7d:9c:52:26:b1:f9:53:9b:d2:8f:ae:8a:2b:
                    98:c9:be:35:5a:3d:04:24:bd:55:03:cd:65:48:55:
                    20:c1:f6:e9:e3:39:83:eb:81:9a:a7:87:6a:5b:79:
                    d9:e6:90:a7:d5:60:a8:85:13:5c:59:67:2f:5b:39:
                    99:4e:66:f7:8b:26:10:55:c5:f3:97:d6:19:43:98:
                    4d:56:77:3e:1f:b3:fb:1b:01:7c:7f:49:73:6e:c5:
                    b8:7b:41:b7:90:a4:e7:d0:89:44:33:43:8e:a7:d1:
                    da:0f:a9:04:a2:1f:95:f2:fa:f4:68:c1:a1:c0:13:
                    b3:d6:ed:c4:27:47:76:f1:88:4c:c6:15:ed:48:b9:
                    66:ef:04:fb:82:f1:f8:9e:c2:09:42:18:6e:fd:78:
                    a8:6a:bd:92:6e:a4:b6:e5:fa:cb:79:83:dc:8b:4b:
                    fb:d9:2f:9f:c8:c9:2e:b7:06:89:8a:76:4d:12:2a:
                    c0:af:91:6b:84:8e:a3:08:98:75:12:38:c7:28:4f:
                    5d:c1
                Exponent: 65537 (0x10001)
        X509v3 extensions:
            X509v3 Subject Key Identifier: 
                C8:74:B0:C7:51:8D:38:F4:9F:E8:E8:E9:B5:42:4E:C2:FF:94:FD:91
            X509v3 Authority Key Identifier: 
                F7:4F:F3:3B:30:9F:3B:1F:27:4E:C3:C7:A4:7F:0C:FA:A6:40:B6:A1
            X509v3 Key Usage: critical
                Digital Signature, Non Repudiation, Key Encipherment
            X509v3 Extended Key Usage: 
                TLS Web Server Authentication
            X509v3 Subject Alternative Name: 
                IP Address:127.0.0.2
    Signature Algorithm: sha256WithRSAEncryption
    Signature Value:
        98:7a:dc:81:ce:28:21:fd:26:be:d2:da:6c:59:39:5d:d1:38:
        e3:b1:67:d8:93:dc:2c:58:9b:71:51:93:11:1a:45:fa:a3:c3:
        67:7f:d0:f1:f6:18:53:55:8b:07:70:f3:06:da:95:ea:0d:ae:
        0c:30:d2:42:94:b9:9c:cc:7b:ac:50:53:7b:de:eb:ce:36:82:
        88:c8:fe:f6:f9:ba:b2:46:58:f1:58:a9:30:73:66:98:d9:cd:
        4f:55:d4:02:67:f0:45:68:df:6e:e9:8f:d0:8f:84:2a:df:b9:
        01:93:14:f8:83:8c:ba:bd:13:b2:91:4b:1e:f8:72:f6:c3:cb:
        3c:f3:66:ba:a5:11:06:a1:f5:d4:c0:f1:85:5b:df:4f:03:fe:
        44:a6:50:47:74:fe:1a:ed:31:19:b5:1a:d7:ce:4f:5f:c9:ae:
        5b:61:3e:64:ad:86:d9:83:f4:7a:01:a2:e0:68:87:0c:bf:0a:
        4e:d9:23:06:45:ad:73:0a:bc:cb:ae:53:d9:61:2e:fd:c6:52:
        39:ef:47:46:f7:fa:8f:94:8a:a5:62:6a:ab:0c:e9:25:8b:8f:
        4d:a3:0b:d0:8b:ff:e3:34:ce:85:a6:19:73:57:ae:07:7c:37:
        03:1b:ae:d7:20:5f:25:69:9c:1b:7a:9c:02:ea:e6:e7:1e:34:
        86:91:d4:60
-----BEGIN CERTIFICATE-----
MIIECDCCAvCgAwIBAgICEAgwDQYJKoZIhvcNAQELBQAwgYkxCzAJBgNVBAYTAlVT
MRAwDgYDVQQIDAdGbG9yaWRhMRAwDgYDVQQHDAdKdXBpdGVyMQ4wDAYDVQQKDAVa
ZXJvQzEMMAoGA1UECwwDSWNlMRgwFgYDVQQDDA9aZXJvQyBUZXN0IENBIDExHjAc
BgkqhkiG9w0BCQEWD3Rlc3RzQHplcm9jLmNvbTAeFw0yNTA1MjIxNjE2MDlaFw0y
NjA2MjQxNjE2MDlaMIGJMQ8wDQYDVQQDDAZzZXJ2ZXIxCzAJBgNVBAYTAlVTMRAw
DgYDVQQIDAdGbG9yaWRhMRAwDgYDVQQHDAdKdXBpdGVyMRQwEgYDVQQKDAtaZXJv
QywgSW5jLjEQMA4GA1UECwwHSWNlIENONzEdMBsGCSqGSIb3DQEJARYOaW5mb0B6
ZXJvYy5jb20wggEiMA0GCSqGSIb3DQEBAQUAA4IBDwAwggEKAoIBAQDUuIcbDych
Y1Hq2/MvvcA53j1ma0vPZgxYZeg/AjxUlm74FEo4tH8+Jnej4H0KAJNzlRMHwm9I
upuNrfvHfZxSJrH5U5vSj66KK5jJvjVaPQQkvVUDzWVIVSDB9unjOYPrgZqnh2pb
ednmkKfVYKiFE1xZZy9bOZlOZveLJhBVxfOX1hlDmE1Wdz4fs/sbAXx/SXNuxbh7
QbeQpOfQiUQzQ46n0doPqQSiH5Xy+vRowaHAE7PW7cQnR3bxiEzGFe1IuWbvBPuC
8fiewglCGG79eKhqvZJupLbl+st5g9yLS/vZL5/IyS63BomKdk0SKsCvkWuEjqMI
mHUSOMcoT13BAgMBAAGjeDB2MB0GA1UdDgQWBBTIdLDHUY049J/o6Om1Qk7C/5T9
kTAfBgNVHSMEGDAWgBT3T/M7MJ87HydOw8ekfwz6pkC2oTAOBgNVHQ8BAf8EBAMC
BeAwEwYDVR0lBAwwCgYIKwYBBQUHAwEwDwYDVR0RBAgwBocEfwAAAjANBgkqhkiG
9w0BAQsFAAOCAQEAmHrcgc4oIf0mvtLabFk5XdE447Fn2JPcLFibcVGTERpF+qPD
Z3/Q8fYYU1WLB3DzBtqV6g2uDDDSQpS5nMx7rFBTe97rzjaCiMj+9vm6skZY8Vip
MHNmmNnNT1XUAmfwRWjfbumP0I+EKt+5AZMU+IOMur0TspFLHvhy9sPLPPNmuqUR
BqH11MDxhVvfTwP+RKZQR3T+Gu0xGbUa185PX8muW2E+ZK2G2YP0egGi4GiHDL8K
TtkjBkWtcwq8y65T2WEu/cZSOe9HRvf6j5SKpWJqqwzpJYuPTaML0Iv/4zTOhaYZ
c1euB3w3Axuu1yBfJWmcG3qcAurm5x40hpHUYA==
-----END CERTIFICATE-----
