Certificate:
    Data:
        Version: 3 (0x2)
        Serial Number: 4105 (0x1009)
        Signature Algorithm: sha256WithRSAEncryption
        Issuer: C=US, ST=Florida, L=Jupiter, O=ZeroC, OU=Ice, CN=ZeroC Test CA 1/emailAddress=tests@zeroc.com
        Validity
            Not Before: May 22 16:16:09 2025 GMT
            Not After : Jun 24 16:16:09 2026 GMT
        Subject: CN=server, C=US, ST=Florida, L=Jupiter, O=ZeroC, Inc., OU=Ice CN6/emailAddress=info@zeroc.com
        Subject Public Key Info:
            Public Key Algorithm: rsaEncryption
                Public-Key: (2048 bit)
                Modulus:
                    00:a9:7b:b7:bb:f3:12:ac:4b:40:fa:d4:ae:b9:b0:
                    78:50:66:6d:67:02:cc:67:2d:80:0f:27:aa:09:0a:
                    b8:67:30:aa:71:2b:13:c0:09:71:21:50:6e:76:8d:
                    8c:b2:7c:56:c4:76:b3:76:02:50:75:8c:62:1c:43:
                    e9:95:4d:03:c6:f2:fa:d4:6b:2e:3c:11:a0:bb:95:
                    bc:e3:5d:13:78:b7:97:8d:cf:34:31:82:f1:bb:b8:
                    2d:26:9e:61:0d:eb:90:e9:3d:b6:df:0d:ec:a1:1a:
                    4c:77:56:c1:5b:96:dc:ba:e3:9e:c9:cb:f4:cf:38:
                    3a:1f:98:44:10:8a:8c:48:e1:26:2a:63:c0:33:c0:
                    25:c2:4b:b2:c6:ee:d1:4a:26:91:75:75:da:38:d3:
                    0e:3f:68:bb:35:1f:fb:7b:e4:45:4e:35:08:2c:7e:
                    8e:46:22:34:0d:e3:76:a5:d1:82:07:e0:07:e9:e5:
                    ac:83:04:86:42:68:c2:87:e3:b2:a6:57:e0:ee:32:
                    29:f7:0c:c9:11:19:89:52:54:f0:b8:b0:e9:aa:70:
                    07:93:12:cb:1f:5d:4c:49:b9:72:c8:15:4d:e7:c3:
                    a3:45:5d:c4:5f:e5:14:11:d7:0d:9b:3a:4c:23:97:
                    21:c2:44:69:48:97:2d:e0:2e:3b:a7:d1:34:67:0a:
                    4f:f3
                Exponent: 65537 (0x10001)
        X509v3 extensions:
            X509v3 Subject Key Identifier: 
                AB:D5:0F:F4:3E:63:E2:48:99:C8:F1:9A:39:59:76:EC:0D:3F:F1:97
            X509v3 Authority Key Identifier: 
                F7:4F:F3:3B:30:9F:3B:1F:27:4E:C3:C7:A4:7F:0C:FA:A6:40:B6:A1
            X509v3 Key Usage: critical
                Digital Signature, Non Repudiation, Key Encipherment
            X509v3 Extended Key Usage: 
                TLS Web Server Authentication
            X509v3 Subject Alternative Name: 
                IP Address:127.0.0.1
    Signature Algorithm: sha256WithRSAEncryption
    Signature Value:
        0b:4a:45:3f:b6:8e:21:b4:64:5e:80:d9:98:10:1c:e0:06:7e:
        ce:fa:f1:24:5d:b2:d1:d4:cd:a1:73:8a:1e:50:cb:00:0c:00:
        ec:fd:f0:4a:f6:8f:e5:58:99:79:7e:85:d6:57:34:16:4f:fc:
        bb:8b:9f:3f:67:d3:aa:0e:c1:b9:33:10:3c:eb:5c:85:87:8b:
        43:b3:41:dd:11:6e:69:03:e4:80:f3:6a:8d:c8:ce:20:5e:07:
        96:52:0c:a7:7a:7c:9d:f5:c8:66:20:64:11:83:0a:bf:a9:15:
        5b:bf:9d:fa:b4:80:10:6a:d2:ab:20:b1:c3:e9:c3:65:d6:ab:
        88:e4:a5:30:ca:29:2b:e3:33:64:8a:bf:11:75:96:ca:7b:30:
        a1:c3:8f:f0:6e:61:0b:21:32:e3:44:53:5c:7f:b4:2c:0f:d6:
        c3:1c:e8:b6:10:0a:15:bd:c0:98:e9:a4:6b:c2:6f:de:e0:63:
        ba:8a:0a:a2:fd:aa:e1:3d:0d:dc:54:91:ba:94:f9:41:66:5d:
        56:32:89:8a:4e:c5:59:bb:a5:5a:8a:ff:92:f9:08:8e:7e:59:
        a7:ac:bd:3b:f2:d1:cc:1b:40:96:07:3c:10:95:8b:90:c4:4d:
        c4:e0:ac:b1:1b:23:96:59:20:7b:dc:b5:b0:5d:ee:b9:9e:f2:
        2b:36:68:ed
-----BEGIN CERTIFICATE-----
MIIECDCCAvCgAwIBAgICEAkwDQYJKoZIhvcNAQELBQAwgYkxCzAJBgNVBAYTAlVT
MRAwDgYDVQQIDAdGbG9yaWRhMRAwDgYDVQQHDAdKdXBpdGVyMQ4wDAYDVQQKDAVa
ZXJvQzEMMAoGA1UECwwDSWNlMRgwFgYDVQQDDA9aZXJvQyBUZXN0IENBIDExHjAc
BgkqhkiG9w0BCQEWD3Rlc3RzQHplcm9jLmNvbTAeFw0yNTA1MjIxNjE2MDlaFw0y
NjA2MjQxNjE2MDlaMIGJMQ8wDQYDVQQDDAZzZXJ2ZXIxCzAJBgNVBAYTAlVTMRAw
DgYDVQQIDAdGbG9yaWRhMRAwDgYDVQQHDAdKdXBpdGVyMRQwEgYDVQQKDAtaZXJv
QywgSW5jLjEQMA4GA1UECwwHSWNlIENONjEdMBsGCSqGSIb3DQEJARYOaW5mb0B6
ZXJvYy5jb20wggEiMA0GCSqGSIb3DQEBAQUAA4IBDwAwggEKAoIBAQCpe7e78xKs
S0D61K65sHhQZm1nAsxnLYAPJ6oJCrhnMKpxKxPACXEhUG52jYyyfFbEdrN2AlB1
jGIcQ+mVTQPG8vrUay48EaC7lbzjXRN4t5eNzzQxgvG7uC0mnmEN65DpPbbfDeyh
Gkx3VsFblty6457Jy/TPODofmEQQioxI4SYqY8AzwCXCS7LG7tFKJpF1ddo40w4/
aLs1H/t75EVONQgsfo5GIjQN43al0YIH4Afp5ayDBIZCaMKH47KmV+DuMin3DMkR
GYlSVPC4sOmqcAeTEssfXUxJuXLIFU3nw6NFXcRf5RQR1w2bOkwjlyHCRGlIly3g
Ljun0TRnCk/zAgMBAAGjeDB2MB0GA1UdDgQWBBSr1Q/0PmPiSJnI8Zo5WXbsDT/x
lzAfBgNVHSMEGDAWgBT3T/M7MJ87HydOw8ekfwz6pkC2oTAOBgNVHQ8BAf8EBAMC
BeAwEwYDVR0lBAwwCgYIKwYBBQUHAwEwDwYDVR0RBAgwBocEfwAAATANBgkqhkiG
9w0BAQsFAAOCAQEAC0pFP7aOIbRkXoDZmBAc4AZ+zvrxJF2y0dTNoXOKHlDLAAwA
7P3wSvaP5ViZeX6F1lc0Fk/8u4ufP2fTqg7BuTMQPOtchYeLQ7NB3RFuaQPkgPNq
jcjOIF4HllIMp3p8nfXIZiBkEYMKv6kVW7+d+rSAEGrSqyCxw+nDZdariOSlMMop
K+MzZIq/EXWWynswocOP8G5hCyEy40RTXH+0LA/WwxzothAKFb3AmOmka8Jv3uBj
uooKov2q4T0N3FSRupT5QWZdVjKJik7FWbulWor/kvkIjn5Zp6y9O/LRzBtAlgc8
EJWLkMRNxOCssRsjllkge9y1sF3uuZ7yKzZo7Q==
-----END CERTIFICATE-----
