Certificate:
    Data:
        Version: 3 (0x2)
        Serial Number: 4105 (0x1009)
        Signature Algorithm: sha256WithRSAEncryption
        Issuer: C=US, ST=Florida, L=Jupiter, O=ZeroC, OU=Ice, CN=ZeroC Test CA 1/emailAddress=tests@zeroc.com
        Validity
            Not Before: May 22 15:10:14 2025 GMT
            Not After : Jun 24 15:10:14 2026 GMT
        Subject: CN=server, C=US, ST=Florida, L=Jupiter, O=ZeroC, Inc., OU=Ice CN6/emailAddress=info@zeroc.com
        Subject Public Key Info:
            Public Key Algorithm: rsaEncryption
                Public-Key: (2048 bit)
                Modulus:
                    00:a3:8a:5c:29:76:14:72:1b:4f:33:83:fd:5e:c2:
                    51:f2:94:38:dc:98:b5:58:ee:46:95:58:77:09:03:
                    fb:bd:63:80:9c:82:82:21:22:d6:1a:1d:06:a7:dc:
                    1d:b0:9f:43:3c:12:5f:08:5b:d7:11:72:1b:df:aa:
                    5e:15:6f:e1:99:f1:a2:91:eb:a8:0e:48:5a:95:27:
                    cf:75:74:f6:2e:c2:6e:2b:a5:f0:96:9b:cc:a4:66:
                    52:58:f5:68:cd:b4:99:45:21:c8:bb:30:a5:59:36:
                    b6:25:e8:11:ec:59:4a:11:31:93:b4:b5:cc:e3:46:
                    fb:d1:15:8e:a5:c1:26:c7:d5:dd:89:fa:ed:d0:2f:
                    bd:a6:f5:6b:2c:c6:94:c6:e3:18:63:7a:40:5a:62:
                    08:8a:e6:cf:b7:32:ea:5d:40:09:08:a1:38:2a:86:
                    1e:f9:10:77:b5:d6:db:02:33:6b:2d:5c:a7:fa:b3:
                    a4:9a:e4:86:05:70:4f:25:a0:87:7d:53:56:35:27:
                    00:a9:e2:1c:25:f5:d1:47:f2:20:24:91:6c:23:34:
                    29:e4:5d:8d:f2:cb:9f:fc:98:3c:25:40:8b:44:15:
                    44:6a:40:f6:3b:4b:83:be:ca:c6:2c:ed:a2:65:af:
                    59:b2:da:67:f5:f6:2a:40:f5:82:7f:42:c4:dc:56:
                    ac:d9
                Exponent: 65537 (0x10001)
        X509v3 extensions:
            X509v3 Subject Key Identifier: 
                56:3B:64:DB:09:3B:6B:19:B8:DB:06:29:83:19:C4:E3:A8:A9:BF:17
            X509v3 Authority Key Identifier: 
                DA:FC:2F:0E:65:38:82:A6:37:87:8A:5E:C8:1C:FB:FB:FF:86:78:C5
            X509v3 Key Usage: critical
                Digital Signature, Non Repudiation, Key Encipherment
            X509v3 Extended Key Usage: 
                TLS Web Server Authentication
            X509v3 Subject Alternative Name: 
                IP Address:127.0.0.1
    Signature Algorithm: sha256WithRSAEncryption
    Signature Value:
        24:ed:56:95:e3:6a:72:61:b2:58:90:94:21:03:41:66:7a:b2:
        98:a8:fb:d2:a6:7d:2c:53:f5:45:ed:3c:58:0d:91:7d:c5:6a:
        1c:ed:54:89:c8:bd:fb:b8:40:01:04:30:75:35:92:16:e0:30:
        cc:cc:2f:84:da:9d:bb:18:ef:e9:30:6c:0d:35:e5:4f:a8:f8:
        5b:c2:51:0c:01:d0:c1:3b:85:90:55:f7:cc:7d:0e:2c:df:ac:
        5a:c6:8f:5f:7f:3d:35:4d:bb:aa:3a:a8:e9:13:87:3b:b8:73:
        8e:71:ec:eb:f4:8b:24:42:08:62:86:53:bf:d8:53:dc:a9:6c:
        55:1c:60:0a:f3:1b:a3:b5:51:e3:c3:e5:28:59:75:3c:9d:e8:
        49:48:fe:63:ba:76:3f:c2:2d:35:ea:2e:99:ab:d2:64:b9:a2:
        df:11:93:0e:82:8e:4d:24:40:94:7e:6a:3e:30:65:bd:5d:42:
        8b:7a:ce:f4:8e:3d:71:7e:8b:40:5b:66:17:e2:a5:10:28:3b:
        3e:3c:47:1a:63:fb:cc:1f:cc:59:c5:a1:dc:a1:4e:55:91:63:
        62:83:1c:73:d0:a9:6a:98:1d:3f:26:da:f9:c5:d5:f7:89:1e:
        94:d3:2e:b0:a5:9d:84:5b:6e:ae:99:f4:23:da:b9:70:ab:ab:
        ff:d1:60:bb
-----BEGIN CERTIFICATE-----
MIIECDCCAvCgAwIBAgICEAkwDQYJKoZIhvcNAQELBQAwgYkxCzAJBgNVBAYTAlVT
MRAwDgYDVQQIDAdGbG9yaWRhMRAwDgYDVQQHDAdKdXBpdGVyMQ4wDAYDVQQKDAVa
ZXJvQzEMMAoGA1UECwwDSWNlMRgwFgYDVQQDDA9aZXJvQyBUZXN0IENBIDExHjAc
BgkqhkiG9w0BCQEWD3Rlc3RzQHplcm9jLmNvbTAeFw0yNTA1MjIxNTEwMTRaFw0y
NjA2MjQxNTEwMTRaMIGJMQ8wDQYDVQQDDAZzZXJ2ZXIxCzAJBgNVBAYTAlVTMRAw
DgYDVQQIDAdGbG9yaWRhMRAwDgYDVQQHDAdKdXBpdGVyMRQwEgYDVQQKDAtaZXJv
QywgSW5jLjEQMA4GA1UECwwHSWNlIENONjEdMBsGCSqGSIb3DQEJARYOaW5mb0B6
ZXJvYy5jb20wggEiMA0GCSqGSIb3DQEBAQUAA4IBDwAwggEKAoIBAQCjilwpdhRy
G08zg/1ewlHylDjcmLVY7kaVWHcJA/u9Y4CcgoIhItYaHQan3B2wn0M8El8IW9cR
chvfql4Vb+GZ8aKR66gOSFqVJ891dPYuwm4rpfCWm8ykZlJY9WjNtJlFIci7MKVZ
NrYl6BHsWUoRMZO0tczjRvvRFY6lwSbH1d2J+u3QL72m9WssxpTG4xhjekBaYgiK
5s+3MupdQAkIoTgqhh75EHe11tsCM2stXKf6s6Sa5IYFcE8loId9U1Y1JwCp4hwl
9dFH8iAkkWwjNCnkXY3yy5/8mDwlQItEFURqQPY7S4O+ysYs7aJlr1my2mf19ipA
9YJ/QsTcVqzZAgMBAAGjeDB2MB0GA1UdDgQWBBRWO2TbCTtrGbjbBimDGcTjqKm/
FzAfBgNVHSMEGDAWgBTa/C8OZTiCpjeHil7IHPv7/4Z4xTAOBgNVHQ8BAf8EBAMC
BeAwEwYDVR0lBAwwCgYIKwYBBQUHAwEwDwYDVR0RBAgwBocEfwAAATANBgkqhkiG
9w0BAQsFAAOCAQEAJO1WleNqcmGyWJCUIQNBZnqymKj70qZ9LFP1Re08WA2RfcVq
HO1Uici9+7hAAQQwdTWSFuAwzMwvhNqduxjv6TBsDTXlT6j4W8JRDAHQwTuFkFX3
zH0OLN+sWsaPX389NU27qjqo6ROHO7hzjnHs6/SLJEIIYoZTv9hT3KlsVRxgCvMb
o7VR48PlKFl1PJ3oSUj+Y7p2P8ItNeoumavSZLmi3xGTDoKOTSRAlH5qPjBlvV1C
i3rO9I49cX6LQFtmF+KlECg7PjxHGmP7zB/MWcWh3KFOVZFjYoMcc9CpapgdPyba
+cXV94kelNMusKWdhFturpn0I9q5cKur/9Fguw==
-----END CERTIFICATE-----
