Certificate:
    Data:
        Version: 3 (0x2)
        Serial Number: 4105 (0x1009)
        Signature Algorithm: sha256WithRSAEncryption
        Issuer: C=US, ST=Florida, L=Jupiter, O=ZeroC, OU=Ice, CN=ZeroC Test CA 1/emailAddress=tests@zeroc.com
        Validity
            Not Before: May 22 16:55:13 2025 GMT
            Not After : Jun 24 16:55:13 2026 GMT
        Subject: CN=server, C=US, ST=Florida, L=Jupiter, O=ZeroC, Inc., OU=Ice CN6/emailAddress=info@zeroc.com
        Subject Public Key Info:
            Public Key Algorithm: rsaEncryption
                Public-Key: (2048 bit)
                Modulus:
                    00:9e:d6:ef:fc:7b:3f:d6:d3:bc:c0:b2:14:78:71:
                    be:9a:5a:94:cd:4e:ab:4b:f6:9b:09:bf:e0:ba:39:
                    03:f4:bc:ee:22:78:68:44:f7:28:79:6b:21:31:58:
                    b0:93:fc:07:4b:77:01:7a:c7:96:6c:3b:ca:63:c1:
                    48:3b:97:5d:4c:c4:01:d3:04:3f:73:24:0f:1b:d3:
                    1c:c7:79:e9:29:da:3f:33:bf:c4:87:54:70:2e:80:
                    09:04:20:d6:59:a6:a9:92:08:30:e6:3f:6c:a2:9c:
                    e5:73:4e:9d:b3:0e:8a:09:79:54:59:07:f5:48:06:
                    5e:56:7e:f7:52:e8:bc:3e:1c:23:b5:9e:ef:ee:4f:
                    4a:b4:3e:88:f3:be:50:a1:ec:99:5d:5c:e5:a1:ce:
                    24:b4:81:cd:9d:63:73:bf:dd:27:bc:5a:38:da:fe:
                    31:5d:0a:dc:6a:6d:f8:f0:5e:bc:ff:1f:9f:0e:00:
                    09:e0:0e:54:b8:b2:98:05:c6:78:f1:d6:87:79:fa:
                    ef:94:60:05:c3:80:1b:e0:e6:cb:5b:e3:09:51:f6:
                    81:e2:3c:23:97:f3:be:57:0b:7d:c2:c0:4c:28:1b:
                    61:77:63:38:09:54:53:c8:ce:72:4c:ff:eb:ca:65:
                    b4:89:6a:ac:4d:f2:10:ca:04:e6:8a:0f:1c:4c:2f:
                    c0:47
                Exponent: 65537 (0x10001)
        X509v3 extensions:
            X509v3 Subject Key Identifier: 
                C6:EE:AF:34:8A:D3:4F:B5:F5:4F:8B:D0:5D:3D:1F:9B:D8:7C:FB:10
            X509v3 Authority Key Identifier: 
                75:F1:34:2D:9F:C0:A0:4E:71:BB:0C:37:85:8A:88:FC:6D:A2:28:55
            X509v3 Key Usage: critical
                Digital Signature, Non Repudiation, Key Encipherment
            X509v3 Extended Key Usage: 
                TLS Web Server Authentication
            X509v3 Subject Alternative Name: 
                IP Address:127.0.0.1
    Signature Algorithm: sha256WithRSAEncryption
    Signature Value:
        92:3c:ba:fc:16:22:55:a8:70:8f:fa:c8:f8:69:ea:91:73:a1:
        f5:66:d0:17:64:35:37:a6:ee:6a:12:8b:01:83:09:58:c5:2b:
        04:ab:f9:a2:48:5d:18:b3:75:ff:d8:c7:be:8e:61:ef:c4:1e:
        88:a3:a4:c8:a1:84:be:5a:18:59:71:32:37:44:2c:2c:2f:4b:
        cd:85:97:2c:54:7e:b5:8f:6d:1d:71:ae:8f:e4:50:63:07:98:
        9f:47:94:a2:86:59:c6:6a:a2:b2:be:11:0e:14:cc:72:8f:22:
        37:1b:bc:23:12:8d:7f:12:25:46:86:6f:bb:1e:19:7a:3d:46:
        7a:d1:73:cb:ef:63:da:54:4e:c0:df:f6:9e:1f:84:34:33:9e:
        c0:02:27:aa:38:c0:bb:1a:a4:a5:5a:77:a5:75:00:50:62:3c:
        3c:74:19:3e:d3:73:a0:88:b3:b5:88:cc:78:07:6b:0c:81:da:
        1b:3a:0c:31:0c:d0:a3:f9:de:76:ae:3f:8e:4f:d3:2c:e8:09:
        a0:5c:4a:ca:d2:71:27:09:c2:b7:a6:98:16:3a:9f:5c:c4:f0:
        2d:5c:4a:0e:84:77:d9:8c:d5:67:da:e9:03:af:65:f3:b6:77:
        0e:0e:38:51:0b:03:28:87:b1:3d:1a:cc:a2:08:ed:80:01:bc:
        90:aa:3e:27
-----BEGIN CERTIFICATE-----
MIIECDCCAvCgAwIBAgICEAkwDQYJKoZIhvcNAQELBQAwgYkxCzAJBgNVBAYTAlVT
MRAwDgYDVQQIDAdGbG9yaWRhMRAwDgYDVQQHDAdKdXBpdGVyMQ4wDAYDVQQKDAVa
ZXJvQzEMMAoGA1UECwwDSWNlMRgwFgYDVQQDDA9aZXJvQyBUZXN0IENBIDExHjAc
BgkqhkiG9w0BCQEWD3Rlc3RzQHplcm9jLmNvbTAeFw0yNTA1MjIxNjU1MTNaFw0y
NjA2MjQxNjU1MTNaMIGJMQ8wDQYDVQQDDAZzZXJ2ZXIxCzAJBgNVBAYTAlVTMRAw
DgYDVQQIDAdGbG9yaWRhMRAwDgYDVQQHDAdKdXBpdGVyMRQwEgYDVQQKDAtaZXJv
QywgSW5jLjEQMA4GA1UECwwHSWNlIENONjEdMBsGCSqGSIb3DQEJARYOaW5mb0B6
ZXJvYy5jb20wggEiMA0GCSqGSIb3DQEBAQUAA4IBDwAwggEKAoIBAQCe1u/8ez/W
07zAshR4cb6aWpTNTqtL9psJv+C6OQP0vO4ieGhE9yh5ayExWLCT/AdLdwF6x5Zs
O8pjwUg7l11MxAHTBD9zJA8b0xzHeekp2j8zv8SHVHAugAkEINZZpqmSCDDmP2yi
nOVzTp2zDooJeVRZB/VIBl5WfvdS6Lw+HCO1nu/uT0q0PojzvlCh7JldXOWhziS0
gc2dY3O/3Se8Wjja/jFdCtxqbfjwXrz/H58OAAngDlS4spgFxnjx1od5+u+UYAXD
gBvg5stb4wlR9oHiPCOX875XC33CwEwoG2F3YzgJVFPIznJM/+vKZbSJaqxN8hDK
BOaKDxxML8BHAgMBAAGjeDB2MB0GA1UdDgQWBBTG7q80itNPtfVPi9BdPR+b2Hz7
EDAfBgNVHSMEGDAWgBR18TQtn8CgTnG7DDeFioj8baIoVTAOBgNVHQ8BAf8EBAMC
BeAwEwYDVR0lBAwwCgYIKwYBBQUHAwEwDwYDVR0RBAgwBocEfwAAATANBgkqhkiG
9w0BAQsFAAOCAQEAkjy6/BYiVahwj/rI+GnqkXOh9WbQF2Q1N6buahKLAYMJWMUr
BKv5okhdGLN1/9jHvo5h78QeiKOkyKGEvloYWXEyN0QsLC9LzYWXLFR+tY9tHXGu
j+RQYweYn0eUooZZxmqisr4RDhTMco8iNxu8IxKNfxIlRoZvux4Zej1GetFzy+9j
2lROwN/2nh+ENDOewAInqjjAuxqkpVp3pXUAUGI8PHQZPtNzoIiztYjMeAdrDIHa
GzoMMQzQo/nedq4/jk/TLOgJoFxKytJxJwnCt6aYFjqfXMTwLVxKDoR32YzVZ9rp
A69l87Z3Dg44UQsDKIexPRrMogjtgAG8kKo+Jw==
-----END CERTIFICATE-----
