Certificate:
    Data:
        Version: 3 (0x2)
        Serial Number: 4106 (0x100a)
        Signature Algorithm: sha256WithRSAEncryption
        Issuer: C=US, ST=Florida, L=Jupiter, O=ZeroC, OU=Ice, CN=ZeroC Test CA 1/emailAddress=tests@zeroc.com
        Validity
            Not Before: May 22 16:55:14 2025 GMT
            Not After : Jun 24 16:55:14 2026 GMT
        Subject: CN=server, C=US, ST=Florida, L=Jupiter, O=ZeroC, Inc., OU=Ice/emailAddress=info@zeroc.com
        Subject Public Key Info:
            Public Key Algorithm: rsaEncryption
                Public-Key: (2048 bit)
                Modulus:
                    00:ee:44:d8:d0:13:ad:55:e8:d1:d5:da:5e:06:21:
                    0f:e0:ef:c5:a2:5f:be:98:72:ff:1d:24:96:19:16:
                    df:cb:2a:5a:8b:c2:06:f0:a0:c5:fd:94:7e:b0:6b:
                    5c:97:fe:3c:a2:6b:9b:6a:53:28:c9:bd:8f:d7:64:
                    f2:1c:33:0f:11:10:3e:6e:5e:40:1b:26:16:a6:8a:
                    08:d9:28:33:fb:6e:1a:53:12:5d:9b:e7:50:84:0f:
                    a5:dc:fb:06:9a:ac:ff:29:fc:4d:bd:cb:08:e1:b9:
                    a9:ba:84:1b:5d:83:7a:2c:8e:e4:ee:66:bd:b4:23:
                    6b:88:b2:8d:8f:27:fd:b8:90:18:b1:95:85:e8:99:
                    44:c9:2a:84:61:44:51:bf:05:05:8e:f7:6e:10:23:
                    0c:0a:39:01:7e:ea:7d:9e:7a:c5:61:f0:26:f5:4f:
                    99:a7:e0:dd:99:6d:d7:79:d9:54:7b:a0:87:56:d6:
                    73:83:19:2e:fb:c9:1d:0d:ce:24:ef:14:f6:6d:92:
                    22:54:36:79:3d:3d:14:04:ff:c4:cd:c6:15:46:10:
                    f9:f3:28:19:6a:29:c1:9c:7d:9e:e3:18:23:e3:19:
                    06:af:d0:a1:3c:6c:42:15:df:4f:d2:70:99:b1:18:
                    37:d3:cb:46:f0:41:a5:89:29:c2:33:c7:0d:9f:be:
                    34:43
                Exponent: 65537 (0x10001)
        X509v3 extensions:
            X509v3 Subject Key Identifier: 
                BB:F3:2E:51:7D:5F:F6:54:BC:91:7B:3C:94:0C:11:6E:BA:A5:DE:81
            X509v3 Authority Key Identifier: 
                75:F1:34:2D:9F:C0:A0:4E:71:BB:0C:37:85:8A:88:FC:6D:A2:28:55
            X509v3 Key Usage: critical
                Digital Signature, Non Repudiation, Key Encipherment
            X509v3 Extended Key Usage: 
                TLS Web Server Authentication
            X509v3 Subject Alternative Name: 
                IP Address:127.0.0.1, DNS:server
    Signature Algorithm: sha256WithRSAEncryption
    Signature Value:
        13:2d:f9:3d:70:5f:33:c9:1f:a3:7b:c5:07:c1:00:ae:c0:7b:
        58:4d:72:2a:93:96:79:17:4e:c2:38:a2:58:98:63:f6:4e:45:
        87:99:d9:40:3b:af:55:a8:96:5f:1a:53:78:d2:4d:16:94:9d:
        d2:4a:ed:ac:7d:56:c5:f8:60:58:f1:44:76:c4:c4:5f:9b:45:
        ab:da:11:e6:b6:b6:b5:89:c5:88:dc:04:6e:e8:5d:33:e7:b8:
        e4:61:52:89:5d:11:3a:6f:e8:cd:96:3f:b1:86:da:b9:f1:2a:
        18:b4:0a:c1:7d:95:36:40:65:a9:21:b1:c5:b5:3b:a7:c9:e6:
        8b:b9:32:3c:5d:74:da:db:07:7f:67:cf:c2:27:1c:cf:4c:ff:
        61:f0:f4:9c:1f:58:74:2e:86:7c:54:13:0c:72:ac:46:40:77:
        10:02:d5:bf:67:4d:e9:ff:36:95:6d:60:17:de:63:ee:2e:e5:
        fb:9f:e3:2b:84:f7:00:ba:a6:97:ec:9f:71:c4:7c:e8:46:e6:
        69:59:31:6d:d5:99:f0:6b:56:15:d3:dd:ed:a4:90:a7:09:95:
        71:a8:53:95:1f:9a:dd:98:bc:be:19:1c:aa:8c:f3:bc:98:58:
        77:a6:22:13:c4:d4:ba:cf:0f:94:cb:6b:41:25:65:89:16:78:
        80:f2:c5:35
-----BEGIN CERTIFICATE-----
MIIEDTCCAvWgAwIBAgICEAowDQYJKoZIhvcNAQELBQAwgYkxCzAJBgNVBAYTAlVT
MRAwDgYDVQQIDAdGbG9yaWRhMRAwDgYDVQQHDAdKdXBpdGVyMQ4wDAYDVQQKDAVa
ZXJvQzEMMAoGA1UECwwDSWNlMRgwFgYDVQQDDA9aZXJvQyBUZXN0IENBIDExHjAc
BgkqhkiG9w0BCQEWD3Rlc3RzQHplcm9jLmNvbTAeFw0yNTA1MjIxNjU1MTRaFw0y
NjA2MjQxNjU1MTRaMIGFMQ8wDQYDVQQDDAZzZXJ2ZXIxCzAJBgNVBAYTAlVTMRAw
DgYDVQQIDAdGbG9yaWRhMRAwDgYDVQQHDAdKdXBpdGVyMRQwEgYDVQQKDAtaZXJv
QywgSW5jLjEMMAoGA1UECwwDSWNlMR0wGwYJKoZIhvcNAQkBFg5pbmZvQHplcm9j
LmNvbTCCASIwDQYJKoZIhvcNAQEBBQADggEPADCCAQoCggEBAO5E2NATrVXo0dXa
XgYhD+DvxaJfvphy/x0klhkW38sqWovCBvCgxf2UfrBrXJf+PKJrm2pTKMm9j9dk
8hwzDxEQPm5eQBsmFqaKCNkoM/tuGlMSXZvnUIQPpdz7Bpqs/yn8Tb3LCOG5qbqE
G12DeiyO5O5mvbQja4iyjY8n/biQGLGVheiZRMkqhGFEUb8FBY73bhAjDAo5AX7q
fZ56xWHwJvVPmafg3Zlt13nZVHugh1bWc4MZLvvJHQ3OJO8U9m2SIlQ2eT09FAT/
xM3GFUYQ+fMoGWopwZx9nuMYI+MZBq/QoTxsQhXfT9JwmbEYN9PLRvBBpYkpwjPH
DZ++NEMCAwEAAaOBgDB+MB0GA1UdDgQWBBS78y5RfV/2VLyRezyUDBFuuqXegTAf
BgNVHSMEGDAWgBR18TQtn8CgTnG7DDeFioj8baIoVTAOBgNVHQ8BAf8EBAMCBeAw
EwYDVR0lBAwwCgYIKwYBBQUHAwEwFwYDVR0RBBAwDocEfwAAAYIGc2VydmVyMA0G
CSqGSIb3DQEBCwUAA4IBAQATLfk9cF8zyR+je8UHwQCuwHtYTXIqk5Z5F07COKJY
mGP2TkWHmdlAO69VqJZfGlN40k0WlJ3SSu2sfVbF+GBY8UR2xMRfm0Wr2hHmtra1
icWI3ARu6F0z57jkYVKJXRE6b+jNlj+xhtq58SoYtArBfZU2QGWpIbHFtTunyeaL
uTI8XXTa2wd/Z8/CJxzPTP9h8PScH1h0LoZ8VBMMcqxGQHcQAtW/Z03p/zaVbWAX
3mPuLuX7n+MrhPcAuqaX7J9xxHzoRuZpWTFt1Znwa1YV093tpJCnCZVxqFOVH5rd
mLy+GRyqjPO8mFh3piITxNS6zw+Uy2tBJWWJFniA8sU1
-----END CERTIFICATE-----
