Certificate:
    Data:
        Version: 3 (0x2)
        Serial Number: 4106 (0x100a)
        Signature Algorithm: sha256WithRSAEncryption
        Issuer: C=US, ST=Florida, L=Jupiter, O=ZeroC, OU=Ice, CN=ZeroC Test CA 1/emailAddress=tests@zeroc.com
        Validity
            Not Before: May 22 16:16:10 2025 GMT
            Not After : Jun 24 16:16:10 2026 GMT
        Subject: CN=server, C=US, ST=Florida, L=Jupiter, O=ZeroC, Inc., OU=Ice/emailAddress=info@zeroc.com
        Subject Public Key Info:
            Public Key Algorithm: rsaEncryption
                Public-Key: (2048 bit)
                Modulus:
                    00:ad:2f:03:bf:ca:33:6f:33:c6:d2:c1:38:19:4b:
                    9f:a3:09:a7:04:35:98:d3:41:d8:d7:df:72:52:71:
                    40:f0:80:db:05:58:38:97:9a:2a:02:7e:66:32:a9:
                    1c:b2:19:c7:cc:43:b4:97:81:de:0b:44:a1:e2:c7:
                    e0:e0:a9:57:0d:fc:1a:58:ef:7f:47:fa:de:8b:67:
                    af:54:90:c1:c0:72:ad:ef:db:a3:fb:dd:b7:45:49:
                    af:8e:9f:c1:65:e9:de:08:90:27:2c:b4:6c:c2:9f:
                    bc:13:9f:87:1b:29:a3:11:c1:10:6c:f9:d8:a5:16:
                    af:69:80:37:17:50:2e:73:9f:9e:43:3a:ec:17:31:
                    9c:dd:ed:a0:31:af:bb:75:1e:31:1e:a2:a5:bc:6e:
                    0b:48:c6:d5:d6:8d:5e:37:e1:0b:df:b8:cb:24:e8:
                    3c:d8:fc:54:eb:be:9f:ff:57:e5:9e:2d:a1:e5:9b:
                    45:58:2a:f7:07:99:15:e5:cb:77:99:7a:e3:35:e8:
                    6b:38:f2:7a:87:28:0a:92:a5:b9:68:64:47:c1:a3:
                    ae:38:4a:06:0d:4e:e6:00:c8:6d:16:3a:2c:16:9b:
                    46:21:0a:86:cf:7b:f3:ac:56:24:0f:cf:a4:43:b0:
                    01:66:90:d9:25:64:0a:67:95:e7:89:67:9a:ed:b7:
                    51:e3
                Exponent: 65537 (0x10001)
        X509v3 extensions:
            X509v3 Subject Key Identifier: 
                BF:C9:92:3D:53:7E:32:B8:35:44:5B:1B:8A:46:0C:DF:7A:66:8A:FA
            X509v3 Authority Key Identifier: 
                F7:4F:F3:3B:30:9F:3B:1F:27:4E:C3:C7:A4:7F:0C:FA:A6:40:B6:A1
            X509v3 Key Usage: critical
                Digital Signature, Non Repudiation, Key Encipherment
            X509v3 Extended Key Usage: 
                TLS Web Server Authentication
            X509v3 Subject Alternative Name: 
                IP Address:127.0.0.1, DNS:server
    Signature Algorithm: sha256WithRSAEncryption
    Signature Value:
        8a:8e:23:0f:ca:d7:b2:c3:dc:a0:5f:d9:94:fc:8b:32:d5:86:
        5c:e3:3c:a7:ba:ee:d5:9b:65:d1:74:24:af:08:0d:d5:90:44:
        c9:66:a2:09:d4:31:77:48:47:60:ca:4d:aa:ea:d1:15:02:1d:
        cb:e8:53:4d:06:e1:d3:02:f6:06:62:aa:8e:ac:9d:06:4e:f3:
        6a:62:ad:30:1a:2c:aa:a8:2b:17:2a:1f:99:ee:76:c7:ae:e7:
        92:f2:7f:a9:ff:05:7f:d4:7b:f1:46:70:08:63:6b:27:ea:27:
        a2:37:81:29:1c:c7:a5:64:3d:4b:9d:b2:ff:e4:85:e7:78:bc:
        b1:05:fe:80:b1:39:8a:a2:7d:80:f9:84:a9:1d:b1:40:cc:89:
        4a:16:2d:3d:0f:56:71:1e:f9:e2:1b:76:7a:8b:08:60:7d:a0:
        7e:63:fb:2e:ab:74:b2:77:df:58:e9:cb:26:23:70:01:ea:7f:
        b0:47:ad:25:ec:2b:7d:7a:e0:6a:80:ba:ff:5f:df:86:fb:6f:
        c1:29:dc:9d:19:d0:37:aa:de:91:93:6e:9a:2d:1c:96:f6:2d:
        3f:74:16:17:46:b1:94:72:6d:68:e4:52:4d:8f:03:f0:36:12:
        af:b0:a1:71:a4:4c:69:bb:bc:1c:a5:38:48:36:e5:1f:e1:29:
        91:c4:37:27
-----BEGIN CERTIFICATE-----
MIIEDTCCAvWgAwIBAgICEAowDQYJKoZIhvcNAQELBQAwgYkxCzAJBgNVBAYTAlVT
MRAwDgYDVQQIDAdGbG9yaWRhMRAwDgYDVQQHDAdKdXBpdGVyMQ4wDAYDVQQKDAVa
ZXJvQzEMMAoGA1UECwwDSWNlMRgwFgYDVQQDDA9aZXJvQyBUZXN0IENBIDExHjAc
BgkqhkiG9w0BCQEWD3Rlc3RzQHplcm9jLmNvbTAeFw0yNTA1MjIxNjE2MTBaFw0y
NjA2MjQxNjE2MTBaMIGFMQ8wDQYDVQQDDAZzZXJ2ZXIxCzAJBgNVBAYTAlVTMRAw
DgYDVQQIDAdGbG9yaWRhMRAwDgYDVQQHDAdKdXBpdGVyMRQwEgYDVQQKDAtaZXJv
QywgSW5jLjEMMAoGA1UECwwDSWNlMR0wGwYJKoZIhvcNAQkBFg5pbmZvQHplcm9j
LmNvbTCCASIwDQYJKoZIhvcNAQEBBQADggEPADCCAQoCggEBAK0vA7/KM28zxtLB
OBlLn6MJpwQ1mNNB2NffclJxQPCA2wVYOJeaKgJ+ZjKpHLIZx8xDtJeB3gtEoeLH
4OCpVw38Gljvf0f63otnr1SQwcByre/bo/vdt0VJr46fwWXp3giQJyy0bMKfvBOf
hxspoxHBEGz52KUWr2mANxdQLnOfnkM67BcxnN3toDGvu3UeMR6ipbxuC0jG1daN
XjfhC9+4yyToPNj8VOu+n/9X5Z4toeWbRVgq9weZFeXLd5l64zXoazjyeocoCpKl
uWhkR8GjrjhKBg1O5gDIbRY6LBabRiEKhs9786xWJA/PpEOwAWaQ2SVkCmeV54ln
mu23UeMCAwEAAaOBgDB+MB0GA1UdDgQWBBS/yZI9U34yuDVEWxuKRgzfemaK+jAf
BgNVHSMEGDAWgBT3T/M7MJ87HydOw8ekfwz6pkC2oTAOBgNVHQ8BAf8EBAMCBeAw
EwYDVR0lBAwwCgYIKwYBBQUHAwEwFwYDVR0RBBAwDocEfwAAAYIGc2VydmVyMA0G
CSqGSIb3DQEBCwUAA4IBAQCKjiMPyteyw9ygX9mU/Isy1YZc4zynuu7Vm2XRdCSv
CA3VkETJZqIJ1DF3SEdgyk2q6tEVAh3L6FNNBuHTAvYGYqqOrJ0GTvNqYq0wGiyq
qCsXKh+Z7nbHrueS8n+p/wV/1HvxRnAIY2sn6ieiN4EpHMelZD1LnbL/5IXneLyx
Bf6AsTmKon2A+YSpHbFAzIlKFi09D1ZxHvniG3Z6iwhgfaB+Y/suq3Syd99Y6csm
I3AB6n+wR60l7Ct9euBqgLr/X9+G+2/BKdydGdA3qt6Rk26aLRyW9i0/dBYXRrGU
cm1o5FJNjwPwNhKvsKFxpExpu7wcpThINuUf4SmRxDcn
-----END CERTIFICATE-----
