Certificate:
    Data:
        Version: 3 (0x2)
        Serial Number: 4106 (0x100a)
        Signature Algorithm: sha256WithRSAEncryption
        Issuer: C=US, ST=Florida, L=Jupiter, O=ZeroC, OU=Ice, CN=ZeroC Test CA 1/emailAddress=tests@zeroc.com
        Validity
            Not Before: May 22 15:10:15 2025 GMT
            Not After : Jun 24 15:10:15 2026 GMT
        Subject: CN=server, C=US, ST=Florida, L=Jupiter, O=ZeroC, Inc., OU=Ice/emailAddress=info@zeroc.com
        Subject Public Key Info:
            Public Key Algorithm: rsaEncryption
                Public-Key: (2048 bit)
                Modulus:
                    00:ac:ce:d2:33:af:ab:69:95:cd:25:f2:c7:ef:28:
                    59:4b:14:97:d3:72:eb:44:cc:91:72:eb:c1:18:7a:
                    ea:75:ae:c9:af:02:19:3d:1f:37:58:32:59:42:40:
                    ed:f0:65:75:0f:fd:a9:84:74:a6:d2:39:40:aa:ea:
                    60:df:2a:81:d8:bc:fd:51:b2:96:57:3a:7e:7d:1e:
                    c9:1e:29:b6:1f:98:dd:96:f5:46:7b:bd:4d:ce:e5:
                    e9:67:ca:77:6f:b2:a5:5d:89:86:2d:aa:ce:fb:44:
                    98:58:bb:d9:44:02:c4:48:ca:85:b2:9c:73:6e:c6:
                    18:ee:85:c6:02:d6:38:ee:cc:61:60:0a:d0:26:c0:
                    e0:a5:a5:86:0e:0b:96:fd:df:73:b5:a4:8a:fa:36:
                    7c:00:d3:93:4e:cc:0b:29:6b:f6:6c:8e:ef:07:e2:
                    5b:0c:fe:f0:50:f5:30:18:bc:8b:2f:e7:13:db:ca:
                    27:60:32:b2:17:2d:83:c8:f8:02:d9:16:6f:1e:45:
                    1c:bd:e9:c0:ec:ab:37:73:af:7d:3d:c8:78:a5:2e:
                    5e:b0:1d:bd:51:6b:7b:82:8f:cd:d7:12:28:c6:72:
                    d3:d2:6d:b5:d4:70:f8:fc:eb:b9:45:b8:22:4a:13:
                    c0:8c:c6:a3:d8:05:79:1d:14:fc:d8:93:01:3f:ad:
                    4f:89
                Exponent: 65537 (0x10001)
        X509v3 extensions:
            X509v3 Subject Key Identifier: 
                08:E5:BB:F5:24:3D:18:58:F4:7E:6B:5D:F3:08:CE:1F:76:62:D2:A8
            X509v3 Authority Key Identifier: 
                DA:FC:2F:0E:65:38:82:A6:37:87:8A:5E:C8:1C:FB:FB:FF:86:78:C5
            X509v3 Key Usage: critical
                Digital Signature, Non Repudiation, Key Encipherment
            X509v3 Extended Key Usage: 
                TLS Web Server Authentication
            X509v3 Subject Alternative Name: 
                IP Address:127.0.0.1, DNS:server
    Signature Algorithm: sha256WithRSAEncryption
    Signature Value:
        8c:53:f8:db:8b:32:62:a5:f8:33:ba:eb:f2:94:76:b1:19:0e:
        0f:74:ad:4a:c9:ba:40:03:4b:92:55:c0:e0:c6:83:5a:f7:93:
        65:ac:8d:4d:b7:ff:69:7a:e8:56:ed:7d:19:2f:6c:90:ac:ff:
        b1:6f:64:b6:5d:fe:78:9b:f2:3f:d7:23:d4:e1:47:13:64:f1:
        7a:fb:84:8f:8e:be:b7:76:31:0d:b8:26:ce:69:cf:aa:14:df:
        f5:5e:5f:2f:d8:03:85:d1:be:f3:14:c7:44:cd:73:39:bd:ce:
        57:87:b2:98:f7:48:61:e5:44:ae:3e:88:76:08:94:f9:33:9d:
        99:eb:ed:ff:e3:e3:c3:2e:8a:91:74:74:01:b3:ce:de:c8:fa:
        63:98:33:19:84:70:0e:1f:0d:a6:8c:37:6b:97:b5:41:77:e3:
        d5:c6:9e:e8:12:b3:25:df:b0:e4:e5:81:dc:92:d7:a8:be:86:
        a8:f4:91:9a:5e:15:50:49:fe:db:5c:3b:99:81:ce:c0:83:46:
        f9:ec:5a:ec:fa:39:aa:41:de:b6:34:04:78:0f:d0:a6:f2:30:
        8e:76:0f:31:ee:f1:57:87:36:8f:13:25:92:0c:4e:2a:b0:25:
        68:85:40:13:53:dd:c3:0b:92:a2:18:dd:ad:92:20:5c:3d:85:
        5b:e8:dd:6e
-----BEGIN CERTIFICATE-----
MIIEDTCCAvWgAwIBAgICEAowDQYJKoZIhvcNAQELBQAwgYkxCzAJBgNVBAYTAlVT
MRAwDgYDVQQIDAdGbG9yaWRhMRAwDgYDVQQHDAdKdXBpdGVyMQ4wDAYDVQQKDAVa
ZXJvQzEMMAoGA1UECwwDSWNlMRgwFgYDVQQDDA9aZXJvQyBUZXN0IENBIDExHjAc
BgkqhkiG9w0BCQEWD3Rlc3RzQHplcm9jLmNvbTAeFw0yNTA1MjIxNTEwMTVaFw0y
NjA2MjQxNTEwMTVaMIGFMQ8wDQYDVQQDDAZzZXJ2ZXIxCzAJBgNVBAYTAlVTMRAw
DgYDVQQIDAdGbG9yaWRhMRAwDgYDVQQHDAdKdXBpdGVyMRQwEgYDVQQKDAtaZXJv
QywgSW5jLjEMMAoGA1UECwwDSWNlMR0wGwYJKoZIhvcNAQkBFg5pbmZvQHplcm9j
LmNvbTCCASIwDQYJKoZIhvcNAQEBBQADggEPADCCAQoCggEBAKzO0jOvq2mVzSXy
x+8oWUsUl9Ny60TMkXLrwRh66nWuya8CGT0fN1gyWUJA7fBldQ/9qYR0ptI5QKrq
YN8qgdi8/VGyllc6fn0eyR4pth+Y3Zb1Rnu9Tc7l6WfKd2+ypV2Jhi2qzvtEmFi7
2UQCxEjKhbKcc27GGO6FxgLWOO7MYWAK0CbA4KWlhg4Llv3fc7Wkivo2fADTk07M
Cylr9myO7wfiWwz+8FD1MBi8iy/nE9vKJ2Ayshctg8j4AtkWbx5FHL3pwOyrN3Ov
fT3IeKUuXrAdvVFre4KPzdcSKMZy09JttdRw+PzruUW4IkoTwIzGo9gFeR0U/NiT
AT+tT4kCAwEAAaOBgDB+MB0GA1UdDgQWBBQI5bv1JD0YWPR+a13zCM4fdmLSqDAf
BgNVHSMEGDAWgBTa/C8OZTiCpjeHil7IHPv7/4Z4xTAOBgNVHQ8BAf8EBAMCBeAw
EwYDVR0lBAwwCgYIKwYBBQUHAwEwFwYDVR0RBBAwDocEfwAAAYIGc2VydmVyMA0G
CSqGSIb3DQEBCwUAA4IBAQCMU/jbizJipfgzuuvylHaxGQ4PdK1KybpAA0uSVcDg
xoNa95NlrI1Nt/9peuhW7X0ZL2yQrP+xb2S2Xf54m/I/1yPU4UcTZPF6+4SPjr63
djENuCbOac+qFN/1Xl8v2AOF0b7zFMdEzXM5vc5Xh7KY90hh5USuPoh2CJT5M52Z
6+3/4+PDLoqRdHQBs87eyPpjmDMZhHAOHw2mjDdrl7VBd+PVxp7oErMl37Dk5YHc
kteovoao9JGaXhVQSf7bXDuZgc7Ag0b57Frs+jmqQd62NAR4D9Cm8jCOdg8x7vFX
hzaPEyWSDE4qsCVohUATU93DC5KiGN2tkiBcPYVb6N1u
-----END CERTIFICATE-----
