Certificate:
    Data:
        Version: 3 (0x2)
        Serial Number: 4107 (0x100b)
        Signature Algorithm: sha256WithRSAEncryption
        Issuer: C=US, ST=Florida, L=Jupiter, O=ZeroC, OU=Ice, CN=ZeroC Test CA 1/emailAddress=tests@zeroc.com
        Validity
            Not Before: May 22 16:16:10 2025 GMT
            Not After : Jun 24 16:16:10 2026 GMT
        Subject: CN=127.0.0.1, C=US, ST=Florida, L=Jupiter, O=ZeroC, Inc., OU=Ice/emailAddress=info@zeroc.com
        Subject Public Key Info:
            Public Key Algorithm: rsaEncryption
                Public-Key: (2048 bit)
                Modulus:
                    00:e1:7f:e9:b5:d0:2a:5b:23:ff:40:8b:f1:59:21:
                    3e:15:d9:21:64:63:40:41:ba:cf:0b:8f:a1:13:4b:
                    27:fd:11:df:38:f3:0f:27:11:2f:de:43:ba:c2:59:
                    a4:9a:da:aa:fa:4c:9a:36:bd:98:e5:d2:eb:1f:d8:
                    1a:74:57:f9:d0:97:b6:12:9a:4a:46:6b:58:01:e1:
                    dd:09:79:76:c3:e2:4e:8d:b3:00:3d:d9:1b:03:c2:
                    18:4a:94:9e:71:0e:a2:f1:0c:e1:54:26:34:e3:0c:
                    8b:bd:bf:40:00:d0:12:d7:60:8e:de:3e:07:62:a1:
                    01:5d:32:4e:77:16:ab:b5:94:70:67:bc:dc:15:df:
                    33:b7:f1:75:46:0e:68:2c:c6:12:25:62:56:df:9e:
                    c1:8d:5b:92:58:32:1c:17:91:0a:20:15:b8:f5:95:
                    dc:58:41:4e:2d:a5:eb:86:8a:1a:1e:68:ca:13:4a:
                    c8:1e:6e:f3:3e:89:ee:68:fd:e3:2a:ff:5f:e5:29:
                    55:60:bd:d9:d6:83:3c:86:0f:86:0f:23:0c:b7:05:
                    db:fd:6b:77:1c:83:e5:b0:8f:b5:4c:9f:dc:2a:c4:
                    3b:a3:a3:a5:64:09:ba:f9:1d:82:30:9d:af:1c:73:
                    c6:8f:e8:73:c8:ad:16:63:18:5e:57:e9:f5:9e:a3:
                    b8:e1
                Exponent: 65537 (0x10001)
        X509v3 extensions:
            X509v3 Subject Key Identifier: 
                98:DD:91:3E:32:9B:52:42:A4:9E:3D:B4:D2:F1:A2:19:1E:98:41:48
            X509v3 Authority Key Identifier: 
                F7:4F:F3:3B:30:9F:3B:1F:27:4E:C3:C7:A4:7F:0C:FA:A6:40:B6:A1
            X509v3 Key Usage: critical
                Digital Signature, Non Repudiation, Key Encipherment
            X509v3 Extended Key Usage: 
                TLS Web Server Authentication
    Signature Algorithm: sha256WithRSAEncryption
    Signature Value:
        63:42:19:69:6f:82:e1:8f:6c:23:d7:1e:20:ea:56:86:a3:21:
        9f:9b:52:26:a1:9d:2d:0c:b0:8c:84:0e:7e:eb:e3:8c:0f:79:
        67:45:07:47:89:cb:45:0f:c0:c6:d1:34:9f:0f:67:24:d8:e1:
        18:2c:d5:84:83:63:e4:ae:7f:ba:91:35:c6:42:18:84:fb:39:
        9c:38:f3:57:4f:40:14:2b:d9:e0:67:18:fb:e9:46:ae:3c:a7:
        f7:5a:b2:e7:84:0b:ed:e0:5a:c2:1f:8a:96:a7:09:4d:45:7e:
        f2:72:f0:61:66:f9:54:19:13:5d:87:85:f3:f9:3a:49:6e:42:
        0f:6e:5f:62:71:e8:a6:4b:30:9f:c4:cb:59:ea:ed:c0:b9:55:
        86:68:2f:0f:db:37:b6:b0:5a:e6:70:c1:9e:17:4a:1b:0b:fb:
        c0:ad:9c:5c:ce:48:23:a3:5b:95:23:81:bf:95:9b:46:b8:8f:
        0c:03:55:6e:f3:bf:c4:27:25:e8:19:43:6a:f6:67:6d:50:7e:
        07:52:9c:51:d1:cc:37:34:92:8d:43:da:45:6c:c5:35:de:b5:
        0d:5e:93:6e:2f:f5:59:11:3a:9d:71:17:f2:40:9c:fc:53:03:
        b5:8c:50:99:33:8d:f0:0c:55:2a:85:76:74:12:0d:c9:4a:ba:
        8d:91:b3:d4
-----BEGIN CERTIFICATE-----
MIID9jCCAt6gAwIBAgICEAswDQYJKoZIhvcNAQELBQAwgYkxCzAJBgNVBAYTAlVT
MRAwDgYDVQQIDAdGbG9yaWRhMRAwDgYDVQQHDAdKdXBpdGVyMQ4wDAYDVQQKDAVa
ZXJvQzEMMAoGA1UECwwDSWNlMRgwFgYDVQQDDA9aZXJvQyBUZXN0IENBIDExHjAc
BgkqhkiG9w0BCQEWD3Rlc3RzQHplcm9jLmNvbTAeFw0yNTA1MjIxNjE2MTBaFw0y
NjA2MjQxNjE2MTBaMIGIMRIwEAYDVQQDDAkxMjcuMC4wLjExCzAJBgNVBAYTAlVT
MRAwDgYDVQQIDAdGbG9yaWRhMRAwDgYDVQQHDAdKdXBpdGVyMRQwEgYDVQQKDAta
ZXJvQywgSW5jLjEMMAoGA1UECwwDSWNlMR0wGwYJKoZIhvcNAQkBFg5pbmZvQHpl
cm9jLmNvbTCCASIwDQYJKoZIhvcNAQEBBQADggEPADCCAQoCggEBAOF/6bXQKlsj
/0CL8VkhPhXZIWRjQEG6zwuPoRNLJ/0R3zjzDycRL95DusJZpJraqvpMmja9mOXS
6x/YGnRX+dCXthKaSkZrWAHh3Ql5dsPiTo2zAD3ZGwPCGEqUnnEOovEM4VQmNOMM
i72/QADQEtdgjt4+B2KhAV0yTncWq7WUcGe83BXfM7fxdUYOaCzGEiViVt+ewY1b
klgyHBeRCiAVuPWV3FhBTi2l64aKGh5oyhNKyB5u8z6J7mj94yr/X+UpVWC92daD
PIYPhg8jDLcF2/1rdxyD5bCPtUyf3CrEO6OjpWQJuvkdgjCdrxxzxo/oc8itFmMY
Xlfp9Z6juOECAwEAAaNnMGUwHQYDVR0OBBYEFJjdkT4ym1JCpJ49tNLxohkemEFI
MB8GA1UdIwQYMBaAFPdP8zswnzsfJ07Dx6R/DPqmQLahMA4GA1UdDwEB/wQEAwIF
4DATBgNVHSUEDDAKBggrBgEFBQcDATANBgkqhkiG9w0BAQsFAAOCAQEAY0IZaW+C
4Y9sI9ceIOpWhqMhn5tSJqGdLQywjIQOfuvjjA95Z0UHR4nLRQ/AxtE0nw9nJNjh
GCzVhINj5K5/upE1xkIYhPs5nDjzV09AFCvZ4GcY++lGrjyn91qy54QL7eBawh+K
lqcJTUV+8nLwYWb5VBkTXYeF8/k6SW5CD25fYnHopkswn8TLWertwLlVhmgvD9s3
trBa5nDBnhdKGwv7wK2cXM5II6NblSOBv5WbRriPDANVbvO/xCcl6BlDavZnbVB+
B1KcUdHMNzSSjUPaRWzFNd61DV6Tbi/1WRE6nXEX8kCc/FMDtYxQmTON8AxVKoV2
dBINyUq6jZGz1A==
-----END CERTIFICATE-----
