Certificate:
    Data:
        Version: 3 (0x2)
        Serial Number: 4108 (0x100c)
        Signature Algorithm: sha256WithRSAEncryption
        Issuer: C=US, ST=Florida, L=Jupiter, O=ZeroC, OU=Ice, CN=ZeroC Test CA 1/emailAddress=tests@zeroc.com
        Validity
            Not Before: May 22 16:55:14 2025 GMT
            Not After : Jun 24 16:55:14 2026 GMT
        Subject: CN=Server, C=US, ST=Florida, L=Jupiter, O=ZeroC, Inc., OU=Ice/emailAddress=info@zeroc.com
        Subject Public Key Info:
            Public Key Algorithm: rsaEncryption
                Public-Key: (2048 bit)
                Modulus:
                    00:c1:8e:1e:c5:fe:62:94:82:43:c5:1c:d2:71:47:
                    5d:87:50:56:ff:06:1b:dc:17:2e:6e:58:28:51:56:
                    e0:b4:99:4d:a3:e9:9d:ae:db:8d:64:b6:18:43:bd:
                    40:cc:00:98:85:cc:da:01:19:2c:2b:a3:c1:df:c8:
                    08:e6:48:b4:e8:2a:6b:60:bf:1a:cc:73:b1:2a:d3:
                    55:f1:e7:91:be:da:1b:d6:2c:9a:60:b3:08:11:14:
                    b8:52:02:1b:99:d9:94:36:e7:f0:5f:5d:82:87:94:
                    06:16:ff:d2:43:92:21:b4:15:06:ca:61:ec:46:d8:
                    89:02:28:15:72:52:9b:95:25:c3:bb:ca:1d:fc:7e:
                    e3:62:c9:64:df:8a:2f:d7:a6:b3:de:bd:6f:48:eb:
                    e8:27:94:bf:25:b8:e4:52:a1:8f:ce:57:00:4e:9f:
                    c1:ac:e2:9e:83:9e:03:71:88:73:c7:fd:3f:e0:7a:
                    9b:b3:af:87:bb:7d:0a:b5:1d:02:41:c0:4e:50:5c:
                    e8:c9:62:a7:42:7a:ba:a4:40:06:76:e5:bf:3f:94:
                    dc:06:9e:71:00:14:71:49:6c:ed:48:21:7b:b2:23:
                    37:91:81:ce:98:a8:d4:3d:cc:b4:bd:5c:f4:13:e1:
                    01:8a:99:66:8b:a9:74:8c:ef:eb:76:5c:c5:9e:a3:
                    00:57
                Exponent: 65537 (0x10001)
        X509v3 extensions:
            X509v3 Subject Key Identifier: 
                F9:4B:13:98:0F:AE:DA:B4:1A:FB:44:49:35:3A:F5:AE:BE:64:68:3A
            X509v3 Authority Key Identifier: 
                75:F1:34:2D:9F:C0:A0:4E:71:BB:0C:37:85:8A:88:FC:6D:A2:28:55
            X509v3 Key Usage: critical
                Digital Signature, Non Repudiation, Key Encipherment
            X509v3 Extended Key Usage: 
                TLS Web Server Authentication
            X509v3 Subject Alternative Name: 
                IP Address:127.0.0.1, DNS:server
    Signature Algorithm: sha256WithRSAEncryption
    Signature Value:
        83:00:9b:69:5b:e2:69:8a:5e:ff:99:2f:2b:64:91:c5:27:d6:
        15:49:06:05:34:83:e2:06:4d:bd:b9:c0:54:37:18:59:e4:3e:
        c9:e6:cd:b4:50:08:fb:12:17:5b:7f:56:d4:eb:5f:8f:93:3e:
        a4:37:5c:6d:e9:2a:2b:85:62:6a:27:42:ea:ed:92:4c:9a:6c:
        e8:a9:21:40:a4:78:3c:16:3d:9e:d8:52:84:ea:64:53:18:ab:
        4d:4e:08:43:ae:e0:80:f3:0b:9d:34:06:15:db:b3:93:33:1a:
        de:fa:a6:a7:da:eb:09:c5:46:7c:b5:fd:5e:d7:54:4d:dc:6f:
        31:2b:2a:1f:8c:c4:e7:c3:93:fb:dd:b2:fd:41:27:88:e5:39:
        ed:4b:bb:41:cb:4c:27:d0:c5:ec:95:64:22:b3:56:1d:17:ff:
        a7:38:27:2c:0c:fd:94:e6:d5:25:83:30:8d:b3:eb:aa:b7:07:
        c4:a2:b6:1b:c4:d7:5c:fe:49:25:f2:12:ac:82:05:d2:a6:dd:
        b1:99:34:2b:e7:a0:dc:92:00:a8:75:dc:5e:43:a6:93:57:dd:
        0c:09:2c:c5:ed:00:01:6d:66:fd:11:19:9f:bb:0a:74:25:16:
        95:3d:86:a5:1e:24:a2:51:d2:8d:d9:de:9a:f6:84:1f:db:f4:
        8b:3f:8a:cb
-----BEGIN CERTIFICATE-----
MIIEDTCCAvWgAwIBAgICEAwwDQYJKoZIhvcNAQELBQAwgYkxCzAJBgNVBAYTAlVT
MRAwDgYDVQQIDAdGbG9yaWRhMRAwDgYDVQQHDAdKdXBpdGVyMQ4wDAYDVQQKDAVa
ZXJvQzEMMAoGA1UECwwDSWNlMRgwFgYDVQQDDA9aZXJvQyBUZXN0IENBIDExHjAc
BgkqhkiG9w0BCQEWD3Rlc3RzQHplcm9jLmNvbTAeFw0yNTA1MjIxNjU1MTRaFw0y
NjA2MjQxNjU1MTRaMIGFMQ8wDQYDVQQDDAZTZXJ2ZXIxCzAJBgNVBAYTAlVTMRAw
DgYDVQQIDAdGbG9yaWRhMRAwDgYDVQQHDAdKdXBpdGVyMRQwEgYDVQQKDAtaZXJv
QywgSW5jLjEMMAoGA1UECwwDSWNlMR0wGwYJKoZIhvcNAQkBFg5pbmZvQHplcm9j
LmNvbTCCASIwDQYJKoZIhvcNAQEBBQADggEPADCCAQoCggEBAMGOHsX+YpSCQ8Uc
0nFHXYdQVv8GG9wXLm5YKFFW4LSZTaPpna7bjWS2GEO9QMwAmIXM2gEZLCujwd/I
COZItOgqa2C/GsxzsSrTVfHnkb7aG9YsmmCzCBEUuFICG5nZlDbn8F9dgoeUBhb/
0kOSIbQVBsph7EbYiQIoFXJSm5Ulw7vKHfx+42LJZN+KL9ems969b0jr6CeUvyW4
5FKhj85XAE6fwazinoOeA3GIc8f9P+B6m7Ovh7t9CrUdAkHATlBc6Mlip0J6uqRA
Bnblvz+U3AaecQAUcUls7Ughe7IjN5GBzpio1D3MtL1c9BPhAYqZZoupdIzv63Zc
xZ6jAFcCAwEAAaOBgDB+MB0GA1UdDgQWBBT5SxOYD67atBr7REk1OvWuvmRoOjAf
BgNVHSMEGDAWgBR18TQtn8CgTnG7DDeFioj8baIoVTAOBgNVHQ8BAf8EBAMCBeAw
EwYDVR0lBAwwCgYIKwYBBQUHAwEwFwYDVR0RBBAwDocEfwAAAYIGc2VydmVyMA0G
CSqGSIb3DQEBCwUAA4IBAQCDAJtpW+Jpil7/mS8rZJHFJ9YVSQYFNIPiBk29ucBU
NxhZ5D7J5s20UAj7Ehdbf1bU61+Pkz6kN1xt6SorhWJqJ0Lq7ZJMmmzoqSFApHg8
Fj2e2FKE6mRTGKtNTghDruCA8wudNAYV27OTMxre+qan2usJxUZ8tf1e11RN3G8x
KyofjMTnw5P73bL9QSeI5TntS7tBy0wn0MXslWQis1YdF/+nOCcsDP2U5tUlgzCN
s+uqtwfEorYbxNdc/kkl8hKsggXSpt2xmTQr56DckgCoddxeQ6aTV90MCSzF7QAB
bWb9ERmfuwp0JRaVPYalHiSiUdKN2d6a9oQf2/SLP4rL
-----END CERTIFICATE-----
