Certificate:
    Data:
        Version: 3 (0x2)
        Serial Number: 4098 (0x1002)
        Signature Algorithm: sha256WithRSAEncryption
        Issuer: C=US, ST=Florida, L=Jupiter, O=ZeroC, OU=Ice, CN=ZeroC Test CA 3/emailAddress=tests@zeroc.com
        Validity
            Not Before: May 22 16:55:17 2025 GMT
            Not After : Jun 24 16:55:17 2026 GMT
        Subject: CN=Server, C=US, ST=Florida, L=Jupiter, O=ZeroC, Inc., OU=Ice/emailAddress=info@zeroc.com
        Subject Public Key Info:
            Public Key Algorithm: rsaEncryption
                Public-Key: (2048 bit)
                Modulus:
                    00:9d:76:04:87:b9:d7:31:b4:7c:93:1a:89:88:46:
                    73:75:27:bb:4d:67:8b:3f:fe:58:8e:94:9b:df:ec:
                    ba:6f:d6:ea:41:f5:f6:7d:01:8b:07:de:2b:8e:83:
                    58:ef:86:80:b1:12:d2:86:19:3a:7f:f0:ae:5a:63:
                    ae:8e:a3:35:b7:ec:8f:3c:ab:9f:fa:ce:2f:93:7a:
                    27:d0:b7:61:6b:4e:5d:7b:17:3a:0e:6f:e4:1d:9d:
                    38:fb:a2:85:a7:5e:7f:e4:96:4d:3d:04:ba:15:db:
                    71:37:23:a2:38:ab:30:6b:3e:44:6e:c6:3b:80:dd:
                    9d:64:17:5c:3f:b7:ab:95:af:43:40:a9:d8:f6:df:
                    4e:0b:86:c1:c8:0e:b0:12:4c:ed:79:79:c8:c1:50:
                    67:40:8a:44:22:b5:86:cd:67:79:19:2e:65:21:a5:
                    91:90:a5:f9:8b:71:e3:ac:2e:56:84:bd:89:d9:a5:
                    93:ad:ee:dd:31:8d:50:c6:28:7a:9e:af:e2:9a:24:
                    39:4a:47:bb:29:56:72:aa:9f:28:b8:1b:68:5f:11:
                    01:3e:52:e0:b5:ae:ec:f7:a4:fd:ea:08:7d:3f:2e:
                    4c:11:6c:d9:0e:fc:4f:6b:28:2f:76:eb:c8:fc:73:
                    a5:a0:81:de:ab:29:37:71:19:bc:be:25:e3:c5:80:
                    9d:87
                Exponent: 65537 (0x10001)
        X509v3 extensions:
            X509v3 Subject Key Identifier: 
                C6:2A:1B:72:E7:1D:AF:4C:59:6D:DB:C1:7E:13:B5:A1:3A:2E:46:77
            X509v3 Authority Key Identifier: 
                F1:11:72:C4:CA:C9:28:78:2F:64:89:F8:61:1F:7F:0D:2A:DD:78:B8
            X509v3 Key Usage: critical
                Digital Signature, Non Repudiation, Key Encipherment
            X509v3 Extended Key Usage: 
                TLS Web Server Authentication
            X509v3 Subject Alternative Name: 
                IP Address:127.0.0.1, DNS:server
            X509v3 CRL Distribution Points: 
                Full Name:
                  URI:http://127.0.0.1:20001/ca3/ca3.crl.pem
    Signature Algorithm: sha256WithRSAEncryption
    Signature Value:
        11:6c:36:70:48:51:cb:c5:9b:3c:43:ee:cf:60:f7:46:88:27:
        4f:8f:f4:33:55:f4:2c:d2:9b:b3:fd:19:d7:59:81:be:23:d1:
        71:f9:dc:d6:9c:5f:06:f7:ab:83:8b:d6:7a:97:29:89:52:c4:
        a9:fd:50:f4:3a:03:5f:15:a7:b1:46:b6:d5:7c:98:ee:1b:d3:
        10:e0:f5:42:91:a0:d8:4d:0e:d5:9e:f9:e0:7b:7d:ad:df:bc:
        5b:77:3b:3a:de:d1:a6:97:34:84:7b:9c:bd:a0:27:6c:72:35:
        d5:0a:64:e0:0e:13:bd:bc:07:d1:06:e9:00:a5:18:29:8b:c6:
        70:de:69:56:10:29:1b:bd:35:80:02:11:fb:47:4d:c5:2b:7e:
        01:45:19:43:7f:99:e6:16:8b:3d:a1:49:da:35:0c:92:53:1f:
        ee:89:40:2d:04:a6:c5:97:b8:ec:5c:db:a7:41:ef:38:81:f2:
        65:9d:46:58:b4:9c:78:8c:2c:67:2a:5c:3f:a6:e4:e5:d6:1e:
        4a:69:70:3f:47:80:f8:9d:e2:93:e3:e9:ee:1a:7d:78:fc:cc:
        5a:08:02:f8:68:84:b5:1a:f3:63:17:3f:e1:f7:fa:4c:70:7c:
        31:77:30:97:60:e0:3e:d7:84:7d:0d:a0:67:b3:39:a1:f1:f1:
        d4:f0:b9:4b
-----BEGIN CERTIFICATE-----
MIIERzCCAy+gAwIBAgICEAIwDQYJKoZIhvcNAQELBQAwgYkxCzAJBgNVBAYTAlVT
MRAwDgYDVQQIDAdGbG9yaWRhMRAwDgYDVQQHDAdKdXBpdGVyMQ4wDAYDVQQKDAVa
ZXJvQzEMMAoGA1UECwwDSWNlMRgwFgYDVQQDDA9aZXJvQyBUZXN0IENBIDMxHjAc
BgkqhkiG9w0BCQEWD3Rlc3RzQHplcm9jLmNvbTAeFw0yNTA1MjIxNjU1MTdaFw0y
NjA2MjQxNjU1MTdaMIGFMQ8wDQYDVQQDDAZTZXJ2ZXIxCzAJBgNVBAYTAlVTMRAw
DgYDVQQIDAdGbG9yaWRhMRAwDgYDVQQHDAdKdXBpdGVyMRQwEgYDVQQKDAtaZXJv
QywgSW5jLjEMMAoGA1UECwwDSWNlMR0wGwYJKoZIhvcNAQkBFg5pbmZvQHplcm9j
LmNvbTCCASIwDQYJKoZIhvcNAQEBBQADggEPADCCAQoCggEBAJ12BIe51zG0fJMa
iYhGc3Unu01niz/+WI6Um9/sum/W6kH19n0BiwfeK46DWO+GgLES0oYZOn/wrlpj
ro6jNbfsjzyrn/rOL5N6J9C3YWtOXXsXOg5v5B2dOPuihadef+SWTT0EuhXbcTcj
ojirMGs+RG7GO4DdnWQXXD+3q5WvQ0Cp2PbfTguGwcgOsBJM7Xl5yMFQZ0CKRCK1
hs1neRkuZSGlkZCl+Ytx46wuVoS9idmlk63u3TGNUMYoep6v4pokOUpHuylWcqqf
KLgbaF8RAT5S4LWu7Pek/eoIfT8uTBFs2Q78T2soL3bryPxzpaCB3qspN3EZvL4l
48WAnYcCAwEAAaOBujCBtzAdBgNVHQ4EFgQUxiobcucdr0xZbdvBfhO1oTouRncw
HwYDVR0jBBgwFoAU8RFyxMrJKHgvZIn4YR9/DSrdeLgwDgYDVR0PAQH/BAQDAgXg
MBMGA1UdJQQMMAoGCCsGAQUFBwMBMBcGA1UdEQQQMA6HBH8AAAGCBnNlcnZlcjA3
BgNVHR8EMDAuMCygKqAohiZodHRwOi8vMTI3LjAuMC4xOjIwMDAxL2NhMy9jYTMu
Y3JsLnBlbTANBgkqhkiG9w0BAQsFAAOCAQEAEWw2cEhRy8WbPEPuz2D3RognT4/0
M1X0LNKbs/0Z11mBviPRcfnc1pxfBverg4vWepcpiVLEqf1Q9DoDXxWnsUa21XyY
7hvTEOD1QpGg2E0O1Z754Ht9rd+8W3c7Ot7Rppc0hHucvaAnbHI11Qpk4A4TvbwH
0QbpAKUYKYvGcN5pVhApG701gAIR+0dNxSt+AUUZQ3+Z5haLPaFJ2jUMklMf7olA
LQSmxZe47Fzbp0HvOIHyZZ1GWLSceIwsZypcP6bk5dYeSmlwP0eA+J3ik+Pp7hp9
ePzMWggC+GiEtRrzYxc/4ff6THB8MXcwl2DgPteEfQ2gZ7M5ofHx1PC5Sw==
-----END CERTIFICATE-----
