Certificate:
    Data:
        Version: 3 (0x2)
        Serial Number: 4097 (0x1001)
        Signature Algorithm: sha256WithRSAEncryption
        Issuer: C=US, ST=Florida, L=Jupiter, O=ZeroC, OU=Ice, CN=ZeroC Test CA 3/emailAddress=tests@zeroc.com
        Validity
            Not Before: May 22 15:10:18 2025 GMT
            Not After : Jun 24 15:10:18 2026 GMT
        Subject: CN=Server Revoked, C=US, ST=Florida, L=Jupiter, O=ZeroC, Inc., OU=Ice/emailAddress=info@zeroc.com
        Subject Public Key Info:
            Public Key Algorithm: rsaEncryption
                Public-Key: (2048 bit)
                Modulus:
                    00:de:1f:1d:14:1f:e5:db:3a:e0:f0:52:39:1c:30:
                    d8:3e:06:38:4d:e3:48:38:33:0f:7b:94:ab:36:fb:
                    26:7f:7c:d0:c5:7a:9b:cf:4e:d7:f4:e7:4b:d1:28:
                    9f:9b:53:42:52:36:9c:b2:29:cb:87:6b:d9:3f:35:
                    e0:a5:8e:ae:ce:1f:e5:76:43:0b:3c:26:d4:69:d5:
                    9f:2a:99:8a:06:ee:1e:39:a5:d6:9a:f1:d2:88:66:
                    b2:e6:2a:18:22:8f:3a:9b:28:e0:95:0b:a8:fb:92:
                    c5:b9:f1:f0:3e:e9:f4:18:06:85:f5:30:20:98:d0:
                    e1:44:9b:a3:7e:72:16:55:0f:c3:f2:51:b8:d1:a3:
                    d8:67:0d:bf:2b:0c:3a:52:19:20:76:4b:ee:c7:6b:
                    83:0c:23:31:c7:64:09:0b:34:03:d9:68:fb:1e:e3:
                    e1:a5:ff:b7:72:2f:6b:15:83:98:b7:4a:f0:b3:fa:
                    68:88:6e:00:55:2f:7f:59:9e:49:ee:a4:01:1c:0d:
                    26:e1:f5:89:69:90:ac:71:f2:c3:75:86:47:60:d9:
                    37:59:1a:2a:ab:34:3e:39:9e:90:1d:6f:09:e7:59:
                    e8:7e:fb:cd:43:ff:ee:2b:47:39:c0:38:37:55:ad:
                    92:a1:3e:74:5a:13:14:c4:83:3b:6c:5d:1c:43:c3:
                    50:7d
                Exponent: 65537 (0x10001)
        X509v3 extensions:
            X509v3 Subject Key Identifier: 
                83:C5:F6:F9:EE:A1:DD:74:EF:19:B2:AF:E5:89:97:4D:02:CF:C2:D5
            X509v3 Authority Key Identifier: 
                79:19:30:E7:5F:8F:65:43:B4:0F:58:BC:19:A9:A7:AC:41:19:EE:39
            X509v3 Key Usage: critical
                Digital Signature, Non Repudiation, Key Encipherment
            X509v3 Extended Key Usage: 
                TLS Web Server Authentication
            X509v3 Subject Alternative Name: 
                IP Address:127.0.0.1, DNS:server
            X509v3 CRL Distribution Points: 
                Full Name:
                  URI:http://127.0.0.1:20001/ca3.crl.pem
    Signature Algorithm: sha256WithRSAEncryption
    Signature Value:
        9b:c2:f7:2f:69:ef:b6:19:42:89:13:04:34:d6:98:28:76:c4:
        d0:e8:09:2c:92:ad:48:c1:50:45:ae:90:a2:e4:d7:f0:d6:4e:
        b9:dc:92:ea:d6:c7:03:89:13:34:1a:e3:26:b5:48:8e:09:41:
        89:2e:28:be:66:a2:5a:29:bf:f3:99:a5:f0:c2:7d:70:0f:7e:
        26:fd:db:35:c5:c6:4b:b2:b4:47:a8:b0:43:3f:e3:44:7b:f6:
        cc:51:7c:23:3b:23:1f:d1:b4:d0:22:7f:c5:85:dc:3c:99:89:
        3f:69:a8:22:1c:c6:bb:46:d9:fa:21:8f:b4:a7:9a:9e:d9:b1:
        aa:b8:07:aa:f7:33:b9:8b:b1:b5:c2:0c:4a:1b:85:69:dc:3d:
        f2:5b:02:c5:2b:0a:1b:b4:95:db:8d:de:5a:7c:1e:04:b8:a1:
        c7:16:fe:89:e9:e7:04:45:7d:03:e5:28:dd:58:f6:1f:cb:aa:
        9f:3b:46:4f:de:10:85:a9:63:37:86:e5:dd:8b:b4:24:c3:12:
        d2:32:de:68:79:19:36:fb:12:f8:06:95:46:53:5a:ab:d2:0f:
        99:d3:4d:38:c0:96:88:c1:3a:78:b1:c7:2c:71:63:67:cc:37:
        66:2f:bf:70:84:aa:fb:60:10:4e:90:9e:7b:d6:ea:34:bf:65:
        1b:51:b9:46
-----BEGIN CERTIFICATE-----
MIIESzCCAzOgAwIBAgICEAEwDQYJKoZIhvcNAQELBQAwgYkxCzAJBgNVBAYTAlVT
MRAwDgYDVQQIDAdGbG9yaWRhMRAwDgYDVQQHDAdKdXBpdGVyMQ4wDAYDVQQKDAVa
ZXJvQzEMMAoGA1UECwwDSWNlMRgwFgYDVQQDDA9aZXJvQyBUZXN0IENBIDMxHjAc
BgkqhkiG9w0BCQEWD3Rlc3RzQHplcm9jLmNvbTAeFw0yNTA1MjIxNTEwMThaFw0y
NjA2MjQxNTEwMThaMIGNMRcwFQYDVQQDDA5TZXJ2ZXIgUmV2b2tlZDELMAkGA1UE
BhMCVVMxEDAOBgNVBAgMB0Zsb3JpZGExEDAOBgNVBAcMB0p1cGl0ZXIxFDASBgNV
BAoMC1plcm9DLCBJbmMuMQwwCgYDVQQLDANJY2UxHTAbBgkqhkiG9w0BCQEWDmlu
Zm9AemVyb2MuY29tMIIBIjANBgkqhkiG9w0BAQEFAAOCAQ8AMIIBCgKCAQEA3h8d
FB/l2zrg8FI5HDDYPgY4TeNIODMPe5SrNvsmf3zQxXqbz07X9OdL0Sifm1NCUjac
sinLh2vZPzXgpY6uzh/ldkMLPCbUadWfKpmKBu4eOaXWmvHSiGay5ioYIo86myjg
lQuo+5LFufHwPun0GAaF9TAgmNDhRJujfnIWVQ/D8lG40aPYZw2/Kww6Uhkgdkvu
x2uDDCMxx2QJCzQD2Wj7HuPhpf+3ci9rFYOYt0rws/poiG4AVS9/WZ5J7qQBHA0m
4fWJaZCscfLDdYZHYNk3WRoqqzQ+OZ6QHW8J51nofvvNQ//uK0c5wDg3Va2SoT50
WhMUxIM7bF0cQ8NQfQIDAQABo4G2MIGzMB0GA1UdDgQWBBSDxfb57qHddO8Zsq/l
iZdNAs/C1TAfBgNVHSMEGDAWgBR5GTDnX49lQ7QPWLwZqaesQRnuOTAOBgNVHQ8B
Af8EBAMCBeAwEwYDVR0lBAwwCgYIKwYBBQUHAwEwFwYDVR0RBBAwDocEfwAAAYIG
c2VydmVyMDMGA1UdHwQsMCowKKAmoCSGImh0dHA6Ly8xMjcuMC4wLjE6MjAwMDEv
Y2EzLmNybC5wZW0wDQYJKoZIhvcNAQELBQADggEBAJvC9y9p77YZQokTBDTWmCh2
xNDoCSySrUjBUEWukKLk1/DWTrnckurWxwOJEzQa4ya1SI4JQYkuKL5molopv/OZ
pfDCfXAPfib92zXFxkuytEeosEM/40R79sxRfCM7Ix/RtNAif8WF3DyZiT9pqCIc
xrtG2fohj7Snmp7Zsaq4B6r3M7mLsbXCDEobhWncPfJbAsUrChu0lduN3lp8HgS4
occW/onp5wRFfQPlKN1Y9h/Lqp87Rk/eEIWpYzeG5d2LtCTDEtIy3mh5GTb7EvgG
lUZTWqvSD5nTTTjAlojBOnixxyxxY2fMN2Yvv3CEqvtgEE6QnnvW6jS/ZRtRuUY=
-----END CERTIFICATE-----
