Certificate:
    Data:
        Version: 3 (0x2)
        Serial Number: 4098 (0x1002)
        Signature Algorithm: sha256WithRSAEncryption
        Issuer: C=US, ST=Florida, L=Jupiter, O=ZeroC, OU=Ice, CN=ZeroC Test CA 3/emailAddress=tests@zeroc.com
        Validity
            Not Before: May 22 15:10:18 2025 GMT
            Not After : Jun 24 15:10:18 2026 GMT
        Subject: CN=Server, C=US, ST=Florida, L=Jupiter, O=ZeroC, Inc., OU=Ice/emailAddress=info@zeroc.com
        Subject Public Key Info:
            Public Key Algorithm: rsaEncryption
                Public-Key: (2048 bit)
                Modulus:
                    00:c9:8f:4a:0f:73:6f:43:8c:a4:aa:1d:c3:f8:82:
                    8c:2d:fb:6e:45:72:ac:7b:9a:b9:c7:81:3c:84:cd:
                    8e:07:29:db:87:9c:18:b6:08:f6:8c:6f:db:1d:47:
                    df:17:aa:7a:66:e1:13:44:cc:4f:c3:f5:68:b7:4f:
                    24:c8:36:d2:c4:48:ac:92:09:7f:46:4f:e7:da:05:
                    13:7a:30:a3:e0:f9:5e:45:c9:ee:b7:c0:cf:d7:e9:
                    13:44:dc:39:2c:b3:83:35:a6:46:7d:1c:ee:a9:73:
                    4e:cf:59:b0:c2:b0:23:a7:39:dd:11:9e:16:7c:f9:
                    df:9e:b5:49:32:94:7d:dc:1a:5a:88:9c:38:44:d5:
                    7d:78:65:09:30:43:36:6c:94:35:eb:83:3b:e4:3f:
                    46:73:95:64:e1:4f:2a:3c:38:a6:e2:0e:4a:e3:7f:
                    86:42:d3:63:75:61:64:89:3c:a8:a0:6f:a6:f7:69:
                    41:ec:b5:e9:84:1c:b8:a2:cc:7e:a0:f9:21:ba:88:
                    bc:34:2e:8a:37:be:9c:22:44:e8:a6:00:1a:11:e0:
                    04:67:08:6b:be:db:0e:df:6d:6f:97:a0:51:9e:60:
                    00:a7:db:fd:4d:9b:9b:79:f0:47:87:97:bb:c0:27:
                    90:72:c1:d1:e1:43:31:bd:89:52:ef:ed:e1:54:bc:
                    2b:eb
                Exponent: 65537 (0x10001)
        X509v3 extensions:
            X509v3 Subject Key Identifier: 
                82:94:D6:EF:EC:B0:DC:F7:4B:9C:15:77:4B:2E:FC:C6:94:3D:6F:53
            X509v3 Authority Key Identifier: 
                79:19:30:E7:5F:8F:65:43:B4:0F:58:BC:19:A9:A7:AC:41:19:EE:39
            X509v3 Key Usage: critical
                Digital Signature, Non Repudiation, Key Encipherment
            X509v3 Extended Key Usage: 
                TLS Web Server Authentication
            X509v3 Subject Alternative Name: 
                IP Address:127.0.0.1, DNS:server
            X509v3 CRL Distribution Points: 
                Full Name:
                  URI:http://127.0.0.1:20001/ca3.crl.pem
    Signature Algorithm: sha256WithRSAEncryption
    Signature Value:
        19:2c:c9:43:8b:e9:d8:28:f9:30:59:cd:15:b5:c2:55:74:5f:
        c3:ac:dc:7b:76:ad:c7:9d:a7:09:b2:62:df:7f:5e:95:5f:a7:
        06:23:50:03:bd:f6:8e:b5:14:10:03:4f:d1:9f:72:1e:d2:d6:
        22:ed:cb:d2:35:a7:bd:db:94:1d:b4:20:84:51:7d:db:ff:13:
        f9:cd:ca:3e:7a:a7:5e:e3:e5:a4:4a:e1:22:8b:b8:c2:0b:f0:
        5c:14:c0:29:3d:2d:98:08:fd:a8:8a:db:3f:38:2e:56:bc:9b:
        1b:47:e7:d8:b4:4f:f0:11:b9:57:1d:e4:26:64:97:1f:d3:1a:
        95:06:cd:4f:80:b5:d1:ab:c4:a8:6a:03:e0:45:b6:c3:af:10:
        85:aa:02:41:30:c3:c8:09:d9:01:6f:bb:68:b1:4a:2d:5e:c6:
        7d:2f:8a:64:6a:e6:71:37:fe:1f:af:6c:98:1f:dc:ac:39:73:
        4d:ed:4d:0d:60:50:62:48:75:ee:cc:85:11:03:b3:4f:25:93:
        bc:9a:66:6a:7c:64:8d:58:39:d2:9a:ff:34:6a:43:d6:06:e5:
        6e:0b:4b:30:37:8e:51:fa:36:ae:9f:64:06:0b:83:2c:65:f1:
        75:11:1e:77:42:79:d1:08:3f:61:d8:61:e0:78:32:7e:1b:60:
        70:2b:d0:4b
-----BEGIN CERTIFICATE-----
MIIEQzCCAyugAwIBAgICEAIwDQYJKoZIhvcNAQELBQAwgYkxCzAJBgNVBAYTAlVT
MRAwDgYDVQQIDAdGbG9yaWRhMRAwDgYDVQQHDAdKdXBpdGVyMQ4wDAYDVQQKDAVa
ZXJvQzEMMAoGA1UECwwDSWNlMRgwFgYDVQQDDA9aZXJvQyBUZXN0IENBIDMxHjAc
BgkqhkiG9w0BCQEWD3Rlc3RzQHplcm9jLmNvbTAeFw0yNTA1MjIxNTEwMThaFw0y
NjA2MjQxNTEwMThaMIGFMQ8wDQYDVQQDDAZTZXJ2ZXIxCzAJBgNVBAYTAlVTMRAw
DgYDVQQIDAdGbG9yaWRhMRAwDgYDVQQHDAdKdXBpdGVyMRQwEgYDVQQKDAtaZXJv
QywgSW5jLjEMMAoGA1UECwwDSWNlMR0wGwYJKoZIhvcNAQkBFg5pbmZvQHplcm9j
LmNvbTCCASIwDQYJKoZIhvcNAQEBBQADggEPADCCAQoCggEBAMmPSg9zb0OMpKod
w/iCjC37bkVyrHuauceBPITNjgcp24ecGLYI9oxv2x1H3xeqembhE0TMT8P1aLdP
JMg20sRIrJIJf0ZP59oFE3owo+D5XkXJ7rfAz9fpE0TcOSyzgzWmRn0c7qlzTs9Z
sMKwI6c53RGeFnz53561STKUfdwaWoicOETVfXhlCTBDNmyUNeuDO+Q/RnOVZOFP
Kjw4puIOSuN/hkLTY3VhZIk8qKBvpvdpQey16YQcuKLMfqD5IbqIvDQuije+nCJE
6KYAGhHgBGcIa77bDt9tb5egUZ5gAKfb/U2bm3nwR4eXu8AnkHLB0eFDMb2JUu/t
4VS8K+sCAwEAAaOBtjCBszAdBgNVHQ4EFgQUgpTW7+yw3PdLnBV3Sy78xpQ9b1Mw
HwYDVR0jBBgwFoAUeRkw51+PZUO0D1i8GamnrEEZ7jkwDgYDVR0PAQH/BAQDAgXg
MBMGA1UdJQQMMAoGCCsGAQUFBwMBMBcGA1UdEQQQMA6HBH8AAAGCBnNlcnZlcjAz
BgNVHR8ELDAqMCigJqAkhiJodHRwOi8vMTI3LjAuMC4xOjIwMDAxL2NhMy5jcmwu
cGVtMA0GCSqGSIb3DQEBCwUAA4IBAQAZLMlDi+nYKPkwWc0VtcJVdF/DrNx7dq3H
nacJsmLff16VX6cGI1ADvfaOtRQQA0/Rn3Ie0tYi7cvSNae925QdtCCEUX3b/xP5
zco+eqde4+WkSuEii7jCC/BcFMApPS2YCP2oits/OC5WvJsbR+fYtE/wEblXHeQm
ZJcf0xqVBs1PgLXRq8SoagPgRbbDrxCFqgJBMMPICdkBb7tosUotXsZ9L4pkauZx
N/4fr2yYH9ysOXNN7U0NYFBiSHXuzIURA7NPJZO8mmZqfGSNWDnSmv80akPWBuVu
C0swN45R+jaun2QGC4MsZfF1ER53QnnRCD9h2GHgeDJ+G2BwK9BL
-----END CERTIFICATE-----
