Certificate:
    Data:
        Version: 3 (0x2)
        Serial Number: 4097 (0x1001)
        Signature Algorithm: sha256WithRSAEncryption
        Issuer: C=US, ST=Florida, L=Jupiter, O=ZeroC, OU=Ice, CN=ZeroC Test CA 1/emailAddress=tests@zeroc.com
        Validity
            Not Before: May 22 16:16:04 2025 GMT
            Not After : Jun 24 16:16:04 2026 GMT
        Subject: CN=Client, C=US, ST=Florida, L=Jupiter, O=ZeroC, Inc., OU=Ice/emailAddress=info@zeroc.com
        Subject Public Key Info:
            Public Key Algorithm: rsaEncryption
                Public-Key: (2048 bit)
                Modulus:
                    00:ba:23:52:5c:52:8e:af:01:7f:2f:a5:a5:8f:7f:
                    36:1b:da:2a:53:4a:5c:27:cc:bc:1d:5d:0d:f1:67:
                    3c:0f:96:83:3c:33:02:3c:47:f5:67:37:43:1b:a2:
                    f4:91:06:91:9e:d9:a4:22:79:17:be:78:02:9f:20:
                    b7:8d:b8:12:b1:12:3d:4c:a1:de:7c:ca:0e:07:e6:
                    c3:19:4e:77:13:fd:c6:77:d6:07:ed:5d:d9:2a:d9:
                    e4:83:76:df:36:c5:ef:69:16:70:97:50:ac:7d:37:
                    28:d1:82:83:41:16:45:8c:44:8f:db:81:7d:bd:d7:
                    1b:e3:07:06:c8:0d:9c:53:b0:1d:3a:ff:e9:4d:68:
                    58:bc:a0:bb:5c:b7:d1:1d:10:c5:47:2a:8a:b7:ac:
                    8d:5c:ce:1e:82:81:26:c1:55:da:5a:d9:6f:c2:12:
                    cc:3c:c0:df:a5:42:56:96:2c:27:81:63:65:ed:cb:
                    1d:c4:c7:20:6f:7a:43:a0:68:de:97:98:72:28:5e:
                    05:d3:4a:2f:34:11:cd:74:12:53:bf:77:b6:92:58:
                    d2:cd:c0:e8:3b:b7:2a:08:0d:e1:15:ff:7a:23:7a:
                    e7:0c:67:df:f9:e3:2a:0e:7b:e9:05:63:50:49:15:
                    3a:5e:61:92:e3:c6:c4:f3:15:c2:4f:af:3b:d8:31:
                    ce:cf
                Exponent: 65537 (0x10001)
        X509v3 extensions:
            X509v3 Subject Key Identifier: 
                7A:EB:91:3B:F3:2F:5C:60:D2:70:FD:60:31:6B:DA:33:73:90:07:A0
            X509v3 Authority Key Identifier: 
                F7:4F:F3:3B:30:9F:3B:1F:27:4E:C3:C7:A4:7F:0C:FA:A6:40:B6:A1
            X509v3 Key Usage: critical
                Digital Signature, Non Repudiation, Key Encipherment
            X509v3 Extended Key Usage: 
                TLS Web Client Authentication
            X509v3 Subject Alternative Name: 
                IP Address:127.0.0.1, DNS:client
    Signature Algorithm: sha256WithRSAEncryption
    Signature Value:
        0a:09:f7:28:15:a1:43:af:65:9d:44:0d:e5:d3:70:4f:ac:fc:
        8b:cd:99:1b:ff:ae:d9:4a:b1:22:22:20:3e:61:f8:1d:3c:82:
        99:22:db:a0:07:bc:8f:1e:e4:25:58:c6:ba:5a:4a:fb:e8:8f:
        d3:95:de:dc:48:f9:68:94:cc:65:11:39:34:a6:9d:bc:28:b1:
        b9:a1:96:e7:a7:0d:80:ac:0e:28:e3:bd:06:ff:29:9e:29:d3:
        4f:78:fa:f8:fb:07:da:38:0e:07:9b:14:31:10:d0:02:f8:be:
        5f:6c:e3:5d:02:e3:bf:ce:f4:23:12:f0:1d:7d:bc:46:fd:ed:
        2e:12:20:16:94:98:57:23:30:71:27:a4:3d:25:e3:08:03:26:
        2c:88:96:6d:f1:f3:74:e6:a4:dd:8d:82:83:0f:ef:de:55:4c:
        81:62:52:93:55:ea:0e:29:e8:e5:61:80:8d:be:a2:ff:11:9e:
        7c:bf:96:37:aa:c1:ac:c4:c0:2f:66:06:27:45:54:44:c6:75:
        cf:18:4c:91:fd:57:74:36:11:45:32:51:1f:e4:8c:1f:67:9a:
        3c:4b:bc:5b:f8:2f:d5:af:b5:63:41:7b:9b:d5:06:16:35:9f:
        35:27:8e:b3:9a:35:49:05:7a:bc:08:2a:96:95:41:ea:3f:8b:
        c9:6d:9f:dd
-----BEGIN CERTIFICATE-----
MIIEDTCCAvWgAwIBAgICEAEwDQYJKoZIhvcNAQELBQAwgYkxCzAJBgNVBAYTAlVT
MRAwDgYDVQQIDAdGbG9yaWRhMRAwDgYDVQQHDAdKdXBpdGVyMQ4wDAYDVQQKDAVa
ZXJvQzEMMAoGA1UECwwDSWNlMRgwFgYDVQQDDA9aZXJvQyBUZXN0IENBIDExHjAc
BgkqhkiG9w0BCQEWD3Rlc3RzQHplcm9jLmNvbTAeFw0yNTA1MjIxNjE2MDRaFw0y
NjA2MjQxNjE2MDRaMIGFMQ8wDQYDVQQDDAZDbGllbnQxCzAJBgNVBAYTAlVTMRAw
DgYDVQQIDAdGbG9yaWRhMRAwDgYDVQQHDAdKdXBpdGVyMRQwEgYDVQQKDAtaZXJv
QywgSW5jLjEMMAoGA1UECwwDSWNlMR0wGwYJKoZIhvcNAQkBFg5pbmZvQHplcm9j
LmNvbTCCASIwDQYJKoZIhvcNAQEBBQADggEPADCCAQoCggEBALojUlxSjq8Bfy+l
pY9/NhvaKlNKXCfMvB1dDfFnPA+WgzwzAjxH9Wc3Qxui9JEGkZ7ZpCJ5F754Ap8g
t424ErESPUyh3nzKDgfmwxlOdxP9xnfWB+1d2SrZ5IN23zbF72kWcJdQrH03KNGC
g0EWRYxEj9uBfb3XG+MHBsgNnFOwHTr/6U1oWLygu1y30R0QxUcqiresjVzOHoKB
JsFV2lrZb8ISzDzA36VCVpYsJ4FjZe3LHcTHIG96Q6Bo3peYciheBdNKLzQRzXQS
U793tpJY0s3A6Du3KggN4RX/eiN65wxn3/njKg576QVjUEkVOl5hkuPGxPMVwk+v
O9gxzs8CAwEAAaOBgDB+MB0GA1UdDgQWBBR665E78y9cYNJw/WAxa9ozc5AHoDAf
BgNVHSMEGDAWgBT3T/M7MJ87HydOw8ekfwz6pkC2oTAOBgNVHQ8BAf8EBAMCBeAw
EwYDVR0lBAwwCgYIKwYBBQUHAwIwFwYDVR0RBBAwDocEfwAAAYIGY2xpZW50MA0G
CSqGSIb3DQEBCwUAA4IBAQAKCfcoFaFDr2WdRA3l03BPrPyLzZkb/67ZSrEiIiA+
YfgdPIKZItugB7yPHuQlWMa6Wkr76I/Tld7cSPlolMxlETk0pp28KLG5oZbnpw2A
rA4o470G/ymeKdNPePr4+wfaOA4HmxQxENAC+L5fbONdAuO/zvQjEvAdfbxG/e0u
EiAWlJhXIzBxJ6Q9JeMIAyYsiJZt8fN05qTdjYKDD+/eVUyBYlKTVeoOKejlYYCN
vqL/EZ58v5Y3qsGsxMAvZgYnRVRExnXPGEyR/Vd0NhFFMlEf5IwfZ5o8S7xb+C/V
r7VjQXub1QYWNZ81J46zmjVJBXq8CCqWlUHqP4vJbZ/d
-----END CERTIFICATE-----
