Certificate:
    Data:
        Version: 3 (0x2)
        Serial Number: 4099 (0x1003)
        Signature Algorithm: sha256WithRSAEncryption
        Issuer: C=US, ST=Florida, L=Jupiter, O=ZeroC, OU=Ice, CN=ZeroC Test CA 1/emailAddress=tests@zeroc.com
        Validity
            Not Before: May 22 16:55:11 2025 GMT
            Not After : Jun 24 16:55:11 2026 GMT
        Subject: CN=server, C=US, ST=Florida, L=Jupiter, O=ZeroC, Inc., OU=Ice CN2/emailAddress=info@zeroc.com
        Subject Public Key Info:
            Public Key Algorithm: rsaEncryption
                Public-Key: (2048 bit)
                Modulus:
                    00:ca:90:31:9c:d8:b9:10:09:a4:c4:f7:1c:dc:5f:
                    63:77:ce:d1:e3:93:1b:9e:17:00:df:6b:68:8f:6c:
                    65:7b:52:64:e0:6d:6c:14:f7:9c:46:e8:0b:1d:9d:
                    a8:3d:fa:e3:a9:83:8d:61:70:6e:03:10:14:6d:72:
                    2b:62:fb:49:9b:15:c9:f6:21:2b:cf:d4:16:2d:d7:
                    c1:30:54:83:de:02:f8:c9:0c:a2:96:40:54:4d:e8:
                    8c:26:d3:da:d6:26:44:b8:c3:b3:1a:82:60:90:17:
                    a8:f9:13:c3:bc:e8:24:d3:64:82:31:05:d4:76:59:
                    a1:e9:65:1b:5c:6c:58:45:0a:8e:fb:96:a7:53:0f:
                    6e:17:7d:1a:5d:de:af:ff:66:13:be:dd:80:07:78:
                    7a:75:1a:8b:0a:fa:53:06:4d:df:5d:f6:d9:dc:95:
                    06:e6:8b:f8:37:6a:3e:05:be:45:8c:a3:51:67:b7:
                    03:24:25:32:76:0f:9d:68:fe:b1:55:26:8b:97:9e:
                    37:50:25:16:ab:8b:d3:77:a0:c1:5e:07:ae:f8:e8:
                    cb:9a:8b:32:ab:40:e2:3d:51:77:1c:ab:4b:64:4f:
                    9d:82:2e:7c:8a:0f:c5:bd:e4:47:d0:19:67:6c:bb:
                    bd:da:31:99:39:78:49:d8:44:a5:95:a1:d7:dc:5a:
                    85:25
                Exponent: 65537 (0x10001)
        X509v3 extensions:
            X509v3 Subject Key Identifier: 
                EA:DC:CF:A8:57:84:4C:A5:EC:9A:1E:26:7B:4B:F1:97:65:50:14:1F
            X509v3 Authority Key Identifier: 
                75:F1:34:2D:9F:C0:A0:4E:71:BB:0C:37:85:8A:88:FC:6D:A2:28:55
            X509v3 Key Usage: critical
                Digital Signature, Non Repudiation, Key Encipherment
            X509v3 Extended Key Usage: 
                TLS Web Server Authentication, TLS Web Client Authentication
            X509v3 Subject Alternative Name: 
                DNS:localhostX
    Signature Algorithm: sha256WithRSAEncryption
    Signature Value:
        7b:8e:ba:da:f8:18:3b:69:df:a0:b8:a5:45:f4:73:72:d9:e3:
        3e:d8:03:99:80:01:ee:80:c9:e7:1f:91:76:4d:3a:51:7f:d6:
        67:75:56:6e:8b:2a:25:7f:f7:d1:49:a3:f1:7b:5f:db:49:b6:
        99:c7:03:ad:12:50:a6:e4:73:55:cb:41:2b:83:1e:74:18:21:
        26:d4:b6:c4:f6:bb:e7:36:de:7d:1d:0f:b8:ba:a1:29:70:94:
        e3:60:91:94:bb:87:27:16:e9:0d:a5:92:37:b6:19:bb:03:aa:
        c7:fe:0c:98:01:ba:1a:a4:98:4f:24:5a:c2:80:e5:24:76:40:
        aa:83:8a:f5:df:c4:37:f3:fb:03:3a:fb:d2:23:ed:fe:24:57:
        f6:8c:52:17:14:f2:a2:cf:bc:7b:26:05:51:4c:af:d3:8b:0d:
        b1:b1:21:5a:26:98:18:cc:33:cd:40:78:09:e2:5a:e4:9e:50:
        d6:97:0f:55:3f:33:54:8a:ea:3e:0b:ff:42:0c:f6:13:eb:aa:
        82:4b:69:ae:7c:9e:4c:34:0e:dc:fa:06:5b:c2:df:cd:c8:63:
        e7:59:fe:ed:c5:64:da:a1:b7:19:b4:d4:a0:03:24:16:16:fd:
        76:14:bc:dc:8f:2a:31:39:cc:29:68:1b:bd:45:91:fc:a1:bc:
        67:c6:c2:4a
-----BEGIN CERTIFICATE-----
MIIEGjCCAwKgAwIBAgICEAMwDQYJKoZIhvcNAQELBQAwgYkxCzAJBgNVBAYTAlVT
MRAwDgYDVQQIDAdGbG9yaWRhMRAwDgYDVQQHDAdKdXBpdGVyMQ4wDAYDVQQKDAVa
ZXJvQzEMMAoGA1UECwwDSWNlMRgwFgYDVQQDDA9aZXJvQyBUZXN0IENBIDExHjAc
BgkqhkiG9w0BCQEWD3Rlc3RzQHplcm9jLmNvbTAeFw0yNTA1MjIxNjU1MTFaFw0y
NjA2MjQxNjU1MTFaMIGJMQ8wDQYDVQQDDAZzZXJ2ZXIxCzAJBgNVBAYTAlVTMRAw
DgYDVQQIDAdGbG9yaWRhMRAwDgYDVQQHDAdKdXBpdGVyMRQwEgYDVQQKDAtaZXJv
QywgSW5jLjEQMA4GA1UECwwHSWNlIENOMjEdMBsGCSqGSIb3DQEJARYOaW5mb0B6
ZXJvYy5jb20wggEiMA0GCSqGSIb3DQEBAQUAA4IBDwAwggEKAoIBAQDKkDGc2LkQ
CaTE9xzcX2N3ztHjkxueFwDfa2iPbGV7UmTgbWwU95xG6Asdnag9+uOpg41hcG4D
EBRtciti+0mbFcn2ISvP1BYt18EwVIPeAvjJDKKWQFRN6Iwm09rWJkS4w7MagmCQ
F6j5E8O86CTTZIIxBdR2WaHpZRtcbFhFCo77lqdTD24XfRpd3q//ZhO+3YAHeHp1
GosK+lMGTd9d9tnclQbmi/g3aj4FvkWMo1FntwMkJTJ2D51o/rFVJouXnjdQJRar
i9N3oMFeB6746MuaizKrQOI9UXccq0tkT52CLnyKD8W95EfQGWdsu73aMZk5eEnY
RKWVodfcWoUlAgMBAAGjgYkwgYYwHQYDVR0OBBYEFOrcz6hXhEyl7JoeJntL8Zdl
UBQfMB8GA1UdIwQYMBaAFHXxNC2fwKBOcbsMN4WKiPxtoihVMA4GA1UdDwEB/wQE
AwIF4DAdBgNVHSUEFjAUBggrBgEFBQcDAQYIKwYBBQUHAwIwFQYDVR0RBA4wDIIK
bG9jYWxob3N0WDANBgkqhkiG9w0BAQsFAAOCAQEAe4662vgYO2nfoLilRfRzctnj
PtgDmYAB7oDJ5x+Rdk06UX/WZ3VWbosqJX/30Umj8Xtf20m2mccDrRJQpuRzVctB
K4MedBghJtS2xPa75zbefR0PuLqhKXCU42CRlLuHJxbpDaWSN7YZuwOqx/4MmAG6
GqSYTyRawoDlJHZAqoOK9d/EN/P7Azr70iPt/iRX9oxSFxTyos+8eyYFUUyv04sN
sbEhWiaYGMwzzUB4CeJa5J5Q1pcPVT8zVIrqPgv/Qgz2E+uqgktprnyeTDQO3PoG
W8Lfzchj51n+7cVk2qG3GbTUoAMkFhb9dhS83I8qMTnMKWgbvUWR/KG8Z8bCSg==
-----END CERTIFICATE-----
