Certificate:
    Data:
        Version: 3 (0x2)
        Serial Number: 4107 (0x100b)
        Signature Algorithm: sha256WithRSAEncryption
        Issuer: C=US, ST=Florida, L=Jupiter, O=ZeroC, OU=Ice, CN=ZeroC Test CA 1/emailAddress=tests@zeroc.com
        Validity
            Not Before: May 22 15:10:15 2025 GMT
            Not After : Jun 24 15:10:15 2026 GMT
        Subject: CN=127.0.0.1, C=US, ST=Florida, L=Jupiter, O=ZeroC, Inc., OU=Ice/emailAddress=info@zeroc.com
        Subject Public Key Info:
            Public Key Algorithm: rsaEncryption
                Public-Key: (2048 bit)
                Modulus:
                    00:d6:eb:bf:b9:99:d6:8f:0b:cf:69:ce:84:f9:a9:
                    79:91:d6:a9:6e:19:a5:d5:51:05:ec:2d:90:bc:8e:
                    44:c9:4b:dc:1b:54:f0:34:a9:30:f9:f4:cf:b7:57:
                    b4:90:6d:11:0c:36:a5:a4:f8:16:ac:b8:3b:f6:00:
                    99:61:6e:61:16:ae:34:9b:ed:88:00:d4:fa:01:4a:
                    06:e7:a4:24:56:34:e4:0e:0c:fe:3e:1a:76:70:95:
                    6a:f7:fd:27:17:61:53:c7:a4:b2:2c:8c:da:05:42:
                    54:58:b2:06:18:6d:51:d3:c5:44:19:5b:04:78:70:
                    2b:70:23:a9:cd:c7:e1:1a:93:98:a7:fe:4e:60:d7:
                    6b:75:20:62:fd:f7:13:e2:37:6f:81:4c:7f:88:5c:
                    09:35:aa:28:00:c4:3c:00:43:4b:a9:81:36:4e:78:
                    5e:8a:bf:1f:c5:e0:03:02:5e:9a:28:ab:4f:8d:f4:
                    e2:49:a1:36:26:ae:b6:3d:be:9e:2a:7f:58:1f:85:
                    ad:89:33:72:29:13:64:14:fa:02:31:d2:44:6a:78:
                    5a:47:02:f1:20:52:97:8a:c9:35:2a:22:45:a1:59:
                    3a:0b:44:3d:50:83:00:33:15:86:cb:25:a8:ca:14:
                    3e:f3:e2:ac:d0:52:c1:f5:51:49:f5:04:5f:fc:74:
                    36:09
                Exponent: 65537 (0x10001)
        X509v3 extensions:
            X509v3 Subject Key Identifier: 
                BE:B4:9C:9B:A0:14:9E:D6:28:40:4D:3E:41:F7:51:2E:10:F6:74:AC
            X509v3 Authority Key Identifier: 
                DA:FC:2F:0E:65:38:82:A6:37:87:8A:5E:C8:1C:FB:FB:FF:86:78:C5
            X509v3 Key Usage: critical
                Digital Signature, Non Repudiation, Key Encipherment
            X509v3 Extended Key Usage: 
                TLS Web Server Authentication
    Signature Algorithm: sha256WithRSAEncryption
    Signature Value:
        39:92:3c:da:44:21:b2:b4:bc:9b:d1:1a:f2:86:82:71:47:49:
        07:04:80:a8:c1:cf:9a:7b:26:d8:1e:ec:c3:03:fa:96:6a:de:
        42:3f:80:5b:41:ff:93:09:e3:2f:47:fc:0e:27:44:f6:3b:92:
        5f:ac:d0:53:f3:34:f7:8c:8f:67:36:dc:39:f9:89:c4:79:5e:
        d8:b4:e3:64:af:9d:11:fd:c6:74:cf:84:46:7e:a2:e5:ca:37:
        64:22:92:e3:9d:16:1f:a8:4c:c7:92:99:77:99:54:1a:83:50:
        81:85:be:9a:7d:2b:32:5e:ef:f2:e7:73:dd:58:54:57:70:b7:
        67:78:63:2c:c3:e7:9f:fb:85:0e:8c:17:83:c0:1b:64:3e:85:
        31:13:87:21:58:11:82:3c:5f:f2:e2:0b:0a:53:4d:7b:8e:f7:
        d7:2e:f2:d9:79:4a:d1:c1:c0:df:15:37:03:35:32:ca:94:f0:
        1d:5d:6c:0b:ee:a9:ab:cc:58:d7:e0:81:5a:96:fe:59:d5:c9:
        7f:3e:c8:d8:72:81:2b:56:52:5b:68:21:50:aa:66:55:a7:c5:
        98:f7:88:45:05:0a:08:22:3a:ac:46:f4:a6:6e:75:c7:48:e2:
        0c:b5:54:4c:ad:2c:30:55:33:61:9b:f4:ac:81:c3:48:28:5d:
        e8:22:e2:5f
-----BEGIN CERTIFICATE-----
MIID9jCCAt6gAwIBAgICEAswDQYJKoZIhvcNAQELBQAwgYkxCzAJBgNVBAYTAlVT
MRAwDgYDVQQIDAdGbG9yaWRhMRAwDgYDVQQHDAdKdXBpdGVyMQ4wDAYDVQQKDAVa
ZXJvQzEMMAoGA1UECwwDSWNlMRgwFgYDVQQDDA9aZXJvQyBUZXN0IENBIDExHjAc
BgkqhkiG9w0BCQEWD3Rlc3RzQHplcm9jLmNvbTAeFw0yNTA1MjIxNTEwMTVaFw0y
NjA2MjQxNTEwMTVaMIGIMRIwEAYDVQQDDAkxMjcuMC4wLjExCzAJBgNVBAYTAlVT
MRAwDgYDVQQIDAdGbG9yaWRhMRAwDgYDVQQHDAdKdXBpdGVyMRQwEgYDVQQKDAta
ZXJvQywgSW5jLjEMMAoGA1UECwwDSWNlMR0wGwYJKoZIhvcNAQkBFg5pbmZvQHpl
cm9jLmNvbTCCASIwDQYJKoZIhvcNAQEBBQADggEPADCCAQoCggEBANbrv7mZ1o8L
z2nOhPmpeZHWqW4ZpdVRBewtkLyORMlL3BtU8DSpMPn0z7dXtJBtEQw2paT4Fqy4
O/YAmWFuYRauNJvtiADU+gFKBuekJFY05A4M/j4adnCVavf9JxdhU8eksiyM2gVC
VFiyBhhtUdPFRBlbBHhwK3Ajqc3H4RqTmKf+TmDXa3UgYv33E+I3b4FMf4hcCTWq
KADEPABDS6mBNk54Xoq/H8XgAwJemiirT4304kmhNiautj2+nip/WB+FrYkzcikT
ZBT6AjHSRGp4WkcC8SBSl4rJNSoiRaFZOgtEPVCDADMVhsslqMoUPvPirNBSwfVR
SfUEX/x0NgkCAwEAAaNnMGUwHQYDVR0OBBYEFL60nJugFJ7WKEBNPkH3US4Q9nSs
MB8GA1UdIwQYMBaAFNr8Lw5lOIKmN4eKXsgc+/v/hnjFMA4GA1UdDwEB/wQEAwIF
4DATBgNVHSUEDDAKBggrBgEFBQcDATANBgkqhkiG9w0BAQsFAAOCAQEAOZI82kQh
srS8m9Ea8oaCcUdJBwSAqMHPmnsm2B7swwP6lmreQj+AW0H/kwnjL0f8DidE9juS
X6zQU/M094yPZzbcOfmJxHle2LTjZK+dEf3GdM+ERn6i5co3ZCKS450WH6hMx5KZ
d5lUGoNQgYW+mn0rMl7v8udz3VhUV3C3Z3hjLMPnn/uFDowXg8AbZD6FMROHIVgR
gjxf8uILClNNe4731y7y2XlK0cHA3xU3AzUyypTwHV1sC+6pq8xY1+CBWpb+WdXJ
fz7I2HKBK1ZSW2ghUKpmVafFmPeIRQUKCCI6rEb0pm51x0jiDLVUTK0sMFUzYZv0
rIHDSChd6CLiXw==
-----END CERTIFICATE-----
