Certificate:
    Data:
        Version: 3 (0x2)
        Serial Number: 4100 (0x1004)
        Signature Algorithm: sha256WithRSAEncryption
        Issuer: C=US, ST=Florida, L=Jupiter, O=ZeroC, OU=Ice, CN=ZeroC Test CA 1/emailAddress=tests@zeroc.com
        Validity
            Not Before: May 22 15:10:13 2025 GMT
            Not After : Jun 24 15:10:13 2026 GMT
        Subject: CN=localhost, C=US, ST=Florida, L=Jupiter, O=ZeroC, Inc., OU=Ice CN3/emailAddress=info@zeroc.com
        Subject Public Key Info:
            Public Key Algorithm: rsaEncryption
                Public-Key: (2048 bit)
                Modulus:
                    00:e4:4b:6d:3a:e1:d2:e5:b0:98:18:16:52:98:c2:
                    4d:b8:a0:24:5a:83:86:11:dd:18:16:36:06:bf:3d:
                    09:bb:4b:13:95:00:60:12:00:a0:28:30:f2:80:91:
                    d4:f4:87:02:60:41:0c:a3:02:65:03:45:cc:dd:32:
                    f0:58:36:72:3d:92:22:62:c4:03:8b:78:d3:e5:ad:
                    b3:59:72:b3:4a:68:e2:6f:c6:23:d8:03:36:12:46:
                    43:b1:0c:70:a9:8c:44:c7:de:28:e8:be:20:50:ca:
                    c7:62:c0:d8:b8:4c:e0:e9:6e:ac:3b:14:58:e6:f2:
                    00:f4:aa:03:54:e9:b9:39:78:f0:09:1e:1f:de:08:
                    ff:30:b2:2c:73:c0:b9:98:ba:32:a0:bf:04:bb:dd:
                    c8:9f:f3:47:0a:29:27:f3:a7:44:94:dc:aa:e2:f3:
                    98:54:44:e2:fc:46:29:c8:20:5b:92:0a:b2:e1:e6:
                    7c:e8:02:9e:0b:41:31:a2:46:a7:6c:86:e6:2c:a8:
                    4b:fa:5d:ee:44:c5:b1:7a:8d:93:eb:db:1a:82:60:
                    52:3e:91:fa:11:4f:00:25:a2:4c:dd:13:fd:07:9d:
                    f0:59:27:d9:52:91:f8:61:3d:33:17:8e:e6:d7:bb:
                    f4:d5:87:e1:13:d6:b5:f9:c8:5e:1a:bd:32:0c:64:
                    7a:61
                Exponent: 65537 (0x10001)
        X509v3 extensions:
            X509v3 Subject Key Identifier: 
                E4:A6:62:C8:97:8E:09:F5:86:78:F0:AC:3F:33:10:9B:F7:A9:59:99
            X509v3 Authority Key Identifier: 
                DA:FC:2F:0E:65:38:82:A6:37:87:8A:5E:C8:1C:FB:FB:FF:86:78:C5
            X509v3 Key Usage: critical
                Digital Signature, Non Repudiation, Key Encipherment
            X509v3 Extended Key Usage: 
                TLS Web Server Authentication
    Signature Algorithm: sha256WithRSAEncryption
    Signature Value:
        72:4d:78:2e:d5:fb:78:71:48:d8:54:1c:cd:b9:20:0f:f9:b1:
        88:77:24:53:38:f3:e1:f9:d5:15:af:0b:a8:aa:9f:aa:41:b7:
        05:68:6c:4e:3b:fd:67:4c:49:66:f3:cd:91:e3:35:c9:de:62:
        f4:58:85:1c:f6:d4:53:05:eb:8c:2e:f2:a9:4d:88:4e:15:53:
        ed:9d:db:20:0a:e1:5b:f5:ec:16:0e:67:0f:98:26:23:06:ac:
        26:5d:ad:cc:b6:ce:27:37:48:ab:a5:a7:3b:ea:29:91:41:fb:
        d3:d8:3e:62:8c:ad:55:1c:f2:2b:23:a6:12:c8:90:45:9a:36:
        4e:e2:ff:87:9c:77:4a:8f:af:de:01:7b:84:16:27:53:ec:c4:
        4f:ce:be:23:40:48:cf:b7:54:b1:a0:b4:35:ff:ca:b3:60:7a:
        bc:28:de:1c:e5:f4:b6:5f:9e:a1:7a:43:00:5f:13:2c:25:4d:
        42:2f:f3:d0:fd:ae:98:5d:df:0e:e6:b0:d7:36:e5:a4:30:ad:
        fc:d5:68:7a:e9:25:a3:f0:06:bf:fc:d1:84:97:9c:a8:1b:8c:
        7f:21:76:c4:95:9f:3b:cc:73:25:f3:8a:c0:dc:ac:bc:dd:19:
        24:65:21:07:d7:69:2f:7b:24:37:f1:77:a6:44:b4:9c:d1:41:
        20:28:2e:f6
-----BEGIN CERTIFICATE-----
MIID+jCCAuKgAwIBAgICEAQwDQYJKoZIhvcNAQELBQAwgYkxCzAJBgNVBAYTAlVT
MRAwDgYDVQQIDAdGbG9yaWRhMRAwDgYDVQQHDAdKdXBpdGVyMQ4wDAYDVQQKDAVa
ZXJvQzEMMAoGA1UECwwDSWNlMRgwFgYDVQQDDA9aZXJvQyBUZXN0IENBIDExHjAc
BgkqhkiG9w0BCQEWD3Rlc3RzQHplcm9jLmNvbTAeFw0yNTA1MjIxNTEwMTNaFw0y
NjA2MjQxNTEwMTNaMIGMMRIwEAYDVQQDDAlsb2NhbGhvc3QxCzAJBgNVBAYTAlVT
MRAwDgYDVQQIDAdGbG9yaWRhMRAwDgYDVQQHDAdKdXBpdGVyMRQwEgYDVQQKDAta
ZXJvQywgSW5jLjEQMA4GA1UECwwHSWNlIENOMzEdMBsGCSqGSIb3DQEJARYOaW5m
b0B6ZXJvYy5jb20wggEiMA0GCSqGSIb3DQEBAQUAA4IBDwAwggEKAoIBAQDkS206
4dLlsJgYFlKYwk24oCRag4YR3RgWNga/PQm7SxOVAGASAKAoMPKAkdT0hwJgQQyj
AmUDRczdMvBYNnI9kiJixAOLeNPlrbNZcrNKaOJvxiPYAzYSRkOxDHCpjETH3ijo
viBQysdiwNi4TODpbqw7FFjm8gD0qgNU6bk5ePAJHh/eCP8wsixzwLmYujKgvwS7
3cif80cKKSfzp0SU3Kri85hUROL8RinIIFuSCrLh5nzoAp4LQTGiRqdshuYsqEv6
Xe5ExbF6jZPr2xqCYFI+kfoRTwAlokzdE/0HnfBZJ9lSkfhhPTMXjubXu/TVh+ET
1rX5yF4avTIMZHphAgMBAAGjZzBlMB0GA1UdDgQWBBTkpmLIl44J9YZ48Kw/MxCb
96lZmTAfBgNVHSMEGDAWgBTa/C8OZTiCpjeHil7IHPv7/4Z4xTAOBgNVHQ8BAf8E
BAMCBeAwEwYDVR0lBAwwCgYIKwYBBQUHAwEwDQYJKoZIhvcNAQELBQADggEBAHJN
eC7V+3hxSNhUHM25IA/5sYh3JFM48+H51RWvC6iqn6pBtwVobE47/WdMSWbzzZHj
NcneYvRYhRz21FMF64wu8qlNiE4VU+2d2yAK4Vv17BYOZw+YJiMGrCZdrcy2zic3
SKulpzvqKZFB+9PYPmKMrVUc8isjphLIkEWaNk7i/4ecd0qPr94Be4QWJ1PsxE/O
viNASM+3VLGgtDX/yrNgerwo3hzl9LZfnqF6QwBfEywlTUIv89D9rphd3w7msNc2
5aQwrfzVaHrpJaPwBr/80YSXnKgbjH8hdsSVnzvMcyXzisDcrLzdGSRlIQfXaS97
JDfxd6ZEtJzRQSAoLvY=
-----END CERTIFICATE-----
