Certificate:
    Data:
        Version: 3 (0x2)
        Serial Number: 4101 (0x1005)
        Signature Algorithm: sha256WithRSAEncryption
        Issuer: C=US, ST=Florida, L=Jupiter, O=ZeroC, OU=Ice, CN=ZeroC Test CA 1/emailAddress=tests@zeroc.com
        Validity
            Not Before: May 22 15:10:13 2025 GMT
            Not After : Jun 24 15:10:13 2026 GMT
        Subject: CN=server, C=US, ST=Florida, L=Jupiter, O=ZeroC, Inc., OU=Ice CN1/emailAddress=info@zeroc.com
        Subject Public Key Info:
            Public Key Algorithm: rsaEncryption
                Public-Key: (2048 bit)
                Modulus:
                    00:b1:39:2a:92:06:9d:03:93:f0:ab:1a:0e:76:5e:
                    ce:b1:22:d8:fc:61:dd:6f:55:3c:90:5b:fa:31:87:
                    b9:a4:fd:c2:08:d5:c5:cd:52:bb:13:55:91:41:23:
                    e2:05:8f:46:38:83:87:82:44:1f:eb:9e:cb:66:f0:
                    37:f7:79:09:0c:ba:56:3e:da:fc:61:57:7e:e8:b6:
                    0e:52:32:53:95:37:92:8f:21:74:40:a9:e6:68:9d:
                    2d:d4:92:99:10:88:66:7d:ca:29:ce:ea:c7:c2:c0:
                    bb:4c:cc:c6:1a:52:85:0f:90:7e:f8:8d:32:25:6a:
                    13:7f:b5:80:e2:c1:f4:73:24:45:11:9a:f3:94:47:
                    6b:5a:f2:20:24:ea:0e:5f:1f:cb:03:02:5a:1e:92:
                    8f:40:8d:1d:2e:f2:19:fe:19:d6:4b:4a:d9:eb:de:
                    ea:27:8e:93:bb:d5:00:ea:2b:c7:53:24:d8:9a:eb:
                    07:bc:ab:4b:79:96:5c:ae:68:10:95:59:d5:57:c5:
                    02:ee:96:98:de:e9:3d:77:13:0b:57:c5:ce:e5:7a:
                    c6:97:75:c6:4a:75:3b:14:42:97:a1:14:2f:50:98:
                    7c:52:75:2b:93:85:ec:e4:03:7f:ff:7a:52:41:21:
                    d8:36:fb:d6:d7:81:4a:6d:58:7f:f9:12:7c:af:34:
                    38:fb
                Exponent: 65537 (0x10001)
        X509v3 extensions:
            X509v3 Subject Key Identifier: 
                05:4B:EF:FB:71:5E:E5:AA:AF:48:4F:2E:C5:32:8C:BC:9B:57:20:0E
            X509v3 Authority Key Identifier: 
                DA:FC:2F:0E:65:38:82:A6:37:87:8A:5E:C8:1C:FB:FB:FF:86:78:C5
            X509v3 Key Usage: critical
                Digital Signature, Non Repudiation, Key Encipherment
            X509v3 Extended Key Usage: 
                TLS Web Server Authentication
            X509v3 Subject Alternative Name: 
                DNS:localhost
    Signature Algorithm: sha256WithRSAEncryption
    Signature Value:
        32:31:cb:5e:bc:ab:7c:e8:01:5a:9c:a1:a0:e4:0b:ef:cf:75:
        b6:aa:bd:9e:fc:53:3d:8c:b1:a1:a8:07:af:87:86:5a:97:49:
        ba:97:98:20:20:a7:a3:95:f5:c2:7f:f3:30:b4:83:56:20:c7:
        10:b2:1c:0c:be:78:b0:37:27:08:63:b3:b2:dd:49:62:bb:1c:
        bb:7d:d7:10:51:d8:32:f5:61:5a:e3:04:17:fb:e6:bc:7f:cf:
        c9:34:1b:0f:1e:e2:ff:56:c1:04:74:15:b3:0f:df:a8:38:c8:
        e7:32:fd:70:bc:9c:17:b5:0a:a4:7d:78:4d:c8:74:72:7a:b9:
        e6:56:b0:12:82:a5:3c:73:5a:b9:87:b1:df:85:54:42:79:13:
        e5:2e:fc:a8:d7:bc:56:36:1d:3a:32:f4:d1:a9:0b:f4:b8:1a:
        09:02:c6:c2:0d:34:e0:81:67:e7:f7:22:db:22:b5:bf:f7:1e:
        46:27:66:d2:52:9c:31:0b:9a:b6:c6:e6:66:99:5b:c7:24:c6:
        20:63:24:c4:2a:0f:5d:0f:c0:21:4a:f0:37:32:5d:cb:1c:e0:
        59:0b:7e:ef:bc:7f:eb:22:2f:bd:18:86:1e:6e:a1:bd:0e:91:
        4d:80:21:e3:35:e1:9d:87:44:0a:54:bb:93:4b:0b:a6:af:56:
        7c:e3:74:84
-----BEGIN CERTIFICATE-----
MIIEDTCCAvWgAwIBAgICEAUwDQYJKoZIhvcNAQELBQAwgYkxCzAJBgNVBAYTAlVT
MRAwDgYDVQQIDAdGbG9yaWRhMRAwDgYDVQQHDAdKdXBpdGVyMQ4wDAYDVQQKDAVa
ZXJvQzEMMAoGA1UECwwDSWNlMRgwFgYDVQQDDA9aZXJvQyBUZXN0IENBIDExHjAc
BgkqhkiG9w0BCQEWD3Rlc3RzQHplcm9jLmNvbTAeFw0yNTA1MjIxNTEwMTNaFw0y
NjA2MjQxNTEwMTNaMIGJMQ8wDQYDVQQDDAZzZXJ2ZXIxCzAJBgNVBAYTAlVTMRAw
DgYDVQQIDAdGbG9yaWRhMRAwDgYDVQQHDAdKdXBpdGVyMRQwEgYDVQQKDAtaZXJv
QywgSW5jLjEQMA4GA1UECwwHSWNlIENOMTEdMBsGCSqGSIb3DQEJARYOaW5mb0B6
ZXJvYy5jb20wggEiMA0GCSqGSIb3DQEBAQUAA4IBDwAwggEKAoIBAQCxOSqSBp0D
k/CrGg52Xs6xItj8Yd1vVTyQW/oxh7mk/cII1cXNUrsTVZFBI+IFj0Y4g4eCRB/r
nstm8Df3eQkMulY+2vxhV37otg5SMlOVN5KPIXRAqeZonS3UkpkQiGZ9yinO6sfC
wLtMzMYaUoUPkH74jTIlahN/tYDiwfRzJEURmvOUR2ta8iAk6g5fH8sDAloeko9A
jR0u8hn+GdZLStnr3uonjpO71QDqK8dTJNia6we8q0t5llyuaBCVWdVXxQLulpje
6T13EwtXxc7lesaXdcZKdTsUQpehFC9QmHxSdSuThezkA3//elJBIdg2+9bXgUpt
WH/5EnyvNDj7AgMBAAGjfTB7MB0GA1UdDgQWBBQFS+/7cV7lqq9ITy7FMoy8m1cg
DjAfBgNVHSMEGDAWgBTa/C8OZTiCpjeHil7IHPv7/4Z4xTAOBgNVHQ8BAf8EBAMC
BeAwEwYDVR0lBAwwCgYIKwYBBQUHAwEwFAYDVR0RBA0wC4IJbG9jYWxob3N0MA0G
CSqGSIb3DQEBCwUAA4IBAQAyMctevKt86AFanKGg5Avvz3W2qr2e/FM9jLGhqAev
h4Zal0m6l5ggIKejlfXCf/MwtINWIMcQshwMvniwNycIY7Oy3Uliuxy7fdcQUdgy
9WFa4wQX++a8f8/JNBsPHuL/VsEEdBWzD9+oOMjnMv1wvJwXtQqkfXhNyHRyernm
VrASgqU8c1q5h7HfhVRCeRPlLvyo17xWNh06MvTRqQv0uBoJAsbCDTTggWfn9yLb
IrW/9x5GJ2bSUpwxC5q2xuZmmVvHJMYgYyTEKg9dD8AhSvA3Ml3LHOBZC37vvH/r
Ii+9GIYebqG9DpFNgCHjNeGdh0QKVLuTSwumr1Z843SE
-----END CERTIFICATE-----
