Certificate:
    Data:
        Version: 3 (0x2)
        Serial Number: 4103 (0x1007)
        Signature Algorithm: sha256WithRSAEncryption
        Issuer: C=US, ST=Florida, L=Jupiter, O=ZeroC, OU=Ice, CN=ZeroC Test CA 1/emailAddress=tests@zeroc.com
        Validity
            Not Before: May 22 15:10:14 2025 GMT
            Not After : Jun 24 15:10:14 2026 GMT
        Subject: CN=localhost, C=US, ST=Florida, L=Jupiter, O=ZeroC, Inc., OU=Ice CN5/emailAddress=info@zeroc.com
        Subject Public Key Info:
            Public Key Algorithm: rsaEncryption
                Public-Key: (2048 bit)
                Modulus:
                    00:ba:f0:f1:57:bf:a4:23:e5:57:99:0e:49:87:6c:
                    7b:64:8b:a3:c5:15:af:2b:ec:46:c6:56:ca:91:83:
                    02:3b:28:03:10:a7:a7:36:73:cd:ef:70:2d:42:53:
                    f0:98:78:3b:bd:01:28:ee:5c:81:24:fb:a9:8c:36:
                    99:91:52:8f:28:1f:d2:24:03:7b:ec:da:8e:26:4f:
                    f1:c8:61:0a:12:56:98:4c:62:25:57:4c:d7:10:f8:
                    e4:7e:58:e5:31:fd:06:c7:ee:1a:a3:66:8e:f8:8b:
                    34:7e:3d:16:b1:46:15:07:d2:97:df:c2:72:94:be:
                    ca:31:a9:3c:a9:3b:26:c3:c6:0f:5f:5f:ee:d1:d1:
                    7d:c6:c3:5b:57:4f:91:5a:68:af:fd:54:5b:01:42:
                    9d:3a:3f:ac:b5:a0:80:62:1b:c0:85:54:82:8f:79:
                    7c:df:6c:a5:e5:e5:5d:af:47:1c:ed:10:b3:70:e8:
                    76:9d:94:63:61:48:07:2e:7b:47:aa:2d:3d:b0:ed:
                    02:21:50:9d:a3:80:12:2c:85:57:22:84:f3:46:9c:
                    4c:59:da:1a:49:a2:69:77:92:ce:ce:88:b3:a1:bd:
                    db:7c:d9:d4:f0:03:fc:71:96:4b:3a:e8:9e:c7:74:
                    6b:e5:46:b9:a5:cd:71:ae:36:b1:6a:04:83:65:9d:
                    d8:35
                Exponent: 65537 (0x10001)
        X509v3 extensions:
            X509v3 Subject Key Identifier: 
                53:62:86:18:04:96:81:42:96:DA:97:33:6B:93:B2:57:93:46:80:94
            X509v3 Authority Key Identifier: 
                DA:FC:2F:0E:65:38:82:A6:37:87:8A:5E:C8:1C:FB:FB:FF:86:78:C5
            X509v3 Key Usage: critical
                Digital Signature, Non Repudiation, Key Encipherment
            X509v3 Extended Key Usage: 
                TLS Web Server Authentication
            X509v3 Subject Alternative Name: 
                DNS:localhostX
    Signature Algorithm: sha256WithRSAEncryption
    Signature Value:
        51:7a:a8:d1:71:89:d5:cd:37:73:81:48:3f:36:f0:70:84:24:
        47:23:b2:3c:ab:34:50:77:8f:54:14:ff:23:5c:44:59:b1:41:
        ac:33:e5:21:89:12:17:9b:b1:bf:c4:20:6c:21:53:ac:6b:be:
        a3:70:a8:c5:2d:d3:32:cb:a8:3a:ee:0d:72:92:1c:1a:c9:1f:
        1f:89:e2:5b:a9:a0:84:e5:26:dc:2e:06:3c:b7:a7:87:3c:97:
        cf:b5:1d:e7:ba:f2:a4:a1:86:34:9f:f0:56:8b:1c:13:55:f0:
        97:a2:7d:6b:80:1e:e6:7e:63:22:e8:c8:65:82:c7:bd:f6:c3:
        f2:44:cb:43:06:e5:66:05:c4:5f:f4:02:a8:97:9c:3b:94:55:
        ab:d5:e3:79:0e:34:64:e8:a7:e3:4c:64:cb:0a:17:ab:37:73:
        84:c5:4c:e1:14:de:1f:22:2c:74:75:54:ac:bd:5a:99:1b:1b:
        61:ef:af:e9:71:df:a3:e7:cc:33:5e:28:d5:3d:5c:f5:26:09:
        6d:b8:b0:83:97:05:67:08:43:ef:f2:11:ad:86:74:80:04:84:
        26:8d:e3:3b:e2:6f:66:1d:72:fe:d4:79:c0:b0:48:03:6d:dd:
        38:60:d2:8b:2d:2f:f1:24:9f:5a:01:83:f2:6f:be:c9:21:02:
        72:b1:1c:86
-----BEGIN CERTIFICATE-----
MIIEETCCAvmgAwIBAgICEAcwDQYJKoZIhvcNAQELBQAwgYkxCzAJBgNVBAYTAlVT
MRAwDgYDVQQIDAdGbG9yaWRhMRAwDgYDVQQHDAdKdXBpdGVyMQ4wDAYDVQQKDAVa
ZXJvQzEMMAoGA1UECwwDSWNlMRgwFgYDVQQDDA9aZXJvQyBUZXN0IENBIDExHjAc
BgkqhkiG9w0BCQEWD3Rlc3RzQHplcm9jLmNvbTAeFw0yNTA1MjIxNTEwMTRaFw0y
NjA2MjQxNTEwMTRaMIGMMRIwEAYDVQQDDAlsb2NhbGhvc3QxCzAJBgNVBAYTAlVT
MRAwDgYDVQQIDAdGbG9yaWRhMRAwDgYDVQQHDAdKdXBpdGVyMRQwEgYDVQQKDAta
ZXJvQywgSW5jLjEQMA4GA1UECwwHSWNlIENONTEdMBsGCSqGSIb3DQEJARYOaW5m
b0B6ZXJvYy5jb20wggEiMA0GCSqGSIb3DQEBAQUAA4IBDwAwggEKAoIBAQC68PFX
v6Qj5VeZDkmHbHtki6PFFa8r7EbGVsqRgwI7KAMQp6c2c83vcC1CU/CYeDu9ASju
XIEk+6mMNpmRUo8oH9IkA3vs2o4mT/HIYQoSVphMYiVXTNcQ+OR+WOUx/QbH7hqj
Zo74izR+PRaxRhUH0pffwnKUvsoxqTypOybDxg9fX+7R0X3Gw1tXT5FaaK/9VFsB
Qp06P6y1oIBiG8CFVIKPeXzfbKXl5V2vRxztELNw6HadlGNhSAcue0eqLT2w7QIh
UJ2jgBIshVcihPNGnExZ2hpJoml3ks7OiLOhvdt82dTwA/xxlks66J7HdGvlRrml
zXGuNrFqBINlndg1AgMBAAGjfjB8MB0GA1UdDgQWBBRTYoYYBJaBQpbalzNrk7JX
k0aAlDAfBgNVHSMEGDAWgBTa/C8OZTiCpjeHil7IHPv7/4Z4xTAOBgNVHQ8BAf8E
BAMCBeAwEwYDVR0lBAwwCgYIKwYBBQUHAwEwFQYDVR0RBA4wDIIKbG9jYWxob3N0
WDANBgkqhkiG9w0BAQsFAAOCAQEAUXqo0XGJ1c03c4FIPzbwcIQkRyOyPKs0UHeP
VBT/I1xEWbFBrDPlIYkSF5uxv8QgbCFTrGu+o3CoxS3TMsuoOu4NcpIcGskfH4ni
W6mghOUm3C4GPLenhzyXz7Ud57rypKGGNJ/wVoscE1Xwl6J9a4Ae5n5jIujIZYLH
vfbD8kTLQwblZgXEX/QCqJecO5RVq9XjeQ40ZOin40xkywoXqzdzhMVM4RTeHyIs
dHVUrL1amRsbYe+v6XHfo+fMM14o1T1c9SYJbbiwg5cFZwhD7/IRrYZ0gASEJo3j
O+JvZh1y/tR5wLBIA23dOGDSiy0v8SSfWgGD8m++ySECcrEchg==
-----END CERTIFICATE-----
