Certificate:
    Data:
        Version: 3 (0x2)
        Serial Number: 4108 (0x100c)
        Signature Algorithm: sha256WithRSAEncryption
        Issuer: C=US, ST=Florida, L=Jupiter, O=ZeroC, OU=Ice, CN=ZeroC Test CA 1/emailAddress=tests@zeroc.com
        Validity
            Not Before: May 22 15:10:16 2025 GMT
            Not After : Jun 24 15:10:16 2026 GMT
        Subject: CN=Server, C=US, ST=Florida, L=Jupiter, O=ZeroC, Inc., OU=Ice/emailAddress=info@zeroc.com
        Subject Public Key Info:
            Public Key Algorithm: rsaEncryption
                Public-Key: (2048 bit)
                Modulus:
                    00:8b:19:d4:2c:4a:a6:de:47:90:b0:80:3a:fc:c7:
                    71:47:15:ef:9b:99:a0:85:5a:fb:39:f5:2d:d1:5b:
                    9b:65:c3:c4:09:41:d1:5f:9e:21:b4:08:d5:a2:59:
                    ce:c5:d1:d3:25:39:04:d2:2e:54:fb:e5:f9:7b:e7:
                    be:cb:c2:79:9d:52:f2:bd:54:52:08:16:7f:b6:d9:
                    5a:2c:44:d5:9b:85:86:07:0e:11:9c:1b:e3:5b:aa:
                    61:ec:da:f8:a1:cf:ca:b7:c4:b1:57:9a:9d:5d:a2:
                    7a:70:d4:97:b2:5e:d0:76:0f:3b:38:c9:d2:84:e5:
                    25:56:75:38:4c:15:90:20:a0:b0:91:5b:ce:65:58:
                    10:5f:82:01:b3:e9:4a:6e:c2:c2:a0:e5:9a:24:93:
                    ba:2a:90:fe:06:4f:cd:1b:29:45:33:44:36:c6:c5:
                    ea:5a:fc:ff:8f:3f:ca:c4:a0:45:94:cf:2d:15:8b:
                    6e:f5:0c:dc:e4:62:cc:9a:75:fa:4d:ca:97:45:cb:
                    a6:f6:0e:d7:0f:64:87:20:44:5d:e9:2d:79:99:ce:
                    a1:5e:df:98:c0:4b:9d:fc:69:03:61:97:1d:3a:1c:
                    3e:44:87:f3:cf:c6:d8:2d:48:60:0f:f6:dd:0f:1f:
                    fc:18:7c:32:14:7d:c2:c9:5e:48:9d:45:c0:fa:fc:
                    57:01
                Exponent: 65537 (0x10001)
        X509v3 extensions:
            X509v3 Subject Key Identifier: 
                7B:95:72:3A:98:C6:94:D5:D9:89:A8:8F:04:BB:A5:AC:79:17:4A:38
            X509v3 Authority Key Identifier: 
                DA:FC:2F:0E:65:38:82:A6:37:87:8A:5E:C8:1C:FB:FB:FF:86:78:C5
            X509v3 Key Usage: critical
                Digital Signature, Non Repudiation, Key Encipherment
            X509v3 Extended Key Usage: 
                TLS Web Server Authentication
            X509v3 Subject Alternative Name: 
                IP Address:127.0.0.1, DNS:server
    Signature Algorithm: sha256WithRSAEncryption
    Signature Value:
        47:15:87:ee:08:3c:72:6b:ed:8c:28:16:f9:ca:4c:87:5d:b6:
        06:c1:60:32:97:37:b7:cf:cf:c6:55:74:90:0f:ce:fc:ef:af:
        10:02:63:ab:56:57:99:b4:d3:61:9b:c3:d7:b2:c1:db:a0:4b:
        9a:c2:ea:a5:ab:f0:01:43:25:2d:85:bb:af:a3:1f:fd:32:02:
        7e:35:dd:1f:1c:c4:15:6f:5c:e0:b7:76:9e:ce:8e:f4:cd:a0:
        59:1b:42:d4:7d:fe:73:0b:31:03:2b:ff:48:00:15:3b:72:7e:
        7c:2c:e9:e7:94:c2:0a:ea:41:be:13:e8:72:34:13:1f:af:08:
        5b:02:f2:3d:5a:ab:97:77:b1:50:15:a3:27:64:bb:3b:12:17:
        ac:ea:6c:9f:ee:10:0b:5e:56:97:79:3d:ff:cc:52:f3:82:ce:
        c2:37:42:d5:ab:f6:ce:4f:a6:ec:dd:8b:8f:64:d7:3d:7f:59:
        40:01:e9:7d:b0:86:ea:57:c6:94:a7:d0:4f:f7:15:e4:cc:27:
        39:30:66:5f:f6:51:67:d0:9f:10:61:0a:17:ab:ae:60:50:81:
        4f:ec:4e:47:15:0d:a8:c9:96:86:70:67:a2:77:e0:0e:de:ef:
        05:1b:20:44:be:da:80:e9:39:54:60:21:d1:52:6f:0a:26:07:
        37:88:b0:f7
-----BEGIN CERTIFICATE-----
MIIEDTCCAvWgAwIBAgICEAwwDQYJKoZIhvcNAQELBQAwgYkxCzAJBgNVBAYTAlVT
MRAwDgYDVQQIDAdGbG9yaWRhMRAwDgYDVQQHDAdKdXBpdGVyMQ4wDAYDVQQKDAVa
ZXJvQzEMMAoGA1UECwwDSWNlMRgwFgYDVQQDDA9aZXJvQyBUZXN0IENBIDExHjAc
BgkqhkiG9w0BCQEWD3Rlc3RzQHplcm9jLmNvbTAeFw0yNTA1MjIxNTEwMTZaFw0y
NjA2MjQxNTEwMTZaMIGFMQ8wDQYDVQQDDAZTZXJ2ZXIxCzAJBgNVBAYTAlVTMRAw
DgYDVQQIDAdGbG9yaWRhMRAwDgYDVQQHDAdKdXBpdGVyMRQwEgYDVQQKDAtaZXJv
QywgSW5jLjEMMAoGA1UECwwDSWNlMR0wGwYJKoZIhvcNAQkBFg5pbmZvQHplcm9j
LmNvbTCCASIwDQYJKoZIhvcNAQEBBQADggEPADCCAQoCggEBAIsZ1CxKpt5HkLCA
OvzHcUcV75uZoIVa+zn1LdFbm2XDxAlB0V+eIbQI1aJZzsXR0yU5BNIuVPvl+Xvn
vsvCeZ1S8r1UUggWf7bZWixE1ZuFhgcOEZwb41uqYeza+KHPyrfEsVeanV2ienDU
l7Je0HYPOzjJ0oTlJVZ1OEwVkCCgsJFbzmVYEF+CAbPpSm7CwqDlmiSTuiqQ/gZP
zRspRTNENsbF6lr8/48/ysSgRZTPLRWLbvUM3ORizJp1+k3Kl0XLpvYO1w9khyBE
XekteZnOoV7fmMBLnfxpA2GXHTocPkSH88/G2C1IYA/23Q8f/Bh8MhR9wsleSJ1F
wPr8VwECAwEAAaOBgDB+MB0GA1UdDgQWBBR7lXI6mMaU1dmJqI8Eu6WseRdKODAf
BgNVHSMEGDAWgBTa/C8OZTiCpjeHil7IHPv7/4Z4xTAOBgNVHQ8BAf8EBAMCBeAw
EwYDVR0lBAwwCgYIKwYBBQUHAwEwFwYDVR0RBBAwDocEfwAAAYIGc2VydmVyMA0G
CSqGSIb3DQEBCwUAA4IBAQBHFYfuCDxya+2MKBb5ykyHXbYGwWAylze3z8/GVXSQ
D878768QAmOrVleZtNNhm8PXssHboEuawuqlq/ABQyUthbuvox/9MgJ+Nd0fHMQV
b1zgt3aezo70zaBZG0LUff5zCzEDK/9IABU7cn58LOnnlMIK6kG+E+hyNBMfrwhb
AvI9WquXd7FQFaMnZLs7Ehes6myf7hALXlaXeT3/zFLzgs7CN0LVq/bOT6bs3YuP
ZNc9f1lAAel9sIbqV8aUp9BP9xXkzCc5MGZf9lFn0J8QYQoXq65gUIFP7E5HFQ2o
yZaGcGeid+AO3u8FGyBEvtqA6TlUYCHRUm8KJgc3iLD3
-----END CERTIFICATE-----
