Certificate:
    Data:
        Version: 3 (0x2)
        Serial Number: 4107 (0x100b)
        Signature Algorithm: sha256WithRSAEncryption
        Issuer: C=US, ST=Florida, L=Jupiter, O=ZeroC, OU=Ice, CN=ZeroC Test CA 1/emailAddress=tests@zeroc.com
        Validity
            Not Before: May 22 16:55:14 2025 GMT
            Not After : Jun 24 16:55:14 2026 GMT
        Subject: CN=127.0.0.1, C=US, ST=Florida, L=Jupiter, O=ZeroC, Inc., OU=Ice/emailAddress=info@zeroc.com
        Subject Public Key Info:
            Public Key Algorithm: rsaEncryption
                Public-Key: (2048 bit)
                Modulus:
                    00:a8:f8:ad:10:b2:bb:4e:fe:f9:52:d8:fd:c9:32:
                    1a:28:62:a7:4a:1f:96:70:e7:6b:c4:2c:dd:d3:0c:
                    69:9f:d9:06:00:43:ba:34:da:d8:17:cd:84:44:94:
                    66:20:75:47:96:f3:77:4c:9c:67:b2:a7:24:b5:2c:
                    2f:32:0e:25:47:3f:0a:28:02:df:64:43:89:a9:0d:
                    95:a5:49:04:be:c4:d8:64:fa:42:15:84:77:46:b8:
                    37:a8:35:d1:54:21:00:ff:fa:4c:10:6a:81:df:3b:
                    92:65:43:5e:46:4b:16:91:f3:15:5c:ff:0e:8b:22:
                    24:ba:b5:88:25:3f:fd:dc:f8:8b:ee:1a:34:b6:3b:
                    1e:0c:8d:0b:ba:d0:4d:ae:83:2a:61:4e:e9:90:31:
                    96:f8:24:4d:4e:1a:8b:dd:90:6c:bd:0a:25:a2:17:
                    39:ba:80:16:eb:a6:b8:6a:d1:8f:00:7c:5b:be:73:
                    b8:e1:df:60:fb:d5:73:2e:52:8e:68:d8:18:b7:28:
                    38:8e:c9:45:2d:f8:e6:52:85:8c:d4:13:6e:e8:b3:
                    95:e3:08:23:b1:90:ea:b2:2e:49:8f:61:ff:56:71:
                    a9:ce:ef:db:89:a7:90:d6:4a:5c:7e:fb:bb:2b:05:
                    ad:1c:8f:de:87:1d:88:3b:1e:0e:85:8d:cc:a2:3c:
                    8a:4d
                Exponent: 65537 (0x10001)
        X509v3 extensions:
            X509v3 Subject Key Identifier: 
                F2:2C:2C:3D:22:3A:89:7B:94:29:2D:7A:EA:44:EC:90:98:A0:C3:DA
            X509v3 Authority Key Identifier: 
                75:F1:34:2D:9F:C0:A0:4E:71:BB:0C:37:85:8A:88:FC:6D:A2:28:55
            X509v3 Key Usage: critical
                Digital Signature, Non Repudiation, Key Encipherment
            X509v3 Extended Key Usage: 
                TLS Web Server Authentication
    Signature Algorithm: sha256WithRSAEncryption
    Signature Value:
        59:93:f9:6a:fe:14:a0:b7:24:81:8e:3b:ff:d6:78:cb:d1:c9:
        58:15:be:d6:c6:4a:36:b1:6f:ca:7c:9f:87:23:42:34:e5:08:
        08:06:1c:29:aa:0f:be:06:e1:f8:6a:10:c1:ea:9e:08:dd:68:
        1c:8f:a9:96:1b:9e:08:cb:b6:91:05:a0:58:50:ad:9b:8a:d7:
        4c:46:bd:25:36:6f:d4:c8:c8:0c:3b:27:4d:53:89:63:c1:98:
        03:8f:d9:ac:43:5e:60:ca:d7:85:d7:47:b5:be:27:7b:8a:10:
        10:48:30:54:a3:07:84:3b:6b:5f:e5:9a:33:02:17:6c:9d:7e:
        81:92:69:56:47:b1:84:43:84:60:64:50:80:48:58:e9:51:80:
        12:3d:82:88:d1:26:bc:a1:31:20:0d:60:89:99:4a:1a:76:85:
        30:c2:cb:a7:4e:03:0a:6e:f8:1d:13:bd:36:f3:c2:37:fe:aa:
        99:c2:a1:2e:97:72:16:10:54:2a:a9:46:24:6d:48:ae:c0:bb:
        2e:5d:18:0f:58:dd:0d:15:88:68:27:db:70:30:e7:e3:17:4b:
        82:57:54:5b:87:92:37:8a:35:79:f3:d4:dd:b6:dd:22:8c:23:
        7f:1d:61:6a:02:a7:36:1d:f5:df:82:62:32:62:44:bb:96:a5:
        9d:8d:92:9a
-----BEGIN CERTIFICATE-----
MIID9jCCAt6gAwIBAgICEAswDQYJKoZIhvcNAQELBQAwgYkxCzAJBgNVBAYTAlVT
MRAwDgYDVQQIDAdGbG9yaWRhMRAwDgYDVQQHDAdKdXBpdGVyMQ4wDAYDVQQKDAVa
ZXJvQzEMMAoGA1UECwwDSWNlMRgwFgYDVQQDDA9aZXJvQyBUZXN0IENBIDExHjAc
BgkqhkiG9w0BCQEWD3Rlc3RzQHplcm9jLmNvbTAeFw0yNTA1MjIxNjU1MTRaFw0y
NjA2MjQxNjU1MTRaMIGIMRIwEAYDVQQDDAkxMjcuMC4wLjExCzAJBgNVBAYTAlVT
MRAwDgYDVQQIDAdGbG9yaWRhMRAwDgYDVQQHDAdKdXBpdGVyMRQwEgYDVQQKDAta
ZXJvQywgSW5jLjEMMAoGA1UECwwDSWNlMR0wGwYJKoZIhvcNAQkBFg5pbmZvQHpl
cm9jLmNvbTCCASIwDQYJKoZIhvcNAQEBBQADggEPADCCAQoCggEBAKj4rRCyu07+
+VLY/ckyGihip0oflnDna8Qs3dMMaZ/ZBgBDujTa2BfNhESUZiB1R5bzd0ycZ7Kn
JLUsLzIOJUc/CigC32RDiakNlaVJBL7E2GT6QhWEd0a4N6g10VQhAP/6TBBqgd87
kmVDXkZLFpHzFVz/DosiJLq1iCU//dz4i+4aNLY7HgyNC7rQTa6DKmFO6ZAxlvgk
TU4ai92QbL0KJaIXObqAFuumuGrRjwB8W75zuOHfYPvVcy5SjmjYGLcoOI7JRS34
5lKFjNQTbuizleMII7GQ6rIuSY9h/1Zxqc7v24mnkNZKXH77uysFrRyP3ocdiDse
DoWNzKI8ik0CAwEAAaNnMGUwHQYDVR0OBBYEFPIsLD0iOol7lCkteupE7JCYoMPa
MB8GA1UdIwQYMBaAFHXxNC2fwKBOcbsMN4WKiPxtoihVMA4GA1UdDwEB/wQEAwIF
4DATBgNVHSUEDDAKBggrBgEFBQcDATANBgkqhkiG9w0BAQsFAAOCAQEAWZP5av4U
oLckgY47/9Z4y9HJWBW+1sZKNrFvynyfhyNCNOUICAYcKaoPvgbh+GoQweqeCN1o
HI+plhueCMu2kQWgWFCtm4rXTEa9JTZv1MjIDDsnTVOJY8GYA4/ZrENeYMrXhddH
tb4ne4oQEEgwVKMHhDtrX+WaMwIXbJ1+gZJpVkexhEOEYGRQgEhY6VGAEj2CiNEm
vKExIA1giZlKGnaFMMLLp04DCm74HRO9NvPCN/6qmcKhLpdyFhBUKqlGJG1IrsC7
Ll0YD1jdDRWIaCfbcDDn4xdLgldUW4eSN4o1efPU3bbdIowjfx1hagKnNh3134Ji
MmJEu5alnY2Smg==
-----END CERTIFICATE-----
