Certificate:
    Data:
        Version: 3 (0x2)
        Serial Number: 4108 (0x100c)
        Signature Algorithm: sha256WithRSAEncryption
        Issuer: C=US, ST=Florida, L=Jupiter, O=ZeroC, OU=Ice, CN=ZeroC Test CA 1/emailAddress=tests@zeroc.com
        Validity
            Not Before: May 22 16:16:11 2025 GMT
            Not After : Jun 24 16:16:11 2026 GMT
        Subject: CN=Server, C=US, ST=Florida, L=Jupiter, O=ZeroC, Inc., OU=Ice/emailAddress=info@zeroc.com
        Subject Public Key Info:
            Public Key Algorithm: rsaEncryption
                Public-Key: (2048 bit)
                Modulus:
                    00:e4:fe:10:b7:d3:14:3e:6d:85:96:f9:25:3a:3d:
                    24:4d:ab:0d:c6:10:ac:44:af:6e:d0:de:86:a3:7c:
                    80:95:99:e7:cf:60:08:0d:52:90:29:dc:cb:44:7a:
                    69:18:29:c8:eb:36:39:00:77:70:cc:42:4a:2d:7c:
                    dd:f7:3d:09:94:74:9f:80:f2:f1:c8:d9:bc:e4:34:
                    31:10:49:ef:62:1f:06:63:51:76:19:dc:5c:9e:dd:
                    9f:77:28:da:46:7d:41:c7:da:1a:df:4a:47:d5:53:
                    e0:6d:af:e9:ce:73:56:c1:6b:c4:00:80:20:46:c7:
                    b2:1b:0a:2e:04:e1:bf:db:cc:83:a1:4a:dc:f0:45:
                    be:d5:c7:4e:ed:ab:b6:b2:80:51:8b:c1:1f:e1:1e:
                    f1:5b:82:73:54:70:40:38:0f:0e:1c:ee:87:de:59:
                    66:62:1a:39:ad:01:f8:a7:da:42:14:26:6e:0f:e7:
                    4f:3e:7d:31:c6:de:4d:38:3c:21:99:d9:e7:cc:61:
                    c8:b1:73:bc:21:ea:ea:42:3d:bf:9c:9b:97:a8:33:
                    19:0a:2e:cf:ab:eb:91:63:95:dd:20:d9:55:21:5e:
                    09:36:ca:99:82:1c:e4:2e:d3:a0:95:a8:e7:97:57:
                    43:96:4b:53:b5:b2:b3:e9:b9:0d:33:02:7d:6f:98:
                    2b:d1
                Exponent: 65537 (0x10001)
        X509v3 extensions:
            X509v3 Subject Key Identifier: 
                93:34:61:9D:4B:C3:98:64:6B:3F:9C:B4:69:28:7B:4C:84:FC:DA:89
            X509v3 Authority Key Identifier: 
                F7:4F:F3:3B:30:9F:3B:1F:27:4E:C3:C7:A4:7F:0C:FA:A6:40:B6:A1
            X509v3 Key Usage: critical
                Digital Signature, Non Repudiation, Key Encipherment
            X509v3 Extended Key Usage: 
                TLS Web Server Authentication
            X509v3 Subject Alternative Name: 
                IP Address:127.0.0.1, DNS:server
    Signature Algorithm: sha256WithRSAEncryption
    Signature Value:
        50:9f:b5:a1:6b:91:1a:85:f5:1c:65:f1:9c:35:29:73:f4:8a:
        cf:b0:1c:3b:93:5f:e1:c0:87:35:ce:ea:4f:23:75:1a:19:7c:
        e6:bf:c9:8e:24:ec:a3:22:b7:f3:ee:4f:3f:4a:ba:d8:66:cf:
        6b:3e:94:63:8a:a0:e6:90:c8:40:90:b4:6e:a3:9c:6b:c3:42:
        97:25:2a:8c:d7:35:07:4b:f9:05:18:7b:7a:d4:3b:a4:f3:e4:
        68:ed:75:04:76:aa:f2:b1:be:df:58:85:36:dd:01:49:ee:df:
        c4:c3:fd:7c:dc:1f:f9:67:44:c7:1f:11:b6:b9:50:c0:95:d6:
        1b:0b:c9:f0:ba:da:25:ba:4b:e2:e0:b2:fa:94:86:5b:36:7e:
        9a:8a:c5:f5:0c:10:56:dc:21:fd:15:4d:64:51:96:fc:6f:97:
        89:e9:1d:ad:65:78:bd:9c:72:97:46:26:63:33:c3:1a:84:ff:
        29:f2:75:d3:81:08:ec:98:1a:b5:f0:5a:e6:1e:bd:c5:45:0d:
        9b:84:13:b0:27:19:29:3c:29:bd:05:41:d4:af:d1:70:5a:df:
        58:89:07:c5:6e:5e:71:cf:7c:a5:1a:06:74:39:c7:86:e2:0f:
        05:ff:8f:d4:8f:a9:8b:e2:03:fb:51:0c:71:86:93:f4:26:80:
        c5:b1:f3:ac
-----BEGIN CERTIFICATE-----
MIIEDTCCAvWgAwIBAgICEAwwDQYJKoZIhvcNAQELBQAwgYkxCzAJBgNVBAYTAlVT
MRAwDgYDVQQIDAdGbG9yaWRhMRAwDgYDVQQHDAdKdXBpdGVyMQ4wDAYDVQQKDAVa
ZXJvQzEMMAoGA1UECwwDSWNlMRgwFgYDVQQDDA9aZXJvQyBUZXN0IENBIDExHjAc
BgkqhkiG9w0BCQEWD3Rlc3RzQHplcm9jLmNvbTAeFw0yNTA1MjIxNjE2MTFaFw0y
NjA2MjQxNjE2MTFaMIGFMQ8wDQYDVQQDDAZTZXJ2ZXIxCzAJBgNVBAYTAlVTMRAw
DgYDVQQIDAdGbG9yaWRhMRAwDgYDVQQHDAdKdXBpdGVyMRQwEgYDVQQKDAtaZXJv
QywgSW5jLjEMMAoGA1UECwwDSWNlMR0wGwYJKoZIhvcNAQkBFg5pbmZvQHplcm9j
LmNvbTCCASIwDQYJKoZIhvcNAQEBBQADggEPADCCAQoCggEBAOT+ELfTFD5thZb5
JTo9JE2rDcYQrESvbtDehqN8gJWZ589gCA1SkCncy0R6aRgpyOs2OQB3cMxCSi18
3fc9CZR0n4Dy8cjZvOQ0MRBJ72IfBmNRdhncXJ7dn3co2kZ9QcfaGt9KR9VT4G2v
6c5zVsFrxACAIEbHshsKLgThv9vMg6FK3PBFvtXHTu2rtrKAUYvBH+Ee8VuCc1Rw
QDgPDhzuh95ZZmIaOa0B+KfaQhQmbg/nTz59McbeTTg8IZnZ58xhyLFzvCHq6kI9
v5ybl6gzGQouz6vrkWOV3SDZVSFeCTbKmYIc5C7ToJWo55dXQ5ZLU7Wys+m5DTMC
fW+YK9ECAwEAAaOBgDB+MB0GA1UdDgQWBBSTNGGdS8OYZGs/nLRpKHtMhPzaiTAf
BgNVHSMEGDAWgBT3T/M7MJ87HydOw8ekfwz6pkC2oTAOBgNVHQ8BAf8EBAMCBeAw
EwYDVR0lBAwwCgYIKwYBBQUHAwEwFwYDVR0RBBAwDocEfwAAAYIGc2VydmVyMA0G
CSqGSIb3DQEBCwUAA4IBAQBQn7Wha5EahfUcZfGcNSlz9IrPsBw7k1/hwIc1zupP
I3UaGXzmv8mOJOyjIrfz7k8/SrrYZs9rPpRjiqDmkMhAkLRuo5xrw0KXJSqM1zUH
S/kFGHt61Duk8+Ro7XUEdqrysb7fWIU23QFJ7t/Ew/183B/5Z0THHxG2uVDAldYb
C8nwutolukvi4LL6lIZbNn6aisX1DBBW3CH9FU1kUZb8b5eJ6R2tZXi9nHKXRiZj
M8MahP8p8nXTgQjsmBq18FrmHr3FRQ2bhBOwJxkpPCm9BUHUr9FwWt9YiQfFbl5x
z3ylGgZ0OceG4g8F/4/Uj6mL4gP7UQxxhpP0JoDFsfOs
-----END CERTIFICATE-----
