Certificate:
    Data:
        Version: 3 (0x2)
        Serial Number: 4102 (0x1006)
        Signature Algorithm: sha256WithRSAEncryption
        Issuer: C=US, ST=Florida, L=Jupiter, O=ZeroC, OU=Ice, CN=ZeroC Test CA 1/emailAddress=tests@zeroc.com
        Validity
            Not Before: May 22 16:16:08 2025 GMT
            Not After : Jun 24 16:16:08 2026 GMT
        Subject: CN=localhostXX, C=US, ST=Florida, L=Jupiter, O=ZeroC, Inc., OU=Ice CN4/emailAddress=info@zeroc.com
        Subject Public Key Info:
            Public Key Algorithm: rsaEncryption
                Public-Key: (2048 bit)
                Modulus:
                    00:87:e7:9c:24:ea:bc:6a:4e:1f:d5:9c:78:1a:eb:
                    9f:07:8f:84:b3:9c:c5:e5:9c:9d:4e:2a:e0:ef:01:
                    e5:5c:66:6d:ce:5d:3c:2e:40:ba:07:d7:90:d1:64:
                    93:8f:cf:c7:a5:52:d4:85:0f:18:70:b2:d7:81:bb:
                    00:c3:22:f6:05:3d:b5:fc:f9:72:af:0c:d7:f7:cb:
                    27:bd:ce:b2:95:74:a3:44:4e:7a:a8:d9:05:a2:e6:
                    10:2a:d7:6a:d7:b6:39:24:99:64:2f:27:7f:f0:60:
                    df:c7:c4:4a:32:be:78:9b:1b:0a:c0:b5:98:dd:0a:
                    78:34:f0:26:a7:54:5f:f1:f5:96:90:db:68:16:45:
                    85:f6:b0:3d:bd:5f:2b:58:0f:fb:ca:80:4b:72:33:
                    0a:3b:9a:c0:e4:af:5d:4d:fa:ca:09:97:7a:0f:57:
                    fd:5d:a7:35:6d:84:8f:35:79:b2:01:08:aa:aa:85:
                    0c:93:84:08:fd:b4:8f:de:47:f2:ad:b6:75:4a:2d:
                    0c:ce:42:84:c3:90:aa:04:10:31:14:e4:85:9e:fa:
                    5a:6b:89:d4:7c:c6:50:03:9b:63:5e:06:75:ca:a8:
                    d8:c3:a3:f5:58:c4:a6:75:d9:eb:5b:98:28:af:53:
                    b2:90:19:2e:c7:9e:27:4b:af:14:37:5c:01:80:a7:
                    cf:a5
                Exponent: 65537 (0x10001)
        X509v3 extensions:
            X509v3 Subject Key Identifier: 
                20:4C:47:30:F6:5A:45:02:75:E7:47:A2:4B:C9:37:18:12:EF:A4:1B
            X509v3 Authority Key Identifier: 
                F7:4F:F3:3B:30:9F:3B:1F:27:4E:C3:C7:A4:7F:0C:FA:A6:40:B6:A1
            X509v3 Key Usage: critical
                Digital Signature, Non Repudiation, Key Encipherment
            X509v3 Extended Key Usage: 
                TLS Web Server Authentication
    Signature Algorithm: sha256WithRSAEncryption
    Signature Value:
        9d:ef:34:5d:83:a4:1a:17:40:1f:a3:72:8f:64:98:98:40:6d:
        e3:00:b8:a7:cd:80:dd:d7:bc:40:77:0d:7d:49:c1:3f:a2:f2:
        9b:02:cf:60:c0:41:ab:bc:79:d9:15:e4:6e:d8:63:b6:8d:6d:
        11:3a:fe:f8:2c:52:f2:8a:b9:f8:2e:70:4a:1a:be:10:b2:6e:
        7e:94:8a:a5:83:8d:aa:aa:6f:76:bb:cc:0d:61:63:cf:1c:7d:
        94:db:cf:06:e0:32:d8:41:4b:f4:e0:60:a1:1a:f4:f1:16:cc:
        77:1b:69:01:14:18:d0:12:9e:0c:d1:b5:94:48:c8:99:df:29:
        2f:dc:46:4e:06:c4:e9:bc:9e:19:12:85:40:d6:71:7f:a0:98:
        ab:6e:80:9e:fa:c9:56:5f:6a:37:51:d0:3e:19:10:5f:32:de:
        29:70:66:aa:08:29:91:35:9f:f9:36:97:c5:6d:72:94:cc:10:
        87:6b:57:c6:7f:e8:21:f1:e6:e8:a5:34:16:13:1f:df:c8:ec:
        6f:d7:56:07:4c:bc:6d:dc:82:b0:23:cc:f3:f5:23:17:8a:d3:
        a8:df:6c:e7:a7:8f:9d:c4:cd:ea:40:e2:fd:17:24:25:2c:3a:
        28:67:66:3f:63:01:a0:da:59:63:37:bb:4e:64:59:df:0a:97:
        5f:79:55:df
-----BEGIN CERTIFICATE-----
MIID/DCCAuSgAwIBAgICEAYwDQYJKoZIhvcNAQELBQAwgYkxCzAJBgNVBAYTAlVT
MRAwDgYDVQQIDAdGbG9yaWRhMRAwDgYDVQQHDAdKdXBpdGVyMQ4wDAYDVQQKDAVa
ZXJvQzEMMAoGA1UECwwDSWNlMRgwFgYDVQQDDA9aZXJvQyBUZXN0IENBIDExHjAc
BgkqhkiG9w0BCQEWD3Rlc3RzQHplcm9jLmNvbTAeFw0yNTA1MjIxNjE2MDhaFw0y
NjA2MjQxNjE2MDhaMIGOMRQwEgYDVQQDDAtsb2NhbGhvc3RYWDELMAkGA1UEBhMC
VVMxEDAOBgNVBAgMB0Zsb3JpZGExEDAOBgNVBAcMB0p1cGl0ZXIxFDASBgNVBAoM
C1plcm9DLCBJbmMuMRAwDgYDVQQLDAdJY2UgQ040MR0wGwYJKoZIhvcNAQkBFg5p
bmZvQHplcm9jLmNvbTCCASIwDQYJKoZIhvcNAQEBBQADggEPADCCAQoCggEBAIfn
nCTqvGpOH9WceBrrnwePhLOcxeWcnU4q4O8B5Vxmbc5dPC5AugfXkNFkk4/Px6VS
1IUPGHCy14G7AMMi9gU9tfz5cq8M1/fLJ73OspV0o0ROeqjZBaLmECrXate2OSSZ
ZC8nf/Bg38fESjK+eJsbCsC1mN0KeDTwJqdUX/H1lpDbaBZFhfawPb1fK1gP+8qA
S3IzCjuawOSvXU36ygmXeg9X/V2nNW2EjzV5sgEIqqqFDJOECP20j95H8q22dUot
DM5ChMOQqgQQMRTkhZ76WmuJ1HzGUAObY14Gdcqo2MOj9VjEpnXZ61uYKK9TspAZ
LseeJ0uvFDdcAYCnz6UCAwEAAaNnMGUwHQYDVR0OBBYEFCBMRzD2WkUCdedHokvJ
NxgS76QbMB8GA1UdIwQYMBaAFPdP8zswnzsfJ07Dx6R/DPqmQLahMA4GA1UdDwEB
/wQEAwIF4DATBgNVHSUEDDAKBggrBgEFBQcDATANBgkqhkiG9w0BAQsFAAOCAQEA
ne80XYOkGhdAH6Nyj2SYmEBt4wC4p82A3de8QHcNfUnBP6LymwLPYMBBq7x52RXk
bthjto1tETr++CxS8oq5+C5wShq+ELJufpSKpYONqqpvdrvMDWFjzxx9lNvPBuAy
2EFL9OBgoRr08RbMdxtpARQY0BKeDNG1lEjImd8pL9xGTgbE6byeGRKFQNZxf6CY
q26AnvrJVl9qN1HQPhkQXzLeKXBmqggpkTWf+TaXxW1ylMwQh2tXxn/oIfHm6KU0
FhMf38jsb9dWB0y8bdyCsCPM8/UjF4rTqN9s56ePncTN6kDi/RckJSw6KGdmP2MB
oNpZYze7TmRZ3wqXX3lV3w==
-----END CERTIFICATE-----
