Certificate:
    Data:
        Version: 3 (0x2)
        Serial Number: 4100 (0x1004)
        Signature Algorithm: sha256WithRSAEncryption
        Issuer: C=US, ST=Florida, L=Jupiter, O=ZeroC, OU=Ice, CN=ZeroC Test CA 1/emailAddress=tests@zeroc.com
        Validity
            Not Before: May 22 16:16:07 2025 GMT
            Not After : Jun 24 16:16:07 2026 GMT
        Subject: CN=localhost, C=US, ST=Florida, L=Jupiter, O=ZeroC, Inc., OU=Ice CN3/emailAddress=info@zeroc.com
        Subject Public Key Info:
            Public Key Algorithm: rsaEncryption
                Public-Key: (2048 bit)
                Modulus:
                    00:c7:80:63:5a:77:8a:f1:ed:3a:a7:b5:da:75:97:
                    eb:35:d3:e2:86:2f:28:35:9d:74:c7:6c:69:43:21:
                    3b:c3:2c:29:7c:a5:34:fb:91:c6:24:be:8f:49:8b:
                    4e:f7:36:32:84:12:2b:95:6c:c2:b5:94:24:46:b6:
                    c0:b6:b8:98:19:e2:c3:1d:28:30:8c:96:36:07:79:
                    ea:5b:87:ad:7f:bf:73:80:7c:a6:4e:27:69:fc:2d:
                    56:77:fc:3c:aa:a4:8a:07:99:c7:18:53:64:e9:e6:
                    d0:09:5e:68:9c:fa:37:fa:e2:4e:72:65:d1:23:f9:
                    39:f3:3c:71:a6:a8:25:8f:f5:cc:14:00:65:26:ad:
                    e9:96:7a:72:3c:7c:0f:18:0f:7d:a7:70:08:82:5d:
                    bd:fd:a0:ea:7a:cf:ac:b9:f5:be:65:e2:11:28:08:
                    ec:9c:88:1d:4d:88:f2:06:4b:2a:d6:f7:30:ce:f6:
                    28:19:c5:1d:d4:5f:e4:d4:6f:9d:55:b2:95:22:47:
                    a0:2e:3c:6d:ec:c3:52:f9:52:b5:05:e9:3d:b0:4f:
                    ec:03:f4:ff:80:d4:19:51:88:3a:f2:6d:62:0a:24:
                    6a:3d:e9:69:18:5e:f8:c6:c8:bb:42:2f:da:77:c9:
                    42:35:2b:2f:d0:c4:3a:f4:4e:4f:84:0b:b9:e5:39:
                    c3:13
                Exponent: 65537 (0x10001)
        X509v3 extensions:
            X509v3 Subject Key Identifier: 
                CF:67:B7:93:84:11:09:FB:C9:F9:78:F5:64:FB:40:7C:7B:8C:F6:2E
            X509v3 Authority Key Identifier: 
                F7:4F:F3:3B:30:9F:3B:1F:27:4E:C3:C7:A4:7F:0C:FA:A6:40:B6:A1
            X509v3 Key Usage: critical
                Digital Signature, Non Repudiation, Key Encipherment
            X509v3 Extended Key Usage: 
                TLS Web Server Authentication
    Signature Algorithm: sha256WithRSAEncryption
    Signature Value:
        59:21:6e:e6:04:b4:f2:23:b5:00:91:12:f3:9b:3c:e4:59:ea:
        cc:45:1c:43:07:2c:4d:9d:15:a6:36:89:08:b0:b3:61:be:94:
        40:37:73:ee:b1:00:0e:b8:b5:f5:13:0d:3e:64:48:cb:72:80:
        95:30:3f:92:7b:02:ef:8d:b0:88:6e:7b:db:67:6e:4e:14:0e:
        b3:e1:f4:67:a7:47:e5:f4:3c:08:b6:60:4d:5a:47:b2:35:cc:
        e2:77:fc:c2:35:85:ed:bc:10:99:3e:eb:23:9b:e3:9b:98:6f:
        2f:a1:69:83:08:65:39:b6:d0:f6:e2:d4:9a:77:16:17:e3:ee:
        38:13:96:ad:09:d6:0c:0f:54:8a:62:f6:39:c1:4a:a7:f7:4c:
        bc:31:d1:27:5f:8d:65:e2:5d:c4:77:3b:d1:1a:78:c2:d0:d3:
        b8:19:19:32:ce:98:ee:33:1b:f9:32:a4:ec:dd:9f:79:cf:1e:
        ff:3f:e7:f7:1e:a9:25:75:09:ae:ba:93:58:33:ed:8a:76:72:
        f7:a6:78:f9:b7:ee:2c:59:8a:f9:1f:2a:72:b5:d6:fe:9f:9a:
        a7:99:d9:04:3b:20:41:37:f4:5b:7d:13:8c:85:3d:4e:f2:42:
        18:44:a7:3c:ad:28:fb:a6:14:1a:72:4b:24:69:e8:ce:d7:64:
        f2:5d:28:68
-----BEGIN CERTIFICATE-----
MIID+jCCAuKgAwIBAgICEAQwDQYJKoZIhvcNAQELBQAwgYkxCzAJBgNVBAYTAlVT
MRAwDgYDVQQIDAdGbG9yaWRhMRAwDgYDVQQHDAdKdXBpdGVyMQ4wDAYDVQQKDAVa
ZXJvQzEMMAoGA1UECwwDSWNlMRgwFgYDVQQDDA9aZXJvQyBUZXN0IENBIDExHjAc
BgkqhkiG9w0BCQEWD3Rlc3RzQHplcm9jLmNvbTAeFw0yNTA1MjIxNjE2MDdaFw0y
NjA2MjQxNjE2MDdaMIGMMRIwEAYDVQQDDAlsb2NhbGhvc3QxCzAJBgNVBAYTAlVT
MRAwDgYDVQQIDAdGbG9yaWRhMRAwDgYDVQQHDAdKdXBpdGVyMRQwEgYDVQQKDAta
ZXJvQywgSW5jLjEQMA4GA1UECwwHSWNlIENOMzEdMBsGCSqGSIb3DQEJARYOaW5m
b0B6ZXJvYy5jb20wggEiMA0GCSqGSIb3DQEBAQUAA4IBDwAwggEKAoIBAQDHgGNa
d4rx7Tqntdp1l+s10+KGLyg1nXTHbGlDITvDLCl8pTT7kcYkvo9Ji073NjKEEiuV
bMK1lCRGtsC2uJgZ4sMdKDCMljYHeepbh61/v3OAfKZOJ2n8LVZ3/DyqpIoHmccY
U2Tp5tAJXmic+jf64k5yZdEj+TnzPHGmqCWP9cwUAGUmremWenI8fA8YD32ncAiC
Xb39oOp6z6y59b5l4hEoCOyciB1NiPIGSyrW9zDO9igZxR3UX+TUb51VspUiR6Au
PG3sw1L5UrUF6T2wT+wD9P+A1BlRiDrybWIKJGo96WkYXvjGyLtCL9p3yUI1Ky/Q
xDr0Tk+EC7nlOcMTAgMBAAGjZzBlMB0GA1UdDgQWBBTPZ7eThBEJ+8n5ePVk+0B8
e4z2LjAfBgNVHSMEGDAWgBT3T/M7MJ87HydOw8ekfwz6pkC2oTAOBgNVHQ8BAf8E
BAMCBeAwEwYDVR0lBAwwCgYIKwYBBQUHAwEwDQYJKoZIhvcNAQELBQADggEBAFkh
buYEtPIjtQCREvObPORZ6sxFHEMHLE2dFaY2iQiws2G+lEA3c+6xAA64tfUTDT5k
SMtygJUwP5J7Au+NsIhue9tnbk4UDrPh9GenR+X0PAi2YE1aR7I1zOJ3/MI1he28
EJk+6yOb45uYby+haYMIZTm20Pbi1Jp3Fhfj7jgTlq0J1gwPVIpi9jnBSqf3TLwx
0SdfjWXiXcR3O9EaeMLQ07gZGTLOmO4zG/kypOzdn3nPHv8/5/ceqSV1Ca66k1gz
7Yp2cvemePm37ixZivkfKnK11v6fmqeZ2QQ7IEE39Ft9E4yFPU7yQhhEpzytKPum
FBpySyRp6M7XZPJdKGg=
-----END CERTIFICATE-----
