Certificate:
    Data:
        Version: 3 (0x2)
        Serial Number: 4102 (0x1006)
        Signature Algorithm: sha256WithRSAEncryption
        Issuer: C=US, ST=Florida, L=Jupiter, O=ZeroC, OU=Ice, CN=ZeroC Test CA 1/emailAddress=tests@zeroc.com
        Validity
            Not Before: May 22 16:55:12 2025 GMT
            Not After : Jun 24 16:55:12 2026 GMT
        Subject: CN=localhostXX, C=US, ST=Florida, L=Jupiter, O=ZeroC, Inc., OU=Ice CN4/emailAddress=info@zeroc.com
        Subject Public Key Info:
            Public Key Algorithm: rsaEncryption
                Public-Key: (2048 bit)
                Modulus:
                    00:c1:28:03:4b:2b:22:d9:89:9c:88:a0:5d:d7:ad:
                    9f:7f:4e:de:da:65:8c:7c:2a:de:94:eb:0e:a9:03:
                    c7:cb:4c:40:7c:53:c6:89:d0:7f:35:39:dc:a1:33:
                    97:0f:65:3c:8e:bd:7f:9f:73:09:9e:e2:3b:6f:49:
                    1b:78:11:b0:83:13:a0:25:92:1e:be:a5:a6:10:65:
                    bc:40:39:a0:ca:8c:04:b5:98:a2:7a:12:dc:0a:ba:
                    cb:17:0a:7e:5b:eb:74:34:3a:d0:82:53:64:9a:b2:
                    81:dc:d0:5b:16:7c:48:ae:a2:1a:23:07:52:ae:b7:
                    95:6e:09:0d:9f:25:e8:81:dc:ff:cf:2c:ae:7b:c7:
                    6f:66:97:0d:bd:0e:b9:d2:b5:05:df:c1:ed:e3:ad:
                    1e:1c:33:82:88:3d:83:ef:32:44:0f:2c:51:d3:69:
                    83:5e:2f:fe:f3:83:50:1c:a8:a4:99:a2:a6:31:53:
                    12:2f:8b:f8:6d:27:8b:a2:3a:0a:03:42:26:51:c2:
                    6e:4d:62:43:47:1e:c4:ac:8f:f0:07:6f:7c:15:80:
                    ff:1e:82:ec:47:75:16:ff:62:2c:e8:91:1f:72:00:
                    e8:b5:b8:f1:df:c1:a0:d4:d8:44:e3:e4:59:da:fd:
                    36:81:c9:04:d3:d1:e9:4d:05:8e:e8:39:01:09:2c:
                    09:0d
                Exponent: 65537 (0x10001)
        X509v3 extensions:
            X509v3 Subject Key Identifier: 
                00:31:6C:8E:88:04:7C:68:07:5E:05:40:68:2F:FC:0E:6F:79:51:0E
            X509v3 Authority Key Identifier: 
                75:F1:34:2D:9F:C0:A0:4E:71:BB:0C:37:85:8A:88:FC:6D:A2:28:55
            X509v3 Key Usage: critical
                Digital Signature, Non Repudiation, Key Encipherment
            X509v3 Extended Key Usage: 
                TLS Web Server Authentication
    Signature Algorithm: sha256WithRSAEncryption
    Signature Value:
        5f:8d:a5:a3:c3:ce:cc:c6:d1:77:1e:37:58:4e:dc:cb:4a:0d:
        eb:4a:8b:c9:13:7e:94:51:6d:26:58:63:3c:f8:45:96:98:1f:
        33:28:78:39:c5:fa:28:6a:dc:f1:54:f1:5a:fb:94:1e:4b:44:
        88:ab:6f:82:c9:cb:31:d4:0d:ae:45:a0:68:f7:2f:5b:bf:63:
        61:d0:27:9f:d2:23:83:71:a7:51:ba:1b:77:96:02:84:b4:d6:
        ef:8c:c4:ea:69:17:98:99:fc:82:ff:12:db:fe:a3:d4:51:98:
        0d:f4:5d:4e:5d:1b:f8:87:d1:6e:21:c6:1d:02:51:5a:34:a3:
        05:94:ef:91:6f:91:f7:39:80:7f:f9:79:4e:16:34:4b:0e:b7:
        e3:19:79:db:50:8b:9d:40:2c:26:a0:dd:56:88:c3:e5:79:94:
        c9:69:0d:8b:0c:09:53:d5:ef:d5:e0:77:e5:bb:d6:ed:b3:fe:
        2d:49:ab:06:2d:e1:5f:49:f4:a8:05:f0:60:74:f2:9b:58:75:
        32:f1:b5:ee:63:39:f2:cb:fa:94:d7:0f:7e:02:6e:af:13:bf:
        62:fc:05:9f:4d:59:ac:f3:b4:5f:f1:a5:cb:ee:63:07:69:10:
        ce:24:b3:d2:56:62:08:a5:0d:47:8e:07:64:a0:8b:f5:e7:a7:
        ce:80:79:bc
-----BEGIN CERTIFICATE-----
MIID/DCCAuSgAwIBAgICEAYwDQYJKoZIhvcNAQELBQAwgYkxCzAJBgNVBAYTAlVT
MRAwDgYDVQQIDAdGbG9yaWRhMRAwDgYDVQQHDAdKdXBpdGVyMQ4wDAYDVQQKDAVa
ZXJvQzEMMAoGA1UECwwDSWNlMRgwFgYDVQQDDA9aZXJvQyBUZXN0IENBIDExHjAc
BgkqhkiG9w0BCQEWD3Rlc3RzQHplcm9jLmNvbTAeFw0yNTA1MjIxNjU1MTJaFw0y
NjA2MjQxNjU1MTJaMIGOMRQwEgYDVQQDDAtsb2NhbGhvc3RYWDELMAkGA1UEBhMC
VVMxEDAOBgNVBAgMB0Zsb3JpZGExEDAOBgNVBAcMB0p1cGl0ZXIxFDASBgNVBAoM
C1plcm9DLCBJbmMuMRAwDgYDVQQLDAdJY2UgQ040MR0wGwYJKoZIhvcNAQkBFg5p
bmZvQHplcm9jLmNvbTCCASIwDQYJKoZIhvcNAQEBBQADggEPADCCAQoCggEBAMEo
A0srItmJnIigXdetn39O3tpljHwq3pTrDqkDx8tMQHxTxonQfzU53KEzlw9lPI69
f59zCZ7iO29JG3gRsIMToCWSHr6lphBlvEA5oMqMBLWYonoS3Aq6yxcKflvrdDQ6
0IJTZJqygdzQWxZ8SK6iGiMHUq63lW4JDZ8l6IHc/88srnvHb2aXDb0OudK1Bd/B
7eOtHhwzgog9g+8yRA8sUdNpg14v/vODUByopJmipjFTEi+L+G0ni6I6CgNCJlHC
bk1iQ0cexKyP8AdvfBWA/x6C7Ed1Fv9iLOiRH3IA6LW48d/BoNTYROPkWdr9NoHJ
BNPR6U0Fjug5AQksCQ0CAwEAAaNnMGUwHQYDVR0OBBYEFAAxbI6IBHxoB14FQGgv
/A5veVEOMB8GA1UdIwQYMBaAFHXxNC2fwKBOcbsMN4WKiPxtoihVMA4GA1UdDwEB
/wQEAwIF4DATBgNVHSUEDDAKBggrBgEFBQcDATANBgkqhkiG9w0BAQsFAAOCAQEA
X42lo8POzMbRdx43WE7cy0oN60qLyRN+lFFtJlhjPPhFlpgfMyh4OcX6KGrc8VTx
WvuUHktEiKtvgsnLMdQNrkWgaPcvW79jYdAnn9Ijg3GnUbobd5YChLTW74zE6mkX
mJn8gv8S2/6j1FGYDfRdTl0b+IfRbiHGHQJRWjSjBZTvkW+R9zmAf/l5ThY0Sw63
4xl521CLnUAsJqDdVojD5XmUyWkNiwwJU9Xv1eB35bvW7bP+LUmrBi3hX0n0qAXw
YHTym1h1MvG17mM58sv6lNcPfgJurxO/YvwFn01ZrPO0X/Gly+5jB2kQziSz0lZi
CKUNR44HZKCL9eenzoB5vA==
-----END CERTIFICATE-----
