Certificate:
    Data:
        Version: 3 (0x2)
        Serial Number: 4099 (0x1003)
        Signature Algorithm: sha256WithRSAEncryption
        Issuer: C=US, ST=Florida, L=Jupiter, O=ZeroC, OU=Ice, CN=ZeroC Test CA 1/emailAddress=tests@zeroc.com
        Validity
            Not Before: May 22 15:10:12 2025 GMT
            Not After : Jun 24 15:10:12 2026 GMT
        Subject: CN=server, C=US, ST=Florida, L=Jupiter, O=ZeroC, Inc., OU=Ice CN2/emailAddress=info@zeroc.com
        Subject Public Key Info:
            Public Key Algorithm: rsaEncryption
                Public-Key: (2048 bit)
                Modulus:
                    00:b3:bb:e7:18:e8:b1:c0:4f:c6:8f:46:4c:b0:2e:
                    c6:36:0e:dd:38:8f:06:00:f6:40:1e:d5:74:01:62:
                    50:97:03:a6:36:88:2c:04:e8:8c:a1:d0:65:e2:d7:
                    8a:0e:3d:cb:13:47:80:27:9b:c0:cf:7c:9b:05:45:
                    fd:92:ee:5f:17:ec:cc:a4:42:51:f6:2c:2e:e3:08:
                    d4:6d:eb:5e:cf:54:cc:1a:05:73:45:b5:85:96:e7:
                    5b:5f:7b:de:ac:28:8b:61:d9:b7:4e:d7:38:be:fc:
                    d0:ad:07:7f:bc:66:2e:db:7c:66:af:fe:bc:8b:3e:
                    c5:00:73:86:48:8f:05:84:ca:1e:62:8c:0a:be:15:
                    fa:90:47:2a:67:39:97:64:d6:58:e7:32:ad:b3:12:
                    e6:8f:43:27:bd:a9:86:14:1c:76:38:11:4c:19:f1:
                    f1:3e:66:97:2b:9b:c7:de:6d:61:31:fd:9b:f9:6f:
                    a6:d3:e2:85:5c:f4:0e:8c:e5:02:c2:28:12:3c:a1:
                    75:27:2d:c4:4a:03:83:be:44:22:ad:33:c1:c7:54:
                    e6:b8:d2:7b:c9:80:5f:4c:0f:67:83:87:e0:57:6f:
                    79:bf:b5:4f:c1:e6:4e:f6:31:84:13:88:45:e0:b7:
                    44:f2:93:f6:ca:11:2d:c1:e1:e1:a6:e1:46:b9:73:
                    5e:df
                Exponent: 65537 (0x10001)
        X509v3 extensions:
            X509v3 Subject Key Identifier: 
                47:A9:0D:1F:86:B4:FA:61:3F:59:82:45:D9:63:4A:97:39:11:6D:35
            X509v3 Authority Key Identifier: 
                DA:FC:2F:0E:65:38:82:A6:37:87:8A:5E:C8:1C:FB:FB:FF:86:78:C5
            X509v3 Key Usage: critical
                Digital Signature, Non Repudiation, Key Encipherment
            X509v3 Extended Key Usage: 
                TLS Web Server Authentication, TLS Web Client Authentication
            X509v3 Subject Alternative Name: 
                DNS:localhostX
    Signature Algorithm: sha256WithRSAEncryption
    Signature Value:
        6e:c4:79:6a:8e:3d:d1:2e:cf:f9:e4:96:e8:72:96:6f:ee:94:
        00:77:bb:23:8c:da:fe:98:6c:2f:4c:13:16:59:71:c0:57:35:
        7b:f0:bd:40:73:12:bc:14:9e:32:88:5c:4a:d0:c7:f1:f9:44:
        27:3e:0a:91:48:c8:e0:94:b1:51:03:0a:ff:a4:c1:72:5f:a0:
        31:68:56:50:bc:e6:ba:8a:19:c2:93:39:c4:02:4a:ed:7e:8a:
        06:12:d4:2f:90:8f:8e:89:35:bf:8d:cb:53:9c:be:2b:b1:29:
        87:b8:e4:ac:a6:b0:07:1e:08:43:a8:30:40:67:6d:df:de:df:
        db:7e:8a:c8:5b:6d:d6:a4:a6:e8:d2:aa:12:1e:49:ed:16:dc:
        32:da:d1:09:b8:ba:94:82:fb:d6:66:ec:63:07:59:8e:c1:06:
        7a:57:0e:27:87:4d:22:53:d4:2e:28:64:41:38:b2:85:24:82:
        38:3d:a0:69:9b:ca:1e:96:b6:e2:45:1c:73:05:80:fe:7d:0b:
        f0:ba:96:ec:2b:bf:2b:30:60:9e:36:75:89:46:72:75:6b:dd:
        79:2d:39:a8:67:e6:1e:19:ec:ad:75:68:48:36:4a:ab:04:dc:
        7f:c7:43:06:94:57:82:0e:f8:00:74:67:c3:b8:66:27:7a:70:
        f9:d1:a4:49
-----BEGIN CERTIFICATE-----
MIIEGjCCAwKgAwIBAgICEAMwDQYJKoZIhvcNAQELBQAwgYkxCzAJBgNVBAYTAlVT
MRAwDgYDVQQIDAdGbG9yaWRhMRAwDgYDVQQHDAdKdXBpdGVyMQ4wDAYDVQQKDAVa
ZXJvQzEMMAoGA1UECwwDSWNlMRgwFgYDVQQDDA9aZXJvQyBUZXN0IENBIDExHjAc
BgkqhkiG9w0BCQEWD3Rlc3RzQHplcm9jLmNvbTAeFw0yNTA1MjIxNTEwMTJaFw0y
NjA2MjQxNTEwMTJaMIGJMQ8wDQYDVQQDDAZzZXJ2ZXIxCzAJBgNVBAYTAlVTMRAw
DgYDVQQIDAdGbG9yaWRhMRAwDgYDVQQHDAdKdXBpdGVyMRQwEgYDVQQKDAtaZXJv
QywgSW5jLjEQMA4GA1UECwwHSWNlIENOMjEdMBsGCSqGSIb3DQEJARYOaW5mb0B6
ZXJvYy5jb20wggEiMA0GCSqGSIb3DQEBAQUAA4IBDwAwggEKAoIBAQCzu+cY6LHA
T8aPRkywLsY2Dt04jwYA9kAe1XQBYlCXA6Y2iCwE6Iyh0GXi14oOPcsTR4Anm8DP
fJsFRf2S7l8X7MykQlH2LC7jCNRt617PVMwaBXNFtYWW51tfe96sKIth2bdO1zi+
/NCtB3+8Zi7bfGav/ryLPsUAc4ZIjwWEyh5ijAq+FfqQRypnOZdk1ljnMq2zEuaP
Qye9qYYUHHY4EUwZ8fE+Zpcrm8febWEx/Zv5b6bT4oVc9A6M5QLCKBI8oXUnLcRK
A4O+RCKtM8HHVOa40nvJgF9MD2eDh+BXb3m/tU/B5k72MYQTiEXgt0Tyk/bKES3B
4eGm4Ua5c17fAgMBAAGjgYkwgYYwHQYDVR0OBBYEFEepDR+GtPphP1mCRdljSpc5
EW01MB8GA1UdIwQYMBaAFNr8Lw5lOIKmN4eKXsgc+/v/hnjFMA4GA1UdDwEB/wQE
AwIF4DAdBgNVHSUEFjAUBggrBgEFBQcDAQYIKwYBBQUHAwIwFQYDVR0RBA4wDIIK
bG9jYWxob3N0WDANBgkqhkiG9w0BAQsFAAOCAQEAbsR5ao490S7P+eSW6HKWb+6U
AHe7I4za/phsL0wTFllxwFc1e/C9QHMSvBSeMohcStDH8flEJz4KkUjI4JSxUQMK
/6TBcl+gMWhWULzmuooZwpM5xAJK7X6KBhLUL5CPjok1v43LU5y+K7Eph7jkrKaw
Bx4IQ6gwQGdt397f236KyFtt1qSm6NKqEh5J7RbcMtrRCbi6lIL71mbsYwdZjsEG
elcOJ4dNIlPULihkQTiyhSSCOD2gaZvKHpa24kUccwWA/n0L8LqW7Cu/KzBgnjZ1
iUZydWvdeS05qGfmHhnsrXVoSDZKqwTcf8dDBpRXgg74AHRnw7hmJ3pw+dGkSQ==
-----END CERTIFICATE-----
