Certificate:
    Data:
        Version: 3 (0x2)
        Serial Number: 4096 (0x1000)
        Signature Algorithm: sha256WithRSAEncryption
        Issuer: CN=CA1 Intermediate 1, C=US, ST=Florida, L=Jupiter, O=ZeroC, OU=Ice/emailAddress=tests@zeroc.com
        Validity
            Not Before: May 22 16:55:07 2025 GMT
            Not After : Jun 24 16:55:07 2026 GMT
        Subject: CN=ZeroC Test Intermediate 2, C=US, ST=Florida, L=Jupiter, O=ZeroC, OU=Ice Test Infrastructure/emailAddress=tests@zeroc.com
        Subject Public Key Info:
            Public Key Algorithm: rsaEncryption
                Public-Key: (2048 bit)
                Modulus:
                    00:c7:ac:1f:f1:27:a6:71:64:cd:cd:4a:1e:9c:70:
                    04:1b:04:00:e1:6d:ff:87:e4:5c:be:ce:ed:d8:06:
                    db:bc:80:af:b1:b6:7f:d1:d7:b4:b5:e7:d0:23:1e:
                    16:97:f8:c3:1c:6e:53:76:69:1e:c2:ec:b6:49:86:
                    5c:55:2a:18:55:cc:3f:b9:34:fb:c9:22:12:f1:13:
                    86:45:64:22:2b:ff:19:10:33:08:62:a4:96:93:5a:
                    76:eb:92:8e:46:9b:55:ce:61:08:93:dd:d4:b1:f9:
                    46:0a:79:76:3e:e0:f0:99:09:2b:1e:89:b9:0a:a8:
                    d9:76:d8:4f:87:ff:e4:76:f1:b7:f9:55:a9:dc:08:
                    8c:8b:38:fd:b8:c7:2c:72:f8:76:04:87:e7:47:a4:
                    5e:37:58:0f:55:3f:9b:d9:cd:6a:5d:7f:07:6d:ca:
                    9b:cd:12:b8:8f:db:f0:dd:74:0d:a5:5e:44:ed:63:
                    fe:ef:e7:e1:39:d0:fe:17:37:cb:c5:c5:09:8b:c0:
                    b9:96:b9:71:8c:9a:01:b0:62:39:03:44:06:0c:51:
                    06:17:2d:48:23:12:b9:d6:b7:b4:6a:0d:cc:f6:e7:
                    96:79:9f:4f:ce:64:7f:98:0f:47:74:cd:9a:01:70:
                    be:96:83:f3:21:6d:4d:8c:6b:ff:b7:e9:a1:d0:d9:
                    e7:b3
                Exponent: 65537 (0x10001)
        X509v3 extensions:
            X509v3 Subject Key Identifier: 
                8C:80:00:C8:B2:CE:46:A7:04:1B:ED:58:D8:03:9D:CC:4E:66:DC:FE
            X509v3 Authority Key Identifier: 
                53:27:F9:58:91:DF:3C:25:B6:77:53:D1:1C:D4:C8:85:E3:A8:3B:F6
            X509v3 Basic Constraints: critical
                CA:TRUE
            X509v3 Key Usage: critical
                Digital Signature, Certificate Sign, CRL Sign
    Signature Algorithm: sha256WithRSAEncryption
    Signature Value:
        df:e5:4c:32:f6:e4:3c:72:c4:2b:c9:cb:1c:cd:bd:e4:ad:4f:
        89:11:65:6c:11:73:6c:f9:e6:f2:dd:08:61:72:c3:12:0f:dc:
        c2:04:9a:84:05:74:1f:63:5d:1c:2d:9c:dc:5a:1f:1c:45:d0:
        a7:28:8a:c5:6e:6c:14:d9:07:c5:b7:35:97:e4:be:8b:6a:d9:
        74:01:c9:3b:8c:dd:8d:9f:22:31:f1:de:37:43:7e:fb:66:e7:
        8d:b0:50:f8:a0:70:3e:b5:a6:61:1d:02:e6:91:d0:63:b5:b4:
        1e:0c:2d:11:a0:19:a4:ea:4f:e6:4b:6d:97:2f:9b:06:ee:51:
        20:dc:26:ba:3a:37:1e:87:8e:a2:cb:f1:33:3f:53:2c:29:20:
        c9:1b:c9:37:6d:2a:c9:3b:f2:6f:0e:1b:03:89:95:49:27:6b:
        cb:43:2f:66:0a:fb:a9:b7:6f:0b:2e:8e:1d:c2:6c:bc:e0:04:
        93:8d:bb:11:b0:55:55:2b:85:34:14:7c:74:91:8a:8d:31:86:
        76:b5:b8:14:4b:c5:b2:e8:d4:b1:ee:11:ef:13:04:20:55:ec:
        08:42:43:07:68:1a:9b:ba:94:d2:b1:31:aa:5f:b9:40:2c:40:
        90:d0:33:b8:27:80:08:30:34:bf:a1:41:9d:22:3f:a7:d1:cc:
        02:04:d3:55
-----BEGIN CERTIFICATE-----
MIIEFDCCAvygAwIBAgICEAAwDQYJKoZIhvcNAQELBQAwgYwxGzAZBgNVBAMMEkNB
MSBJbnRlcm1lZGlhdGUgMTELMAkGA1UEBhMCVVMxEDAOBgNVBAgMB0Zsb3JpZGEx
EDAOBgNVBAcMB0p1cGl0ZXIxDjAMBgNVBAoMBVplcm9DMQwwCgYDVQQLDANJY2Ux
HjAcBgkqhkiG9w0BCQEWD3Rlc3RzQHplcm9jLmNvbTAeFw0yNTA1MjIxNjU1MDda
Fw0yNjA2MjQxNjU1MDdaMIGnMSIwIAYDVQQDDBlaZXJvQyBUZXN0IEludGVybWVk
aWF0ZSAyMQswCQYDVQQGEwJVUzEQMA4GA1UECAwHRmxvcmlkYTEQMA4GA1UEBwwH
SnVwaXRlcjEOMAwGA1UECgwFWmVyb0MxIDAeBgNVBAsMF0ljZSBUZXN0IEluZnJh
c3RydWN0dXJlMR4wHAYJKoZIhvcNAQkBFg90ZXN0c0B6ZXJvYy5jb20wggEiMA0G
CSqGSIb3DQEBAQUAA4IBDwAwggEKAoIBAQDHrB/xJ6ZxZM3NSh6ccAQbBADhbf+H
5Fy+zu3YBtu8gK+xtn/R17S159AjHhaX+MMcblN2aR7C7LZJhlxVKhhVzD+5NPvJ
IhLxE4ZFZCIr/xkQMwhipJaTWnbrko5Gm1XOYQiT3dSx+UYKeXY+4PCZCSseibkK
qNl22E+H/+R28bf5VancCIyLOP24xyxy+HYEh+dHpF43WA9VP5vZzWpdfwdtypvN
EriP2/DddA2lXkTtY/7v5+E50P4XN8vFxQmLwLmWuXGMmgGwYjkDRAYMUQYXLUgj
ErnWt7RqDcz255Z5n0/OZH+YD0d0zZoBcL6Wg/MhbU2Ma/+36aHQ2eezAgMBAAGj
YzBhMB0GA1UdDgQWBBSMgADIss5GpwQb7VjYA53MTmbc/jAfBgNVHSMEGDAWgBRT
J/lYkd88JbZ3U9Ec1MiF46g79jAPBgNVHRMBAf8EBTADAQH/MA4GA1UdDwEB/wQE
AwIBhjANBgkqhkiG9w0BAQsFAAOCAQEA3+VMMvbkPHLEK8nLHM295K1PiRFlbBFz
bPnm8t0IYXLDEg/cwgSahAV0H2NdHC2c3FofHEXQpyiKxW5sFNkHxbc1l+S+i2rZ
dAHJO4zdjZ8iMfHeN0N++2bnjbBQ+KBwPrWmYR0C5pHQY7W0HgwtEaAZpOpP5ktt
ly+bBu5RINwmujo3HoeOosvxMz9TLCkgyRvJN20qyTvybw4bA4mVSSdry0MvZgr7
qbdvCy6OHcJsvOAEk427EbBVVSuFNBR8dJGKjTGGdrW4FEvFsujUse4R7xMEIFXs
CEJDB2gam7qU0rExql+5QCxAkNAzuCeACDA0v6FBnSI/p9HMAgTTVQ==
-----END CERTIFICATE-----
