Certificate:
    Data:
        Version: 3 (0x2)
        Serial Number: 4097 (0x1001)
        Signature Algorithm: sha256WithRSAEncryption
        Issuer: CN=CA1 Intermediate 1, C=US, ST=Florida, L=Jupiter, O=ZeroC, OU=Ice/emailAddress=tests@zeroc.com
        Validity
            Not Before: May 22 16:16:09 2025 GMT
            Not After : Jun 24 16:16:09 2026 GMT
        Subject: CN=Server, C=US, ST=Florida, L=Jupiter, O=ZeroC, Inc., OU=Ice/emailAddress=info@zeroc.com
        Subject Public Key Info:
            Public Key Algorithm: rsaEncryption
                Public-Key: (2048 bit)
                Modulus:
                    00:ce:4a:b8:d7:14:dc:96:8d:af:a3:56:1d:83:b1:
                    98:fe:08:04:21:1a:9b:bc:c3:6e:7b:17:e3:59:0e:
                    04:ce:9e:62:84:09:81:87:e5:31:a5:30:b7:c8:3e:
                    79:0d:72:b9:97:2f:bb:fc:1b:51:bf:56:56:1e:cb:
                    89:ec:11:ec:fa:be:66:d7:89:0f:9a:93:a8:fc:7f:
                    03:88:95:ec:ca:9e:7b:e7:96:ee:1b:db:ff:c5:2f:
                    f7:4d:1e:eb:f0:d9:16:e3:f4:38:b5:51:30:25:21:
                    39:b8:ad:0d:36:b7:78:7b:b3:ab:53:ae:75:10:e9:
                    c1:75:2e:b4:62:f7:12:03:42:19:a6:cc:5f:c0:39:
                    48:0d:56:bb:c2:01:b7:db:79:de:5c:1b:a9:f1:d9:
                    02:74:97:6f:b9:c2:52:6f:54:83:f4:80:04:96:22:
                    c6:82:bb:7a:12:c0:35:5a:02:97:d3:a8:f9:02:aa:
                    1e:12:1e:5c:0f:c4:b0:b1:ed:09:c0:a4:e1:8d:e9:
                    39:39:7a:06:72:72:94:91:fc:ec:12:d1:5e:ad:7d:
                    77:f5:73:02:66:93:05:50:a0:d8:0d:a9:15:a2:b0:
                    9c:bc:e4:55:66:56:6d:ec:b9:69:09:5f:3d:aa:78:
                    0d:32:3d:58:d3:9b:19:0a:01:4a:86:a8:8a:c0:19:
                    e5:73
                Exponent: 65537 (0x10001)
        X509v3 extensions:
            X509v3 Subject Key Identifier: 
                39:71:A7:84:D1:20:16:D8:16:EC:02:23:37:77:72:5B:49:EB:C8:AD
            X509v3 Authority Key Identifier: 
                3E:A6:D8:20:71:88:8F:97:C8:04:15:06:AB:64:F2:19:57:9D:6F:ED
            X509v3 Key Usage: critical
                Digital Signature, Non Repudiation, Key Encipherment
            X509v3 Extended Key Usage: 
                TLS Web Server Authentication
            X509v3 Subject Alternative Name: 
                IP Address:127.0.0.1, DNS:server
    Signature Algorithm: sha256WithRSAEncryption
    Signature Value:
        3e:4e:28:3f:f6:8a:70:3d:34:5b:9d:91:b9:91:d0:7f:9d:3f:
        cc:27:27:6d:40:64:93:e9:ac:ce:c6:6e:b7:b8:59:04:c5:da:
        92:f4:53:23:ae:55:90:01:88:73:71:f7:45:03:8c:a3:26:c9:
        ec:e0:99:fe:06:a6:fc:b0:8a:80:bf:17:c9:dc:5c:0b:79:24:
        14:b1:a9:e9:1f:9b:2b:60:f8:f6:75:3a:48:30:15:b6:fc:bb:
        7a:32:07:71:b0:f6:75:a7:18:c6:c5:c4:24:da:48:68:c2:0f:
        20:52:ee:58:23:b9:d8:ae:dc:d3:56:ee:5f:ec:6a:1f:c8:7d:
        38:5a:bf:bb:28:78:e6:3b:2b:37:cd:2c:9d:de:97:ac:9b:11:
        05:50:83:77:4d:00:9d:ac:c2:af:9f:14:45:a4:ca:2c:e0:98:
        22:1c:27:60:c4:c4:5d:17:c1:6b:af:ca:5d:7f:e3:59:f8:a1:
        f4:6d:68:d2:81:f1:24:d6:6e:a2:9d:6b:3e:15:ab:a5:e7:8f:
        93:3f:31:36:9f:d9:06:f2:e3:dc:10:03:a0:a6:39:b8:ec:e7:
        6c:a8:c4:0f:54:b9:70:05:bf:ca:57:dd:34:6b:0d:29:e8:ab:
        4f:a8:45:26:65:fa:0c:ff:bc:03:0d:cc:5b:c7:3d:ab:10:af:
        77:8f:7e:ba
-----BEGIN CERTIFICATE-----
MIIEEDCCAvigAwIBAgICEAEwDQYJKoZIhvcNAQELBQAwgYwxGzAZBgNVBAMMEkNB
MSBJbnRlcm1lZGlhdGUgMTELMAkGA1UEBhMCVVMxEDAOBgNVBAgMB0Zsb3JpZGEx
EDAOBgNVBAcMB0p1cGl0ZXIxDjAMBgNVBAoMBVplcm9DMQwwCgYDVQQLDANJY2Ux
HjAcBgkqhkiG9w0BCQEWD3Rlc3RzQHplcm9jLmNvbTAeFw0yNTA1MjIxNjE2MDla
Fw0yNjA2MjQxNjE2MDlaMIGFMQ8wDQYDVQQDDAZTZXJ2ZXIxCzAJBgNVBAYTAlVT
MRAwDgYDVQQIDAdGbG9yaWRhMRAwDgYDVQQHDAdKdXBpdGVyMRQwEgYDVQQKDAta
ZXJvQywgSW5jLjEMMAoGA1UECwwDSWNlMR0wGwYJKoZIhvcNAQkBFg5pbmZvQHpl
cm9jLmNvbTCCASIwDQYJKoZIhvcNAQEBBQADggEPADCCAQoCggEBAM5KuNcU3JaN
r6NWHYOxmP4IBCEam7zDbnsX41kOBM6eYoQJgYflMaUwt8g+eQ1yuZcvu/wbUb9W
Vh7LiewR7Pq+ZteJD5qTqPx/A4iV7Mqee+eW7hvb/8Uv900e6/DZFuP0OLVRMCUh
ObitDTa3eHuzq1OudRDpwXUutGL3EgNCGabMX8A5SA1Wu8IBt9t53lwbqfHZAnSX
b7nCUm9Ug/SABJYixoK7ehLANVoCl9Oo+QKqHhIeXA/EsLHtCcCk4Y3pOTl6BnJy
lJH87BLRXq19d/VzAmaTBVCg2A2pFaKwnLzkVWZWbey5aQlfPap4DTI9WNObGQoB
SoaoisAZ5XMCAwEAAaOBgDB+MB0GA1UdDgQWBBQ5caeE0SAW2BbsAiM3d3JbSevI
rTAfBgNVHSMEGDAWgBQ+ptggcYiPl8gEFQarZPIZV51v7TAOBgNVHQ8BAf8EBAMC
BeAwEwYDVR0lBAwwCgYIKwYBBQUHAwEwFwYDVR0RBBAwDocEfwAAAYIGc2VydmVy
MA0GCSqGSIb3DQEBCwUAA4IBAQA+Tig/9opwPTRbnZG5kdB/nT/MJydtQGST6azO
xm63uFkExdqS9FMjrlWQAYhzcfdFA4yjJsns4Jn+Bqb8sIqAvxfJ3FwLeSQUsanp
H5srYPj2dTpIMBW2/Lt6MgdxsPZ1pxjGxcQk2khowg8gUu5YI7nYrtzTVu5f7Gof
yH04Wr+7KHjmOys3zSyd3pesmxEFUIN3TQCdrMKvnxRFpMos4JgiHCdgxMRdF8Fr
r8pdf+NZ+KH0bWjSgfEk1m6inWs+Faul54+TPzE2n9kG8uPcEAOgpjm47OdsqMQP
VLlwBb/KV900aw0p6KtPqEUmZfoM/7wDDcxbxz2rEK93j366
-----END CERTIFICATE-----
