Certificate:
    Data:
        Version: 3 (0x2)
        Serial Number: 4097 (0x1001)
        Signature Algorithm: sha256WithRSAEncryption
        Issuer: CN=CA1 Intermediate 1, C=US, ST=Florida, L=Jupiter, O=ZeroC, OU=Ice/emailAddress=tests@zeroc.com
        Validity
            Not Before: May 22 15:10:15 2025 GMT
            Not After : Jun 24 15:10:15 2026 GMT
        Subject: CN=Server, C=US, ST=Florida, L=Jupiter, O=ZeroC, Inc., OU=Ice/emailAddress=info@zeroc.com
        Subject Public Key Info:
            Public Key Algorithm: rsaEncryption
                Public-Key: (2048 bit)
                Modulus:
                    00:d8:60:05:97:c7:41:0c:20:8c:0a:71:b0:fa:20:
                    1a:9c:90:bc:10:e8:4f:8c:ac:50:43:65:5d:ad:a9:
                    83:f4:40:aa:ca:f9:29:49:f2:a8:7f:16:ea:4a:6d:
                    71:71:3a:33:a0:e2:06:fa:47:3d:72:16:41:45:fb:
                    8e:10:f0:2c:f0:ef:57:f0:c4:4f:87:79:50:33:ef:
                    ce:5b:eb:c5:01:72:34:de:af:77:76:0f:4c:89:b0:
                    a2:92:bc:c0:0a:ac:fa:56:76:27:7a:de:8b:20:c9:
                    92:13:f4:65:4e:ea:fe:06:fb:48:96:04:d2:03:80:
                    e4:ca:b9:97:eb:81:6b:8c:c3:0a:cb:2f:60:ed:61:
                    1d:91:25:63:3f:61:91:3d:49:48:b4:1b:e7:6a:a9:
                    78:c7:69:1a:6b:74:dd:4d:54:33:bd:df:22:1e:ad:
                    04:6c:0c:1f:49:04:13:7a:45:a5:5b:22:00:56:b3:
                    ca:da:a9:f8:f3:e5:d1:23:01:b8:45:e6:cf:5b:2b:
                    e1:0c:62:41:bd:89:fc:d4:3d:05:07:29:a6:7f:49:
                    a4:a0:aa:cb:c5:ae:ab:e0:30:d0:33:b0:e5:18:86:
                    4a:7e:60:43:73:84:4d:b8:2a:61:b8:9e:10:6d:40:
                    e8:7d:66:24:8b:b0:80:9d:d7:98:37:ac:85:26:d4:
                    54:49
                Exponent: 65537 (0x10001)
        X509v3 extensions:
            X509v3 Subject Key Identifier: 
                61:6E:3D:8A:A2:D2:36:06:34:8A:6A:A7:98:26:56:DD:86:00:43:CA
            X509v3 Authority Key Identifier: 
                75:99:76:0B:CD:A2:5A:E9:49:99:26:CB:7C:FA:F3:DD:9A:17:E3:BE
            X509v3 Key Usage: critical
                Digital Signature, Non Repudiation, Key Encipherment
            X509v3 Extended Key Usage: 
                TLS Web Server Authentication
            X509v3 Subject Alternative Name: 
                IP Address:127.0.0.1, DNS:server
    Signature Algorithm: sha256WithRSAEncryption
    Signature Value:
        32:a7:1c:73:96:e9:7e:63:bf:33:37:8c:dd:2d:da:4b:19:a5:
        85:c5:c6:21:a3:b9:a4:07:56:4d:58:ec:00:e0:0f:99:85:71:
        6e:74:24:7a:d4:66:0f:19:ed:5f:1d:24:c2:a7:74:e3:12:a5:
        76:60:d1:cf:6a:7e:52:23:84:b2:3a:cc:ee:9d:ae:0e:00:1a:
        0f:07:f3:01:db:4d:ae:48:df:7d:68:37:41:64:77:ca:6f:01:
        37:67:d0:c7:6d:3a:be:7c:67:08:e1:0c:d6:94:ed:cc:88:8a:
        5c:eb:39:ea:0f:be:7a:dd:57:ee:19:c5:ab:bd:04:2d:26:9a:
        56:c3:6f:b2:af:cf:b1:c0:88:31:c5:58:1d:f8:d6:26:8a:98:
        35:10:00:65:c5:cd:84:65:eb:00:2c:f1:20:f1:39:4c:d6:9d:
        85:f1:ac:8a:37:bf:98:58:a3:50:b4:2e:c1:8a:4f:28:ac:bb:
        d9:5e:be:9f:3f:b3:f0:cd:da:7f:c5:51:ae:d9:32:7e:81:69:
        7a:ac:f9:a9:2c:67:6f:c9:de:bc:b8:11:ce:e3:dc:4e:08:84:
        8b:26:15:43:20:cd:f5:b3:11:5e:b2:f1:42:d4:38:15:5b:5c:
        b4:c1:a2:cb:a4:42:20:d2:32:21:40:6f:60:f5:c9:96:6f:33:
        6e:b9:58:16
-----BEGIN CERTIFICATE-----
MIIEEDCCAvigAwIBAgICEAEwDQYJKoZIhvcNAQELBQAwgYwxGzAZBgNVBAMMEkNB
MSBJbnRlcm1lZGlhdGUgMTELMAkGA1UEBhMCVVMxEDAOBgNVBAgMB0Zsb3JpZGEx
EDAOBgNVBAcMB0p1cGl0ZXIxDjAMBgNVBAoMBVplcm9DMQwwCgYDVQQLDANJY2Ux
HjAcBgkqhkiG9w0BCQEWD3Rlc3RzQHplcm9jLmNvbTAeFw0yNTA1MjIxNTEwMTVa
Fw0yNjA2MjQxNTEwMTVaMIGFMQ8wDQYDVQQDDAZTZXJ2ZXIxCzAJBgNVBAYTAlVT
MRAwDgYDVQQIDAdGbG9yaWRhMRAwDgYDVQQHDAdKdXBpdGVyMRQwEgYDVQQKDAta
ZXJvQywgSW5jLjEMMAoGA1UECwwDSWNlMR0wGwYJKoZIhvcNAQkBFg5pbmZvQHpl
cm9jLmNvbTCCASIwDQYJKoZIhvcNAQEBBQADggEPADCCAQoCggEBANhgBZfHQQwg
jApxsPogGpyQvBDoT4ysUENlXa2pg/RAqsr5KUnyqH8W6kptcXE6M6DiBvpHPXIW
QUX7jhDwLPDvV/DET4d5UDPvzlvrxQFyNN6vd3YPTImwopK8wAqs+lZ2J3reiyDJ
khP0ZU7q/gb7SJYE0gOA5Mq5l+uBa4zDCssvYO1hHZElYz9hkT1JSLQb52qpeMdp
Gmt03U1UM73fIh6tBGwMH0kEE3pFpVsiAFazytqp+PPl0SMBuEXmz1sr4QxiQb2J
/NQ9BQcppn9JpKCqy8Wuq+Aw0DOw5RiGSn5gQ3OETbgqYbieEG1A6H1mJIuwgJ3X
mDeshSbUVEkCAwEAAaOBgDB+MB0GA1UdDgQWBBRhbj2KotI2BjSKaqeYJlbdhgBD
yjAfBgNVHSMEGDAWgBR1mXYLzaJa6UmZJst8+vPdmhfjvjAOBgNVHQ8BAf8EBAMC
BeAwEwYDVR0lBAwwCgYIKwYBBQUHAwEwFwYDVR0RBBAwDocEfwAAAYIGc2VydmVy
MA0GCSqGSIb3DQEBCwUAA4IBAQAypxxzlul+Y78zN4zdLdpLGaWFxcYho7mkB1ZN
WOwA4A+ZhXFudCR61GYPGe1fHSTCp3TjEqV2YNHPan5SI4SyOszuna4OABoPB/MB
202uSN99aDdBZHfKbwE3Z9DHbTq+fGcI4QzWlO3MiIpc6znqD7563VfuGcWrvQQt
JppWw2+yr8+xwIgxxVgd+NYmipg1EABlxc2EZesALPEg8TlM1p2F8ayKN7+YWKNQ
tC7Bik8orLvZXr6fP7Pwzdp/xVGu2TJ+gWl6rPmpLGdvyd68uBHO49xOCISLJhVD
IM31sxFesvFC1DgVW1y0waLLpEIg0jIhQG9g9cmWbzNuuVgW
-----END CERTIFICATE-----
