Certificate:
    Data:
        Version: 3 (0x2)
        Serial Number: 4096 (0x1000)
        Signature Algorithm: sha256WithRSAEncryption
        Issuer: CN=CA1 Intermediate 5 (Not Yet), C=US, ST=Florida, L=Jupiter, O=ZeroC, OU=Ice/emailAddress=tests@zeroc.com
        Validity
            Not Before: Jun 25 16:55:10 2026 GMT
            Not After : Jul 28 16:55:10 2027 GMT
        Subject: CN=Client, C=US, ST=Florida, L=Jupiter, O=ZeroC, Inc., OU=Ice/emailAddress=info@zeroc.com
        Subject Public Key Info:
            Public Key Algorithm: rsaEncryption
                Public-Key: (2048 bit)
                Modulus:
                    00:b7:f4:f5:a6:9b:f0:6b:33:37:89:4d:6c:23:41:
                    cb:b5:b3:c2:dd:5f:9a:f9:ab:ee:6e:a4:b5:64:d6:
                    fe:bb:81:a6:18:11:70:07:03:cf:0b:97:b8:b8:c6:
                    86:16:9c:d3:c7:3b:c0:1c:bc:2b:b7:1b:36:76:0c:
                    70:0d:61:5d:36:aa:6d:14:4c:18:d5:58:2a:d2:49:
                    df:ff:7a:a3:d9:dc:d6:f1:f8:69:7e:d9:05:75:fd:
                    97:f4:32:ae:0b:f8:a3:43:a7:47:71:be:08:08:56:
                    cc:25:a8:2c:99:24:cf:2d:57:bb:d1:76:2e:d6:0f:
                    fb:db:49:f4:ff:d9:ad:a4:96:f3:77:35:74:d7:98:
                    24:39:ad:ee:50:32:e3:20:6d:b1:a3:67:43:5c:04:
                    02:67:b2:c2:9c:2e:97:f6:e8:84:70:b6:7b:bf:02:
                    07:cf:30:25:f9:ea:f0:f6:fc:08:de:e0:34:18:c1:
                    6e:26:22:e0:70:2a:c8:6c:65:9b:b3:f9:37:00:ab:
                    8f:a8:32:0e:83:aa:aa:e6:19:7e:f7:ca:d6:97:88:
                    70:57:9c:b2:ed:49:6f:01:b5:6c:de:0e:54:ce:cb:
                    95:48:9e:3d:2b:c2:01:6b:88:21:76:28:05:02:c9:
                    8c:1b:58:4f:36:b3:fd:3e:32:cb:b4:76:a7:67:a2:
                    9e:ed
                Exponent: 65537 (0x10001)
        X509v3 extensions:
            X509v3 Subject Key Identifier: 
                79:EC:A3:86:89:19:10:A7:40:3E:69:B4:C1:F1:1D:34:E9:7D:3C:22
            X509v3 Authority Key Identifier: 
                E2:F2:8F:CA:5A:F7:21:4A:56:5F:59:51:5A:52:10:E0:E2:55:A5:0D
            X509v3 Key Usage: critical
                Digital Signature, Non Repudiation, Key Encipherment
            X509v3 Extended Key Usage: 
                TLS Web Client Authentication
            X509v3 Subject Alternative Name: 
                IP Address:127.0.0.1, DNS:client
    Signature Algorithm: sha256WithRSAEncryption
    Signature Value:
        b9:3d:5a:6d:66:95:77:2a:12:d4:47:24:50:9b:0d:e4:29:9a:
        63:ae:03:62:5f:b3:85:f2:ab:2d:6b:c7:40:0f:59:82:1e:44:
        ae:4f:23:61:8f:53:53:21:6f:95:8d:8a:0a:54:77:6b:e7:bb:
        41:37:75:60:b7:e0:e2:a8:1e:aa:d5:dd:bc:ff:f1:ec:33:84:
        f0:c2:de:47:be:1d:a3:11:8b:b3:d7:e6:55:d7:ad:bb:52:97:
        b5:fe:44:8c:67:97:44:28:f3:e6:97:12:18:50:07:6c:57:62:
        0d:19:1b:a3:4b:79:34:b9:27:f6:a2:ea:f1:b0:e2:bc:6f:4d:
        20:a0:c1:51:1e:4d:22:c2:d6:6c:7c:41:14:a9:f1:be:1c:a8:
        e5:14:40:49:af:ed:45:7b:57:e3:ec:6b:11:b5:2c:a8:df:0c:
        f9:e9:37:d4:56:8e:e0:dc:ce:3a:fa:ca:22:34:59:ab:9d:dd:
        59:a0:2f:b6:d7:4f:9a:ae:7e:26:9a:f1:93:6f:b1:26:c2:63:
        ef:89:e8:f2:02:6e:74:1e:b0:73:4b:7e:e8:b1:e9:35:3d:f0:
        d3:dd:56:e2:76:8e:fa:75:95:5c:75:88:c7:c0:76:d7:e0:ff:
        ac:a9:f8:3a:15:86:d3:85:5e:a6:52:db:76:7c:24:5f:4b:1e:
        58:bb:1f:48
-----BEGIN CERTIFICATE-----
MIIEGjCCAwKgAwIBAgICEAAwDQYJKoZIhvcNAQELBQAwgZYxJTAjBgNVBAMMHENB
MSBJbnRlcm1lZGlhdGUgNSAoTm90IFlldCkxCzAJBgNVBAYTAlVTMRAwDgYDVQQI
DAdGbG9yaWRhMRAwDgYDVQQHDAdKdXBpdGVyMQ4wDAYDVQQKDAVaZXJvQzEMMAoG
A1UECwwDSWNlMR4wHAYJKoZIhvcNAQkBFg90ZXN0c0B6ZXJvYy5jb20wHhcNMjYw
NjI1MTY1NTEwWhcNMjcwNzI4MTY1NTEwWjCBhTEPMA0GA1UEAwwGQ2xpZW50MQsw
CQYDVQQGEwJVUzEQMA4GA1UECAwHRmxvcmlkYTEQMA4GA1UEBwwHSnVwaXRlcjEU
MBIGA1UECgwLWmVyb0MsIEluYy4xDDAKBgNVBAsMA0ljZTEdMBsGCSqGSIb3DQEJ
ARYOaW5mb0B6ZXJvYy5jb20wggEiMA0GCSqGSIb3DQEBAQUAA4IBDwAwggEKAoIB
AQC39PWmm/BrMzeJTWwjQcu1s8LdX5r5q+5upLVk1v67gaYYEXAHA88Ll7i4xoYW
nNPHO8AcvCu3GzZ2DHANYV02qm0UTBjVWCrSSd//eqPZ3Nbx+Gl+2QV1/Zf0Mq4L
+KNDp0dxvggIVswlqCyZJM8tV7vRdi7WD/vbSfT/2a2klvN3NXTXmCQ5re5QMuMg
bbGjZ0NcBAJnssKcLpf26IRwtnu/AgfPMCX56vD2/Aje4DQYwW4mIuBwKshsZZuz
+TcAq4+oMg6DqqrmGX73ytaXiHBXnLLtSW8BtWzeDlTOy5VInj0rwgFriCF2KAUC
yYwbWE82s/0+Msu0dqdnop7tAgMBAAGjgYAwfjAdBgNVHQ4EFgQUeeyjhokZEKdA
Pmm0wfEdNOl9PCIwHwYDVR0jBBgwFoAU4vKPylr3IUpWX1lRWlIQ4OJVpQ0wDgYD
VR0PAQH/BAQDAgXgMBMGA1UdJQQMMAoGCCsGAQUFBwMCMBcGA1UdEQQQMA6HBH8A
AAGCBmNsaWVudDANBgkqhkiG9w0BAQsFAAOCAQEAuT1abWaVdyoS1EckUJsN5Cma
Y64DYl+zhfKrLWvHQA9Zgh5Erk8jYY9TUyFvlY2KClR3a+e7QTd1YLfg4qgeqtXd
vP/x7DOE8MLeR74doxGLs9fmVdetu1KXtf5EjGeXRCjz5pcSGFAHbFdiDRkbo0t5
NLkn9qLq8bDivG9NIKDBUR5NIsLWbHxBFKnxvhyo5RRASa/tRXtX4+xrEbUsqN8M
+ek31FaO4NzOOvrKIjRZq53dWaAvttdPmq5+Jprxk2+xJsJj74no8gJudB6wc0t+
6LHpNT3w091W4naO+nWVXHWIx8B21+D/rKn4OhWG04VeplLbdnwkX0seWLsfSA==
-----END CERTIFICATE-----
