Certificate:
    Data:
        Version: 3 (0x2)
        Serial Number: 4096 (0x1000)
        Signature Algorithm: sha256WithRSAEncryption
        Issuer: C=US, ST=Florida, L=Jupiter, O=ZeroC, OU=Ice, CN=ZeroC Test CA 5/emailAddress=tests@zeroc.com
        Validity
            Not Before: Jun 25 15:10:09 2026 GMT
            Not After : Jul 28 15:10:09 2027 GMT
        Subject: CN=CA1 Intermediate 5 (Not Yet), C=US, ST=Florida, L=Jupiter, O=ZeroC, OU=Ice/emailAddress=tests@zeroc.com
        Subject Public Key Info:
            Public Key Algorithm: rsaEncryption
                Public-Key: (2048 bit)
                Modulus:
                    00:d4:9f:2e:b6:b2:58:c2:c7:0a:55:71:70:9a:af:
                    0c:00:0a:06:f4:e4:a0:8e:e9:c5:ae:5e:ed:a6:23:
                    85:c3:2e:9d:16:06:47:fe:64:f2:ed:ad:dd:3e:63:
                    72:32:38:a9:73:7f:5c:0b:8a:9a:b7:33:6f:aa:4a:
                    b1:16:f3:e3:a6:3c:d8:b7:6f:8b:c4:45:ab:b1:4a:
                    06:a8:84:b3:a6:54:11:0a:8b:da:fb:09:05:16:2b:
                    9e:eb:8c:4d:d1:fa:97:10:c2:c7:7f:a0:52:b9:b0:
                    f8:76:9a:ba:ad:3b:51:cf:4a:3d:e2:5e:99:11:99:
                    ca:b7:b3:b5:7a:0f:31:60:b9:ec:e4:fa:66:b8:f5:
                    60:38:2a:99:20:7a:92:2e:e7:3b:2d:0c:c6:89:d4:
                    e0:4f:39:7c:85:f3:ee:6a:37:0c:2b:d9:0e:d6:56:
                    c1:9a:ee:ee:e7:99:b9:70:c9:50:d3:5a:5c:94:65:
                    62:3a:ff:64:d5:a0:13:c7:bf:0b:0d:45:90:98:13:
                    3d:c9:36:63:91:f2:78:a3:92:c2:a9:7b:22:9c:12:
                    45:5e:b4:4c:4c:25:af:32:c3:c5:59:de:55:20:c3:
                    83:de:68:ba:4f:b7:6d:53:a6:be:9f:e3:10:83:92:
                    5f:57:6d:36:4c:f5:57:01:38:36:60:a6:c7:b4:1f:
                    79:cd
                Exponent: 65537 (0x10001)
        X509v3 extensions:
            X509v3 Subject Key Identifier: 
                14:CB:E2:32:DF:8E:04:8F:F2:DD:35:E2:6D:18:25:93:6B:D1:86:BD
            X509v3 Authority Key Identifier: 
                46:9C:DE:6C:0E:F6:7A:68:36:C8:91:57:D3:47:DE:D9:30:CC:39:48
            X509v3 Basic Constraints: critical
                CA:TRUE
            X509v3 Key Usage: critical
                Digital Signature, Certificate Sign, CRL Sign
    Signature Algorithm: sha256WithRSAEncryption
    Signature Value:
        bc:49:24:67:54:50:99:24:a0:de:7d:13:54:98:9e:d7:5c:b4:
        2b:3f:04:e8:62:1f:c6:bc:50:52:d8:19:e0:eb:2a:e6:fa:db:
        7c:1d:a7:13:78:66:72:fa:9a:8f:bd:19:1e:c4:ff:7d:8a:1e:
        b9:3a:14:1d:6b:79:e7:58:4b:ac:3a:bd:4e:b4:2c:6f:f9:05:
        e6:a1:ad:8a:6e:91:be:2b:6e:61:a6:94:14:a0:61:34:ef:ca:
        d5:1d:31:ba:c4:43:43:a0:32:af:70:1e:52:24:c3:ca:c3:f2:
        68:3b:5e:18:99:43:ca:19:4f:df:29:72:54:c7:a3:66:ab:5f:
        d1:eb:6a:42:84:29:dd:fb:56:04:09:c4:2b:0b:82:6a:05:ca:
        5f:e5:05:d6:26:eb:d2:ed:b3:32:11:a6:e4:de:bf:6e:48:44:
        03:6d:9f:57:52:f2:46:f2:15:be:b1:64:cf:fc:83:82:8f:06:
        e6:d4:37:8d:36:81:89:58:d1:66:94:ea:54:7f:d8:35:8e:bc:
        f1:e3:db:59:a7:2d:85:dc:de:40:f6:a3:f7:d5:50:56:bc:bc:
        d5:7c:b6:3e:d9:07:fb:45:d2:d9:e4:0f:38:93:d6:64:c6:43:
        d1:e7:e0:6a:a8:19:d0:7e:ca:49:94:2a:30:e9:a1:37:22:2a:
        35:78:3a:c4
-----BEGIN CERTIFICATE-----
MIIEADCCAuigAwIBAgICEAAwDQYJKoZIhvcNAQELBQAwgYkxCzAJBgNVBAYTAlVT
MRAwDgYDVQQIDAdGbG9yaWRhMRAwDgYDVQQHDAdKdXBpdGVyMQ4wDAYDVQQKDAVa
ZXJvQzEMMAoGA1UECwwDSWNlMRgwFgYDVQQDDA9aZXJvQyBUZXN0IENBIDUxHjAc
BgkqhkiG9w0BCQEWD3Rlc3RzQHplcm9jLmNvbTAeFw0yNjA2MjUxNTEwMDlaFw0y
NzA3MjgxNTEwMDlaMIGWMSUwIwYDVQQDDBxDQTEgSW50ZXJtZWRpYXRlIDUgKE5v
dCBZZXQpMQswCQYDVQQGEwJVUzEQMA4GA1UECAwHRmxvcmlkYTEQMA4GA1UEBwwH
SnVwaXRlcjEOMAwGA1UECgwFWmVyb0MxDDAKBgNVBAsMA0ljZTEeMBwGCSqGSIb3
DQEJARYPdGVzdHNAemVyb2MuY29tMIIBIjANBgkqhkiG9w0BAQEFAAOCAQ8AMIIB
CgKCAQEA1J8utrJYwscKVXFwmq8MAAoG9OSgjunFrl7tpiOFwy6dFgZH/mTy7a3d
PmNyMjipc39cC4qatzNvqkqxFvPjpjzYt2+LxEWrsUoGqISzplQRCova+wkFFiue
64xN0fqXEMLHf6BSubD4dpq6rTtRz0o94l6ZEZnKt7O1eg8xYLns5PpmuPVgOCqZ
IHqSLuc7LQzGidTgTzl8hfPuajcMK9kO1lbBmu7u55m5cMlQ01pclGViOv9k1aAT
x78LDUWQmBM9yTZjkfJ4o5LCqXsinBJFXrRMTCWvMsPFWd5VIMOD3mi6T7dtU6a+
n+MQg5JfV202TPVXATg2YKbHtB95zQIDAQABo2MwYTAdBgNVHQ4EFgQUFMviMt+O
BI/y3TXibRglk2vRhr0wHwYDVR0jBBgwFoAURpzebA72emg2yJFX00fe2TDMOUgw
DwYDVR0TAQH/BAUwAwEB/zAOBgNVHQ8BAf8EBAMCAYYwDQYJKoZIhvcNAQELBQAD
ggEBALxJJGdUUJkkoN59E1SYntdctCs/BOhiH8a8UFLYGeDrKub623wdpxN4ZnL6
mo+9GR7E/32KHrk6FB1reedYS6w6vU60LG/5BeahrYpukb4rbmGmlBSgYTTvytUd
MbrEQ0OgMq9wHlIkw8rD8mg7XhiZQ8oZT98pclTHo2arX9HrakKEKd37VgQJxCsL
gmoFyl/lBdYm69LtszIRpuTev25IRANtn1dS8kbyFb6xZM/8g4KPBubUN402gYlY
0WaU6lR/2DWOvPHj21mnLYXc3kD2o/fVUFa8vNV8tj7ZB/tF0tnkDziT1mTGQ9Hn
4GqoGdB+ykmUKjDpoTciKjV4OsQ=
-----END CERTIFICATE-----
