Certificate:
    Data:
        Version: 3 (0x2)
        Serial Number: 4097 (0x1001)
        Signature Algorithm: sha256WithRSAEncryption
        Issuer: CN=CA1 Intermediate 5 (Not Yet), C=US, ST=Florida, L=Jupiter, O=ZeroC, OU=Ice/emailAddress=tests@zeroc.com
        Validity
            Not Before: Jun 25 16:16:12 2026 GMT
            Not After : Jul 28 16:16:12 2027 GMT
        Subject: CN=Server, C=US, ST=Florida, L=Jupiter, O=ZeroC, Inc., OU=Ice/emailAddress=info@zeroc.com
        Subject Public Key Info:
            Public Key Algorithm: rsaEncryption
                Public-Key: (2048 bit)
                Modulus:
                    00:86:27:ad:38:74:c3:14:54:8f:a2:fe:c4:c0:c7:
                    3e:4c:90:9d:b9:aa:a1:07:cb:a0:7c:4f:7f:bf:07:
                    e9:06:80:c4:a3:dd:93:08:f3:f0:54:1a:6f:32:1f:
                    00:08:29:1a:60:da:2c:a7:e9:2b:f6:14:49:d8:95:
                    20:ff:63:84:4d:14:b8:5a:c2:f2:c0:23:79:83:ad:
                    e0:69:77:a7:27:e7:1d:26:f7:98:04:ef:2c:e0:fa:
                    52:4e:74:5c:e3:af:66:2f:14:6a:69:92:33:16:d9:
                    5a:ab:9d:c6:99:52:b0:64:5b:7b:13:13:c8:32:96:
                    40:8b:fb:80:16:5f:3e:0f:d5:ee:8c:69:f4:45:fe:
                    a9:c4:e5:31:c2:a8:72:a7:37:36:f3:39:6c:12:01:
                    94:7a:83:5b:75:ff:13:86:15:10:b5:f8:11:57:9c:
                    0c:b4:92:5e:3b:8d:33:0e:05:c1:52:f9:61:14:b5:
                    db:b9:34:21:22:c0:3a:ae:63:61:f9:8c:72:e6:33:
                    1b:63:77:89:f4:2a:ee:0f:d0:67:28:42:02:44:c7:
                    f5:7b:c5:c2:4a:b8:43:36:0a:80:d4:02:65:19:bb:
                    1e:d1:7c:91:34:f5:22:d5:56:ce:c9:54:cc:73:93:
                    f7:4f:c3:10:3d:d3:82:fc:ab:94:7e:04:12:8f:f2:
                    3c:29
                Exponent: 65537 (0x10001)
        X509v3 extensions:
            X509v3 Subject Key Identifier: 
                1C:8A:47:2B:65:D3:9C:6C:06:5A:5D:D0:42:81:3F:73:01:64:22:5C
            X509v3 Authority Key Identifier: 
                40:61:B4:64:B8:1F:A5:0F:91:1F:F1:02:CD:5B:1F:32:1C:2E:16:9F
            X509v3 Key Usage: critical
                Digital Signature, Non Repudiation, Key Encipherment
            X509v3 Extended Key Usage: 
                TLS Web Server Authentication
            X509v3 Subject Alternative Name: 
                IP Address:127.0.0.1, DNS:server
    Signature Algorithm: sha256WithRSAEncryption
    Signature Value:
        53:f5:e4:cf:b5:2f:e2:e8:77:92:fe:71:22:42:8a:39:a6:6d:
        f8:38:65:57:51:9e:a4:26:e4:f8:de:6f:b7:41:d9:56:5e:3f:
        be:24:1a:2a:21:60:11:2d:02:02:02:9d:e7:84:7b:9e:cf:fb:
        38:cf:eb:27:56:91:cd:2b:37:82:8d:4b:1a:4d:24:f6:7d:c5:
        56:45:24:ed:27:06:b0:9e:7f:7c:e1:5f:1e:d9:6a:24:bf:56:
        59:e6:5e:a4:40:64:2b:cf:1f:c9:3a:f9:c9:ce:da:4f:3a:83:
        67:45:de:1a:b1:f7:74:9b:be:d8:bf:69:66:75:f7:3b:9b:be:
        9e:b0:48:b8:ad:e4:14:50:6b:61:52:8f:17:d2:74:61:62:3a:
        ac:68:ba:06:60:5a:88:5d:9b:53:f1:f0:d3:d8:df:8f:03:b0:
        48:c7:40:4e:32:4d:53:14:83:ca:6d:cc:62:8c:a0:e9:f4:e9:
        23:9f:10:15:b7:72:8a:4a:83:94:79:b3:24:79:de:d5:9b:84:
        b0:db:2e:04:21:2f:e8:af:d7:6d:5a:94:e1:07:09:95:02:dc:
        08:f1:34:46:99:39:39:43:7e:3f:8b:e8:f1:ce:23:ba:07:ee:
        70:40:74:cf:73:5a:45:3b:61:da:d1:4d:48:ab:74:b6:5e:28:
        87:d5:93:fa
-----BEGIN CERTIFICATE-----
MIIEGjCCAwKgAwIBAgICEAEwDQYJKoZIhvcNAQELBQAwgZYxJTAjBgNVBAMMHENB
MSBJbnRlcm1lZGlhdGUgNSAoTm90IFlldCkxCzAJBgNVBAYTAlVTMRAwDgYDVQQI
DAdGbG9yaWRhMRAwDgYDVQQHDAdKdXBpdGVyMQ4wDAYDVQQKDAVaZXJvQzEMMAoG
A1UECwwDSWNlMR4wHAYJKoZIhvcNAQkBFg90ZXN0c0B6ZXJvYy5jb20wHhcNMjYw
NjI1MTYxNjEyWhcNMjcwNzI4MTYxNjEyWjCBhTEPMA0GA1UEAwwGU2VydmVyMQsw
CQYDVQQGEwJVUzEQMA4GA1UECAwHRmxvcmlkYTEQMA4GA1UEBwwHSnVwaXRlcjEU
MBIGA1UECgwLWmVyb0MsIEluYy4xDDAKBgNVBAsMA0ljZTEdMBsGCSqGSIb3DQEJ
ARYOaW5mb0B6ZXJvYy5jb20wggEiMA0GCSqGSIb3DQEBAQUAA4IBDwAwggEKAoIB
AQCGJ604dMMUVI+i/sTAxz5MkJ25qqEHy6B8T3+/B+kGgMSj3ZMI8/BUGm8yHwAI
KRpg2iyn6Sv2FEnYlSD/Y4RNFLhawvLAI3mDreBpd6cn5x0m95gE7yzg+lJOdFzj
r2YvFGppkjMW2VqrncaZUrBkW3sTE8gylkCL+4AWXz4P1e6MafRF/qnE5THCqHKn
NzbzOWwSAZR6g1t1/xOGFRC1+BFXnAy0kl47jTMOBcFS+WEUtdu5NCEiwDquY2H5
jHLmMxtjd4n0Ku4P0GcoQgJEx/V7xcJKuEM2CoDUAmUZux7RfJE09SLVVs7JVMxz
k/dPwxA904L8q5R+BBKP8jwpAgMBAAGjgYAwfjAdBgNVHQ4EFgQUHIpHK2XTnGwG
Wl3QQoE/cwFkIlwwHwYDVR0jBBgwFoAUQGG0ZLgfpQ+RH/ECzVsfMhwuFp8wDgYD
VR0PAQH/BAQDAgXgMBMGA1UdJQQMMAoGCCsGAQUFBwMBMBcGA1UdEQQQMA6HBH8A
AAGCBnNlcnZlcjANBgkqhkiG9w0BAQsFAAOCAQEAU/Xkz7Uv4uh3kv5xIkKKOaZt
+DhlV1GepCbk+N5vt0HZVl4/viQaKiFgES0CAgKd54R7ns/7OM/rJ1aRzSs3go1L
Gk0k9n3FVkUk7ScGsJ5/fOFfHtlqJL9WWeZepEBkK88fyTr5yc7aTzqDZ0XeGrH3
dJu+2L9pZnX3O5u+nrBIuK3kFFBrYVKPF9J0YWI6rGi6BmBaiF2bU/Hw09jfjwOw
SMdATjJNUxSDym3MYoyg6fTpI58QFbdyikqDlHmzJHne1ZuEsNsuBCEv6K/XbVqU
4QcJlQLcCPE0Rpk5OUN+P4vo8c4jugfucEB0z3NaRTth2tFNSKt0tl4oh9WT+g==
-----END CERTIFICATE-----
