Certificate:
    Data:
        Version: 3 (0x2)
        Serial Number: 4096 (0x1000)
        Signature Algorithm: sha256WithRSAEncryption
        Issuer: C=US, ST=Florida, L=Jupiter, O=ZeroC, OU=Ice, CN=ZeroC Test CA 4/emailAddress=tests@zeroc.com
        Validity
            Not Before: May 22 15:10:09 2025 GMT
            Not After : Jun 24 15:10:09 2026 GMT
        Subject: CN=ZeroC Test Intermediate 1 CA, C=US, ST=Florida, L=Jupiter, O=ZeroC, OU=Ice Test Infrastructure/emailAddress=tests@zeroc.com
        Subject Public Key Info:
            Public Key Algorithm: rsaEncryption
                Public-Key: (2048 bit)
                Modulus:
                    00:86:10:d9:00:85:55:84:ff:e2:f5:0a:1e:6b:d0:
                    b4:8c:76:9a:a0:0c:1a:78:2c:8a:c8:75:99:d3:7a:
                    5b:cc:fe:ed:c2:ef:ed:34:cc:04:b4:fb:20:5b:cb:
                    46:51:c5:83:52:22:44:b6:11:e4:0b:85:88:fc:78:
                    60:7a:8e:69:ba:43:51:60:6f:0d:0a:5e:d3:49:5f:
                    93:ff:e7:46:b8:e5:af:e8:4c:97:22:f8:f3:2f:81:
                    81:1e:7b:f9:50:83:50:e0:2b:5c:55:bd:92:f1:68:
                    1a:a7:5a:56:c4:f0:ab:4c:38:ab:61:8f:f6:2f:ac:
                    f9:bc:2b:c5:28:b9:68:6e:e5:d1:ef:84:ee:9b:4b:
                    93:5f:13:62:ce:f3:c2:90:02:d0:9e:1f:04:45:0b:
                    d8:1f:2a:58:71:0c:6a:2e:22:70:27:6b:81:cd:8c:
                    93:6b:da:6c:fc:68:b2:41:0c:41:89:7d:eb:0a:46:
                    6d:6b:dd:e8:57:f9:cb:e8:c9:f1:56:d6:6e:ed:1d:
                    43:0c:4d:18:c5:b6:82:95:98:bb:5b:0a:fa:34:6a:
                    f3:fe:fe:35:04:5f:4b:48:01:80:a5:f7:e9:61:26:
                    68:29:bf:fe:11:77:0c:ec:53:23:66:bc:35:45:d6:
                    7e:e4:47:62:c6:a6:2d:e3:3d:1f:bb:db:ff:1a:c2:
                    c2:79
                Exponent: 65537 (0x10001)
        X509v3 extensions:
            X509v3 Subject Key Identifier: 
                89:FF:D8:B6:36:33:3A:ED:9C:B7:8B:0A:A0:6E:EC:35:E1:82:72:3F
            X509v3 Authority Key Identifier: 
                5C:34:EB:EC:38:DC:81:06:10:37:FD:EF:21:2E:D4:E5:1C:F8:CA:37
            X509v3 Basic Constraints: critical
                CA:TRUE
            X509v3 Key Usage: critical
                Digital Signature, Certificate Sign, CRL Sign
            Authority Information Access: 
                OCSP - URI:http://127.0.0.1:20002
                CA Issuers - URI:http://127.0.0.1:20001/ca4/ca4_cert.der
    Signature Algorithm: sha256WithRSAEncryption
    Signature Value:
        a2:54:22:57:7a:3f:a6:b0:00:90:4e:6b:a4:05:bb:ca:5c:6f:
        06:ed:91:fe:ff:b1:dc:7d:45:fa:ea:49:a6:36:8b:fb:ac:68:
        36:5f:24:20:8d:46:61:13:db:ac:e4:0d:54:01:25:a6:ed:6e:
        6e:d0:dc:30:f0:5f:e3:0b:7e:b4:6a:02:32:0d:fc:13:85:9d:
        f9:05:cd:41:04:79:42:63:47:7a:ea:54:22:2d:8c:23:d1:c1:
        aa:31:aa:26:fc:69:18:e2:94:19:32:69:d8:54:84:d0:f8:1c:
        5e:89:08:a3:cf:68:97:3e:71:ae:a5:4f:a3:5e:0a:5a:fd:4a:
        1c:f3:79:cf:01:97:71:3f:8e:05:33:cd:07:d8:0a:29:54:ae:
        43:cd:2e:1f:2f:4a:7e:81:6a:23:05:29:dd:fb:49:e8:0c:fa:
        ec:a4:f7:fb:19:31:12:b4:04:a3:0e:c6:bf:ce:5d:0a:fb:14:
        ce:b7:e4:6d:6a:4c:ba:5c:54:90:a8:26:9c:d6:ce:91:11:eb:
        f3:14:e2:4c:db:e9:45:21:45:9f:5b:71:17:14:4a:64:77:f3:
        93:26:ca:be:6b:33:23:3e:13:9a:63:af:e0:db:e5:04:59:a6:
        b0:b3:60:26:90:f3:92:43:06:b4:8f:58:77:91:5f:6c:28:00:
        91:b7:4b:0f
-----BEGIN CERTIFICATE-----
MIIEfzCCA2egAwIBAgICEAAwDQYJKoZIhvcNAQELBQAwgYkxCzAJBgNVBAYTAlVT
MRAwDgYDVQQIDAdGbG9yaWRhMRAwDgYDVQQHDAdKdXBpdGVyMQ4wDAYDVQQKDAVa
ZXJvQzEMMAoGA1UECwwDSWNlMRgwFgYDVQQDDA9aZXJvQyBUZXN0IENBIDQxHjAc
BgkqhkiG9w0BCQEWD3Rlc3RzQHplcm9jLmNvbTAeFw0yNTA1MjIxNTEwMDlaFw0y
NjA2MjQxNTEwMDlaMIGqMSUwIwYDVQQDDBxaZXJvQyBUZXN0IEludGVybWVkaWF0
ZSAxIENBMQswCQYDVQQGEwJVUzEQMA4GA1UECAwHRmxvcmlkYTEQMA4GA1UEBwwH
SnVwaXRlcjEOMAwGA1UECgwFWmVyb0MxIDAeBgNVBAsMF0ljZSBUZXN0IEluZnJh
c3RydWN0dXJlMR4wHAYJKoZIhvcNAQkBFg90ZXN0c0B6ZXJvYy5jb20wggEiMA0G
CSqGSIb3DQEBAQUAA4IBDwAwggEKAoIBAQCGENkAhVWE/+L1Ch5r0LSMdpqgDBp4
LIrIdZnTelvM/u3C7+00zAS0+yBby0ZRxYNSIkS2EeQLhYj8eGB6jmm6Q1Fgbw0K
XtNJX5P/50a45a/oTJci+PMvgYEee/lQg1DgK1xVvZLxaBqnWlbE8KtMOKthj/Yv
rPm8K8UouWhu5dHvhO6bS5NfE2LO88KQAtCeHwRFC9gfKlhxDGouInAna4HNjJNr
2mz8aLJBDEGJfesKRm1r3ehX+cvoyfFW1m7tHUMMTRjFtoKVmLtbCvo0avP+/jUE
X0tIAYCl9+lhJmgpv/4RdwzsUyNmvDVF1n7kR2LGpi3jPR+72/8awsJ5AgMBAAGj
gc0wgcowHQYDVR0OBBYEFIn/2LY2MzrtnLeLCqBu7DXhgnI/MB8GA1UdIwQYMBaA
FFw06+w43IEGEDf97yEu1OUc+Mo3MA8GA1UdEwEB/wQFMAMBAf8wDgYDVR0PAQH/
BAQDAgGGMGcGCCsGAQUFBwEBBFswWTAiBggrBgEFBQcwAYYWaHR0cDovLzEyNy4w
LjAuMToyMDAwMjAzBggrBgEFBQcwAoYnaHR0cDovLzEyNy4wLjAuMToyMDAwMS9j
YTQvY2E0X2NlcnQuZGVyMA0GCSqGSIb3DQEBCwUAA4IBAQCiVCJXej+msACQTmuk
BbvKXG8G7ZH+/7HcfUX66kmmNov7rGg2XyQgjUZhE9us5A1UASWm7W5u0Nww8F/j
C360agIyDfwThZ35Bc1BBHlCY0d66lQiLYwj0cGqMaom/GkY4pQZMmnYVITQ+Bxe
iQijz2iXPnGupU+jXgpa/Uoc83nPAZdxP44FM80H2AopVK5DzS4fL0p+gWojBSnd
+0noDPrspPf7GTEStASjDsa/zl0K+xTOt+Rtaky6XFSQqCac1s6REevzFOJM2+lF
IUWfW3EXFEpkd/OTJsq+azMjPhOaY6/g2+UEWaaws2AmkPOSQwa0j1h3kV9sKACR
t0sP
-----END CERTIFICATE-----
