Certificate:
    Data:
        Version: 3 (0x2)
        Serial Number: 4096 (0x1000)
        Signature Algorithm: sha256WithRSAEncryption
        Issuer: C=US, ST=Florida, L=Jupiter, O=ZeroC, OU=Ice, CN=ZeroC Test CA 4/emailAddress=tests@zeroc.com
        Validity
            Not Before: May 22 16:16:04 2025 GMT
            Not After : Jun 24 16:16:04 2026 GMT
        Subject: CN=ZeroC Test Intermediate 1 CA, C=US, ST=Florida, L=Jupiter, O=ZeroC, OU=Ice Test Infrastructure/emailAddress=tests@zeroc.com
        Subject Public Key Info:
            Public Key Algorithm: rsaEncryption
                Public-Key: (2048 bit)
                Modulus:
                    00:d6:7b:f4:e2:d8:b1:45:a6:fa:47:4f:d3:36:30:
                    c6:c0:4c:5f:de:b8:a6:69:77:2f:e9:f3:37:3b:f4:
                    51:db:ef:be:5b:c9:22:0c:0c:ba:75:19:ee:0a:e4:
                    8b:d6:e2:00:57:48:80:c7:b9:40:00:d0:14:93:95:
                    2d:84:71:bb:91:9a:06:0f:58:eb:e8:9a:53:66:9e:
                    c5:82:5d:82:cc:ca:b8:0a:35:82:16:20:80:15:61:
                    99:24:01:0a:f8:3c:7c:58:8a:b8:88:99:c1:e6:d1:
                    eb:67:2d:37:e5:eb:eb:ab:05:95:32:ed:c7:6e:88:
                    48:7c:be:35:83:49:c1:ff:e5:eb:77:d8:da:d0:9d:
                    9f:dd:8e:9a:ca:d4:57:e4:be:3e:98:06:c7:62:87:
                    61:a5:b1:2c:2c:01:5b:fd:9e:b1:11:7a:e0:ce:76:
                    ae:97:1e:0f:45:ae:97:6c:28:60:83:0d:de:d0:80:
                    63:d7:33:87:54:d4:df:5e:42:bf:3a:be:46:a2:30:
                    81:92:5f:a7:23:b7:c7:cf:4a:e4:54:94:2b:8b:b1:
                    d9:05:26:33:f7:72:81:5f:cf:56:ec:d2:d7:fe:86:
                    da:5d:68:11:74:0c:3a:b3:7b:d8:ac:89:ab:6f:a0:
                    db:2a:49:5b:74:a2:38:01:5b:75:e4:c5:75:17:36:
                    f7:e3
                Exponent: 65537 (0x10001)
        X509v3 extensions:
            X509v3 Subject Key Identifier: 
                6D:21:CB:82:2F:A9:CA:E0:94:EC:9A:C0:AE:BA:F0:FA:2A:61:40:25
            X509v3 Authority Key Identifier: 
                D2:89:F8:AE:77:32:EB:31:02:06:5D:F5:4C:9F:83:51:76:5D:8C:B3
            X509v3 Basic Constraints: critical
                CA:TRUE
            X509v3 Key Usage: critical
                Digital Signature, Certificate Sign, CRL Sign
            Authority Information Access: 
                OCSP - URI:http://127.0.0.1:20002
                CA Issuers - URI:http://127.0.0.1:20001/ca4/ca4_cert.der
    Signature Algorithm: sha256WithRSAEncryption
    Signature Value:
        73:f6:f7:72:1f:62:1d:fa:4a:aa:72:52:4b:46:e4:db:0f:4e:
        22:42:df:0f:11:2d:ca:d2:5c:dc:47:7b:7f:73:bd:1c:83:ef:
        d2:9c:d5:72:c1:a8:86:72:6a:4b:16:2c:ff:b0:a5:f2:fb:a0:
        cd:31:93:5a:8b:30:11:84:a1:21:48:ae:e9:9c:81:eb:4a:36:
        41:f0:83:0d:5a:c7:c1:40:77:b9:68:8a:db:c8:91:bf:21:73:
        23:27:c8:20:12:59:63:58:60:35:e9:4f:b5:15:d6:32:79:01:
        2a:5a:52:16:54:ae:35:86:41:d5:12:e1:9a:6d:a9:8f:de:50:
        90:6a:08:f9:ad:fd:5b:51:ec:a1:62:7c:1c:65:99:5e:73:b6:
        02:ef:7e:a4:34:31:4b:e4:ab:76:11:3c:05:f1:5d:96:f9:90:
        5c:23:d6:8e:06:45:83:d4:fa:2b:f6:78:d1:eb:b2:eb:cc:18:
        2b:8d:f0:be:37:b3:b7:28:14:b6:e4:33:27:d0:b7:07:fc:2a:
        a9:96:68:68:d5:ed:79:40:3b:5c:fc:dc:90:ab:1d:be:04:5e:
        bc:cc:22:e6:93:5a:00:c5:e2:2c:15:57:2e:51:8f:44:15:79:
        01:4c:68:25:c9:5c:d5:4c:7b:e0:7b:ea:23:33:4f:b4:a5:a6:
        3c:98:4c:8e
-----BEGIN CERTIFICATE-----
MIIEfzCCA2egAwIBAgICEAAwDQYJKoZIhvcNAQELBQAwgYkxCzAJBgNVBAYTAlVT
MRAwDgYDVQQIDAdGbG9yaWRhMRAwDgYDVQQHDAdKdXBpdGVyMQ4wDAYDVQQKDAVa
ZXJvQzEMMAoGA1UECwwDSWNlMRgwFgYDVQQDDA9aZXJvQyBUZXN0IENBIDQxHjAc
BgkqhkiG9w0BCQEWD3Rlc3RzQHplcm9jLmNvbTAeFw0yNTA1MjIxNjE2MDRaFw0y
NjA2MjQxNjE2MDRaMIGqMSUwIwYDVQQDDBxaZXJvQyBUZXN0IEludGVybWVkaWF0
ZSAxIENBMQswCQYDVQQGEwJVUzEQMA4GA1UECAwHRmxvcmlkYTEQMA4GA1UEBwwH
SnVwaXRlcjEOMAwGA1UECgwFWmVyb0MxIDAeBgNVBAsMF0ljZSBUZXN0IEluZnJh
c3RydWN0dXJlMR4wHAYJKoZIhvcNAQkBFg90ZXN0c0B6ZXJvYy5jb20wggEiMA0G
CSqGSIb3DQEBAQUAA4IBDwAwggEKAoIBAQDWe/Ti2LFFpvpHT9M2MMbATF/euKZp
dy/p8zc79FHb775bySIMDLp1Ge4K5IvW4gBXSIDHuUAA0BSTlS2EcbuRmgYPWOvo
mlNmnsWCXYLMyrgKNYIWIIAVYZkkAQr4PHxYiriImcHm0etnLTfl6+urBZUy7cdu
iEh8vjWDScH/5et32NrQnZ/djprK1Ffkvj6YBsdih2GlsSwsAVv9nrEReuDOdq6X
Hg9FrpdsKGCDDd7QgGPXM4dU1N9eQr86vkaiMIGSX6cjt8fPSuRUlCuLsdkFJjP3
coFfz1bs0tf+htpdaBF0DDqze9isiatvoNsqSVt0ojgBW3XkxXUXNvfjAgMBAAGj
gc0wgcowHQYDVR0OBBYEFG0hy4IvqcrglOyawK668PoqYUAlMB8GA1UdIwQYMBaA
FNKJ+K53MusxAgZd9Uyfg1F2XYyzMA8GA1UdEwEB/wQFMAMBAf8wDgYDVR0PAQH/
BAQDAgGGMGcGCCsGAQUFBwEBBFswWTAiBggrBgEFBQcwAYYWaHR0cDovLzEyNy4w
LjAuMToyMDAwMjAzBggrBgEFBQcwAoYnaHR0cDovLzEyNy4wLjAuMToyMDAwMS9j
YTQvY2E0X2NlcnQuZGVyMA0GCSqGSIb3DQEBCwUAA4IBAQBz9vdyH2Id+kqqclJL
RuTbD04iQt8PES3K0lzcR3t/c70cg+/SnNVywaiGcmpLFiz/sKXy+6DNMZNaizAR
hKEhSK7pnIHrSjZB8IMNWsfBQHe5aIrbyJG/IXMjJ8ggElljWGA16U+1FdYyeQEq
WlIWVK41hkHVEuGabamP3lCQagj5rf1bUeyhYnwcZZlec7YC736kNDFL5Kt2ETwF
8V2W+ZBcI9aOBkWD1Por9njR67LrzBgrjfC+N7O3KBS25DMn0LcH/Cqplmho1e15
QDtc/NyQqx2+BF68zCLmk1oAxeIsFVcuUY9EFXkBTGglyVzVTHvge+ojM0+0paY8
mEyO
-----END CERTIFICATE-----
