Certificate:
    Data:
        Version: 3 (0x2)
        Serial Number: 4096 (0x1000)
        Signature Algorithm: sha256WithRSAEncryption
        Issuer: C=US, ST=Florida, L=Jupiter, O=ZeroC, OU=Ice, CN=ZeroC Test CA 4/emailAddress=tests@zeroc.com
        Validity
            Not Before: May 22 16:55:08 2025 GMT
            Not After : Jun 24 16:55:08 2026 GMT
        Subject: CN=ZeroC Test Intermediate 1 CA, C=US, ST=Florida, L=Jupiter, O=ZeroC, OU=Ice Test Infrastructure/emailAddress=tests@zeroc.com
        Subject Public Key Info:
            Public Key Algorithm: rsaEncryption
                Public-Key: (2048 bit)
                Modulus:
                    00:97:a5:b6:ea:3d:04:df:f7:9d:37:a6:b3:cc:27:
                    31:f6:4f:d9:8a:93:bb:a1:37:9c:ed:13:e8:68:5c:
                    f3:66:2a:ef:6d:96:01:b4:8b:66:f7:09:29:0d:ce:
                    c4:90:18:f1:f2:6a:f3:6c:fa:80:ca:ee:b1:3a:46:
                    a6:99:c6:99:d4:e0:a3:26:04:d7:22:cb:a5:1b:aa:
                    c7:a2:36:a8:f5:08:c3:16:93:21:58:9f:20:c0:44:
                    aa:75:cb:60:33:f4:ad:cf:ee:8b:05:09:bc:42:5b:
                    8f:ff:01:72:e7:b1:f7:02:2e:98:ba:df:64:26:3e:
                    e4:e0:f9:3a:a6:8e:bb:2f:3f:5b:b9:e0:62:7b:20:
                    bf:94:a5:3c:1f:e4:2a:99:1b:23:d9:81:02:f2:10:
                    91:25:4c:78:a7:bf:08:fb:e0:e0:f0:c4:93:d7:7e:
                    5d:94:69:b0:c9:e1:50:05:55:0d:32:04:44:f2:6d:
                    db:6d:15:82:79:04:de:e6:8b:75:48:8f:93:5d:24:
                    f9:f8:73:d2:fa:35:e9:fe:8c:4b:b6:f3:62:44:ab:
                    e0:ae:c1:0f:ef:ce:f1:bc:02:08:36:46:b0:ca:d1:
                    ca:78:2e:2f:19:81:e7:cc:b9:79:01:97:5b:c7:37:
                    cf:16:b6:13:33:7d:f6:77:57:2e:03:79:dc:37:d2:
                    46:fd
                Exponent: 65537 (0x10001)
        X509v3 extensions:
            X509v3 Subject Key Identifier: 
                70:04:92:72:48:3A:B7:C6:EF:65:DC:2C:52:9E:E0:53:CA:9A:E5:A8
            X509v3 Authority Key Identifier: 
                28:B7:50:F2:A4:60:A3:FA:AE:00:DE:C5:9F:48:6D:22:B2:24:9C:0F
            X509v3 Basic Constraints: critical
                CA:TRUE
            X509v3 Key Usage: critical
                Digital Signature, Certificate Sign, CRL Sign
            Authority Information Access: 
                OCSP - URI:http://127.0.0.1:20002
                CA Issuers - URI:http://127.0.0.1:20001/ca4/ca4_cert.der
    Signature Algorithm: sha256WithRSAEncryption
    Signature Value:
        4a:57:cc:c9:b3:45:c5:4e:b9:b8:3d:a6:af:c2:a4:24:5d:52:
        bb:ac:e4:c4:96:fd:27:6b:b0:ef:47:f5:be:ae:d3:6c:04:04:
        c9:de:cb:a4:c2:2b:b3:85:36:54:3c:b8:e7:5e:d4:66:6a:3d:
        da:da:3c:9c:70:4e:a5:4f:34:29:ee:80:cc:c2:41:34:66:8e:
        5d:01:5d:8d:4a:eb:a2:c3:50:5f:0f:ee:58:ca:0d:c0:57:3c:
        f7:65:b9:20:bc:b8:dc:08:c5:27:9b:3f:d3:87:7f:2a:ef:13:
        37:6d:1b:cc:48:d2:d9:47:a4:9e:c7:c4:a5:55:5a:27:12:59:
        8e:c8:40:40:42:ef:b1:fc:e1:90:69:14:97:f6:26:1f:67:af:
        66:25:18:f4:fa:a4:9f:35:90:87:a7:f6:6e:b5:f3:34:5d:29:
        a6:cd:8e:50:f1:f5:af:7e:ec:59:de:34:d1:48:9d:e3:92:90:
        e5:a7:c2:85:b3:c9:59:13:87:f5:90:eb:16:94:ac:ee:76:23:
        c2:a9:7c:9d:2d:4a:33:2f:84:72:f6:7d:03:e2:c9:d5:7e:51:
        10:ad:1d:9e:fe:0a:6c:04:b2:85:6a:77:7e:95:bc:19:a2:16:
        da:60:80:de:d0:7e:22:ae:99:b6:78:b6:88:b7:51:5b:3b:de:
        ef:91:de:e6
-----BEGIN CERTIFICATE-----
MIIEfzCCA2egAwIBAgICEAAwDQYJKoZIhvcNAQELBQAwgYkxCzAJBgNVBAYTAlVT
MRAwDgYDVQQIDAdGbG9yaWRhMRAwDgYDVQQHDAdKdXBpdGVyMQ4wDAYDVQQKDAVa
ZXJvQzEMMAoGA1UECwwDSWNlMRgwFgYDVQQDDA9aZXJvQyBUZXN0IENBIDQxHjAc
BgkqhkiG9w0BCQEWD3Rlc3RzQHplcm9jLmNvbTAeFw0yNTA1MjIxNjU1MDhaFw0y
NjA2MjQxNjU1MDhaMIGqMSUwIwYDVQQDDBxaZXJvQyBUZXN0IEludGVybWVkaWF0
ZSAxIENBMQswCQYDVQQGEwJVUzEQMA4GA1UECAwHRmxvcmlkYTEQMA4GA1UEBwwH
SnVwaXRlcjEOMAwGA1UECgwFWmVyb0MxIDAeBgNVBAsMF0ljZSBUZXN0IEluZnJh
c3RydWN0dXJlMR4wHAYJKoZIhvcNAQkBFg90ZXN0c0B6ZXJvYy5jb20wggEiMA0G
CSqGSIb3DQEBAQUAA4IBDwAwggEKAoIBAQCXpbbqPQTf9503prPMJzH2T9mKk7uh
N5ztE+hoXPNmKu9tlgG0i2b3CSkNzsSQGPHyavNs+oDK7rE6RqaZxpnU4KMmBNci
y6UbqseiNqj1CMMWkyFYnyDARKp1y2Az9K3P7osFCbxCW4//AXLnsfcCLpi632Qm
PuTg+TqmjrsvP1u54GJ7IL+UpTwf5CqZGyPZgQLyEJElTHinvwj74ODwxJPXfl2U
abDJ4VAFVQ0yBETybdttFYJ5BN7mi3VIj5NdJPn4c9L6Nen+jEu282JEq+CuwQ/v
zvG8Agg2RrDK0cp4Li8ZgefMuXkBl1vHN88WthMzffZ3Vy4Dedw30kb9AgMBAAGj
gc0wgcowHQYDVR0OBBYEFHAEknJIOrfG72XcLFKe4FPKmuWoMB8GA1UdIwQYMBaA
FCi3UPKkYKP6rgDexZ9IbSKyJJwPMA8GA1UdEwEB/wQFMAMBAf8wDgYDVR0PAQH/
BAQDAgGGMGcGCCsGAQUFBwEBBFswWTAiBggrBgEFBQcwAYYWaHR0cDovLzEyNy4w
LjAuMToyMDAwMjAzBggrBgEFBQcwAoYnaHR0cDovLzEyNy4wLjAuMToyMDAwMS9j
YTQvY2E0X2NlcnQuZGVyMA0GCSqGSIb3DQEBCwUAA4IBAQBKV8zJs0XFTrm4Paav
wqQkXVK7rOTElv0na7DvR/W+rtNsBATJ3sukwiuzhTZUPLjnXtRmaj3a2jyccE6l
TzQp7oDMwkE0Zo5dAV2NSuuiw1BfD+5Yyg3AVzz3ZbkgvLjcCMUnmz/Th38q7xM3
bRvMSNLZR6Sex8SlVVonElmOyEBAQu+x/OGQaRSX9iYfZ69mJRj0+qSfNZCHp/Zu
tfM0XSmmzY5Q8fWvfuxZ3jTRSJ3jkpDlp8KFs8lZE4f1kOsWlKzudiPCqXydLUoz
L4Ry9n0D4snVflEQrR2e/gpsBLKFand+lbwZohbaYIDe0H4irpm2eLaIt1FbO97v
kd7m
-----END CERTIFICATE-----
