Certificate:
    Data:
        Version: 3 (0x2)
        Serial Number: 4097 (0x1001)
        Signature Algorithm: sha256WithRSAEncryption
        Issuer: C=US, ST=Florida, L=Jupiter, O=ZeroC, OU=Ice, CN=ZeroC Test CA 4/emailAddress=tests@zeroc.com
        Validity
            Not Before: May 22 16:55:18 2025 GMT
            Not After : Jun 24 16:55:18 2026 GMT
        Subject: CN=Server Revoked, C=US, ST=Florida, L=Jupiter, O=ZeroC, Inc., OU=Ice/emailAddress=info@zeroc.com
        Subject Public Key Info:
            Public Key Algorithm: rsaEncryption
                Public-Key: (2048 bit)
                Modulus:
                    00:b0:0a:66:7d:fc:7b:13:87:8f:9a:e7:7b:bb:aa:
                    ba:21:48:e1:2d:7f:c3:9d:b1:62:cd:1b:d4:96:9c:
                    1c:88:59:70:7d:96:b8:46:f7:01:9f:c4:15:6a:23:
                    1f:46:fd:ee:b6:33:87:30:42:e6:75:a4:60:a7:ea:
                    ea:80:5f:f6:a3:a6:70:a6:79:99:33:35:3e:12:bb:
                    63:77:2d:8f:01:d2:bb:20:0d:7b:a4:7f:45:c9:9b:
                    ab:19:e5:5d:0e:10:e3:83:19:38:09:6f:fb:b0:23:
                    bd:69:ac:de:a3:04:bf:06:15:fb:7c:4c:52:8c:d5:
                    d5:22:65:29:a2:4b:06:84:a9:d9:57:94:07:72:2a:
                    5b:c0:20:06:e1:14:ad:0f:43:71:df:98:1b:25:53:
                    5c:d6:26:6c:81:7f:17:f8:57:d5:e9:83:e6:c8:b3:
                    4f:27:4b:77:94:7a:21:de:fe:0a:fd:9e:44:e5:e5:
                    32:b8:8c:61:bf:d6:3c:f0:90:5d:e1:e5:99:41:55:
                    b5:60:f4:16:3e:9e:fb:f7:cc:ac:dd:4f:d5:29:95:
                    f5:66:10:a3:6c:61:fd:14:7a:3d:6f:62:f3:31:6d:
                    74:83:52:e3:c1:12:50:af:72:4b:51:3c:83:8e:10:
                    c6:bf:a6:4d:fb:43:87:e6:6e:b6:bc:77:33:ba:e7:
                    dd:dd
                Exponent: 65537 (0x10001)
        X509v3 extensions:
            X509v3 Subject Key Identifier: 
                7D:48:2A:51:52:B1:ED:AE:D3:F8:08:DF:0D:46:A4:A7:B1:B8:0D:8B
            X509v3 Authority Key Identifier: 
                28:B7:50:F2:A4:60:A3:FA:AE:00:DE:C5:9F:48:6D:22:B2:24:9C:0F
            X509v3 Key Usage: critical
                Digital Signature, Non Repudiation, Key Encipherment
            X509v3 Extended Key Usage: 
                TLS Web Client Authentication
            Authority Information Access: 
                OCSP - URI:http://127.0.0.1:20002
                CA Issuers - URI:http://127.0.0.1:20001/ca4/ca4_cert.der
            X509v3 Subject Alternative Name: 
                IP Address:127.0.0.1, DNS:client
    Signature Algorithm: sha256WithRSAEncryption
    Signature Value:
        1d:39:d7:52:92:cf:2b:03:1a:37:41:95:4d:9d:36:39:44:28:
        7a:e8:0d:e9:aa:02:1d:4b:0d:43:c4:60:a4:09:cc:6c:cd:3c:
        4b:9d:5e:21:9f:b4:d6:b9:e0:25:32:de:3d:94:ab:78:8c:a1:
        75:18:8c:d2:24:f2:6c:01:76:b4:a6:21:b7:8e:66:01:42:bc:
        12:63:7b:2d:e4:0a:2f:1e:ee:7a:25:6d:18:35:3d:6e:d8:25:
        fa:2b:95:a9:bd:68:16:64:b7:ce:22:16:24:80:d8:e4:cf:51:
        d3:0c:c0:9d:77:20:f0:66:eb:a9:e8:b0:99:3c:42:7c:42:38:
        74:6f:37:2d:e0:96:31:78:6d:ac:2c:dd:12:f5:c7:35:ef:ae:
        38:72:fb:fe:16:d3:13:3c:be:e6:2e:d2:3e:04:8c:aa:5a:ec:
        e9:1f:88:ee:49:2b:34:9e:ec:fb:fe:97:31:dc:ad:62:77:a7:
        4f:b4:0f:82:2d:03:0d:aa:88:4b:91:5a:82:18:59:b2:5a:18:
        e0:48:06:7d:65:76:06:e0:61:5b:9a:52:1c:35:e4:25:d5:81:
        e6:d1:26:56:3e:11:ad:2b:0b:12:56:73:b5:6e:c1:74:f7:09:
        e1:7f:0e:a1:c9:34:63:18:b4:d4:bf:5f:ec:53:3d:16:38:af:
        c7:9b:88:35
-----BEGIN CERTIFICATE-----
MIIEfzCCA2egAwIBAgICEAEwDQYJKoZIhvcNAQELBQAwgYkxCzAJBgNVBAYTAlVT
MRAwDgYDVQQIDAdGbG9yaWRhMRAwDgYDVQQHDAdKdXBpdGVyMQ4wDAYDVQQKDAVa
ZXJvQzEMMAoGA1UECwwDSWNlMRgwFgYDVQQDDA9aZXJvQyBUZXN0IENBIDQxHjAc
BgkqhkiG9w0BCQEWD3Rlc3RzQHplcm9jLmNvbTAeFw0yNTA1MjIxNjU1MThaFw0y
NjA2MjQxNjU1MThaMIGNMRcwFQYDVQQDDA5TZXJ2ZXIgUmV2b2tlZDELMAkGA1UE
BhMCVVMxEDAOBgNVBAgMB0Zsb3JpZGExEDAOBgNVBAcMB0p1cGl0ZXIxFDASBgNV
BAoMC1plcm9DLCBJbmMuMQwwCgYDVQQLDANJY2UxHTAbBgkqhkiG9w0BCQEWDmlu
Zm9AemVyb2MuY29tMIIBIjANBgkqhkiG9w0BAQEFAAOCAQ8AMIIBCgKCAQEAsApm
ffx7E4ePmud7u6q6IUjhLX/DnbFizRvUlpwciFlwfZa4RvcBn8QVaiMfRv3utjOH
MELmdaRgp+rqgF/2o6ZwpnmZMzU+Ertjdy2PAdK7IA17pH9FyZurGeVdDhDjgxk4
CW/7sCO9aazeowS/BhX7fExSjNXVImUpoksGhKnZV5QHcipbwCAG4RStD0Nx35gb
JVNc1iZsgX8X+FfV6YPmyLNPJ0t3lHoh3v4K/Z5E5eUyuIxhv9Y88JBd4eWZQVW1
YPQWPp7798ys3U/VKZX1ZhCjbGH9FHo9b2LzMW10g1LjwRJQr3JLUTyDjhDGv6ZN
+0OH5m62vHczuufd3QIDAQABo4HqMIHnMB0GA1UdDgQWBBR9SCpRUrHtrtP4CN8N
RqSnsbgNizAfBgNVHSMEGDAWgBQot1DypGCj+q4A3sWfSG0isiScDzAOBgNVHQ8B
Af8EBAMCBeAwEwYDVR0lBAwwCgYIKwYBBQUHAwIwZwYIKwYBBQUHAQEEWzBZMCIG
CCsGAQUFBzABhhZodHRwOi8vMTI3LjAuMC4xOjIwMDAyMDMGCCsGAQUFBzAChido
dHRwOi8vMTI3LjAuMC4xOjIwMDAxL2NhNC9jYTRfY2VydC5kZXIwFwYDVR0RBBAw
DocEfwAAAYIGY2xpZW50MA0GCSqGSIb3DQEBCwUAA4IBAQAdOddSks8rAxo3QZVN
nTY5RCh66A3pqgIdSw1DxGCkCcxszTxLnV4hn7TWueAlMt49lKt4jKF1GIzSJPJs
AXa0piG3jmYBQrwSY3st5AovHu56JW0YNT1u2CX6K5WpvWgWZLfOIhYkgNjkz1HT
DMCddyDwZuup6LCZPEJ8Qjh0bzct4JYxeG2sLN0S9cc17644cvv+FtMTPL7mLtI+
BIyqWuzpH4juSSs0nuz7/pcx3K1id6dPtA+CLQMNqohLkVqCGFmyWhjgSAZ9ZXYG
4GFbmlIcNeQl1YHm0SZWPhGtKwsSVnO1bsF09wnhfw6hyTRjGLTUv1/sUz0WOK/H
m4g1
-----END CERTIFICATE-----
