Certificate:
    Data:
        Version: 3 (0x2)
        Serial Number: 4099 (0x1003)
        Signature Algorithm: sha256WithRSAEncryption
        Issuer: C=US, ST=Florida, L=Jupiter, O=ZeroC, OU=Ice, CN=ZeroC Test CA 4/emailAddress=tests@zeroc.com
        Validity
            Not Before: May 22 16:16:14 2025 GMT
            Not After : Jun 24 16:16:14 2026 GMT
        Subject: CN=Server, C=US, ST=Florida, L=Jupiter, O=ZeroC, Inc., OU=Ice/emailAddress=info@zeroc.com
        Subject Public Key Info:
            Public Key Algorithm: rsaEncryption
                Public-Key: (2048 bit)
                Modulus:
                    00:ae:dc:c9:05:e5:64:b1:95:c0:e0:2f:da:42:c1:
                    49:08:6a:cd:5f:d1:0e:a1:7b:bf:09:77:63:19:d5:
                    1e:af:7c:c3:41:8e:7b:7f:62:ab:aa:90:61:94:f6:
                    b9:cb:68:02:dc:79:04:f6:17:66:4e:57:af:b3:54:
                    bc:93:e5:48:60:65:a1:c5:35:9b:66:60:3f:60:d8:
                    f2:a0:02:2b:86:f9:f6:7c:c8:4a:60:3d:4d:75:f1:
                    fe:5a:8c:e5:78:ae:8c:25:f6:38:1d:9e:3d:6a:a9:
                    9f:00:29:2c:f0:b5:64:fe:d7:a1:45:d8:a4:15:a9:
                    b3:65:61:cd:97:42:46:66:73:97:fc:06:12:84:b6:
                    a8:cd:0a:a0:42:51:43:bb:2d:72:69:5c:37:78:fd:
                    f6:9d:27:e8:7e:a9:60:7a:29:a8:24:c7:fd:18:75:
                    d2:bb:82:ae:df:cc:da:0a:81:49:f8:c4:91:2d:20:
                    50:82:ce:35:5e:0d:b1:a9:77:0e:9e:fc:fd:be:1d:
                    fd:ea:00:52:07:95:34:67:2a:08:bc:48:f1:c6:c3:
                    f9:96:7b:2d:f4:44:b9:77:01:ff:f3:46:ad:a8:a2:
                    50:d9:52:e5:05:47:a1:da:22:36:c2:11:a8:13:d4:
                    57:9c:08:6f:f4:f2:bb:94:44:e9:c4:f1:59:c2:3b:
                    8e:2b
                Exponent: 65537 (0x10001)
        X509v3 extensions:
            X509v3 Subject Key Identifier: 
                53:C2:A8:54:77:DC:CF:EA:FF:8B:60:02:9A:84:E8:14:24:75:25:B8
            X509v3 Authority Key Identifier: 
                D2:89:F8:AE:77:32:EB:31:02:06:5D:F5:4C:9F:83:51:76:5D:8C:B3
            X509v3 Key Usage: critical
                Digital Signature, Non Repudiation, Key Encipherment
            X509v3 Extended Key Usage: 
                TLS Web Server Authentication
            X509v3 Subject Alternative Name: 
                IP Address:127.0.0.1, DNS:server
            Authority Information Access: 
                OCSP - URI:http://127.0.0.1:20002
                CA Issuers - URI:http://127.0.0.1:20001/ca4/ca4_cert.der
    Signature Algorithm: sha256WithRSAEncryption
    Signature Value:
        2e:9e:de:38:94:54:42:33:61:ba:b8:76:2a:c2:21:a1:6f:25:
        94:18:82:9b:a9:76:fd:bf:41:22:a2:62:46:2d:37:e3:30:04:
        9b:a5:f4:23:e3:d8:cd:bc:9b:6d:76:13:2d:4f:f4:12:a8:f6:
        64:94:00:f0:49:52:b3:62:4c:31:03:4b:62:df:17:f9:53:de:
        21:ff:44:fe:f0:82:13:5d:5c:e1:b4:f3:e6:cd:ed:58:82:89:
        d2:8e:d8:e0:d6:e1:46:d2:e3:b7:21:e7:9c:92:89:5e:02:a8:
        61:7b:e1:bf:4e:0b:b8:d4:e7:05:b3:81:de:95:48:34:71:6a:
        17:56:6e:7a:07:f0:2f:ae:13:05:59:b0:14:87:34:d0:df:66:
        d7:00:14:17:a2:fd:5d:5a:b2:ad:51:fe:d9:2a:47:8d:a2:71:
        47:38:f3:ce:bd:0f:b5:fc:35:dd:29:d9:1c:27:88:35:64:a5:
        6d:82:e1:bd:2a:b7:fa:f4:e2:49:b5:0d:21:c6:bf:b6:5b:6f:
        14:89:21:95:e0:12:df:c6:a3:a7:5f:c3:0c:46:68:f2:41:dc:
        f9:6d:fb:4a:33:81:11:07:10:06:b4:de:c0:7f:b0:a0:f8:1a:
        7d:17:88:5b:48:87:9c:72:77:e4:fd:d2:9a:7c:ff:99:a3:56:
        5f:bc:31:bd
-----BEGIN CERTIFICATE-----
MIIEdzCCA1+gAwIBAgICEAMwDQYJKoZIhvcNAQELBQAwgYkxCzAJBgNVBAYTAlVT
MRAwDgYDVQQIDAdGbG9yaWRhMRAwDgYDVQQHDAdKdXBpdGVyMQ4wDAYDVQQKDAVa
ZXJvQzEMMAoGA1UECwwDSWNlMRgwFgYDVQQDDA9aZXJvQyBUZXN0IENBIDQxHjAc
BgkqhkiG9w0BCQEWD3Rlc3RzQHplcm9jLmNvbTAeFw0yNTA1MjIxNjE2MTRaFw0y
NjA2MjQxNjE2MTRaMIGFMQ8wDQYDVQQDDAZTZXJ2ZXIxCzAJBgNVBAYTAlVTMRAw
DgYDVQQIDAdGbG9yaWRhMRAwDgYDVQQHDAdKdXBpdGVyMRQwEgYDVQQKDAtaZXJv
QywgSW5jLjEMMAoGA1UECwwDSWNlMR0wGwYJKoZIhvcNAQkBFg5pbmZvQHplcm9j
LmNvbTCCASIwDQYJKoZIhvcNAQEBBQADggEPADCCAQoCggEBAK7cyQXlZLGVwOAv
2kLBSQhqzV/RDqF7vwl3YxnVHq98w0GOe39iq6qQYZT2uctoAtx5BPYXZk5Xr7NU
vJPlSGBlocU1m2ZgP2DY8qACK4b59nzISmA9TXXx/lqM5XiujCX2OB2ePWqpnwAp
LPC1ZP7XoUXYpBWps2VhzZdCRmZzl/wGEoS2qM0KoEJRQ7stcmlcN3j99p0n6H6p
YHopqCTH/Rh10ruCrt/M2gqBSfjEkS0gUILONV4Nsal3Dp78/b4d/eoAUgeVNGcq
CLxI8cbD+ZZ7LfREuXcB//NGraiiUNlS5QVHodoiNsIRqBPUV5wIb/Tyu5RE6cTx
WcI7jisCAwEAAaOB6jCB5zAdBgNVHQ4EFgQUU8KoVHfcz+r/i2ACmoToFCR1Jbgw
HwYDVR0jBBgwFoAU0on4rncy6zECBl31TJ+DUXZdjLMwDgYDVR0PAQH/BAQDAgXg
MBMGA1UdJQQMMAoGCCsGAQUFBwMBMBcGA1UdEQQQMA6HBH8AAAGCBnNlcnZlcjBn
BggrBgEFBQcBAQRbMFkwIgYIKwYBBQUHMAGGFmh0dHA6Ly8xMjcuMC4wLjE6MjAw
MDIwMwYIKwYBBQUHMAKGJ2h0dHA6Ly8xMjcuMC4wLjE6MjAwMDEvY2E0L2NhNF9j
ZXJ0LmRlcjANBgkqhkiG9w0BAQsFAAOCAQEALp7eOJRUQjNhurh2KsIhoW8llBiC
m6l2/b9BIqJiRi034zAEm6X0I+PYzbybbXYTLU/0Eqj2ZJQA8ElSs2JMMQNLYt8X
+VPeIf9E/vCCE11c4bTz5s3tWIKJ0o7Y4NbhRtLjtyHnnJKJXgKoYXvhv04LuNTn
BbOB3pVINHFqF1ZuegfwL64TBVmwFIc00N9m1wAUF6L9XVqyrVH+2SpHjaJxRzjz
zr0Ptfw13SnZHCeINWSlbYLhvSq3+vTiSbUNIca/tltvFIkhleAS38ajp1/DDEZo
8kHc+W37SjOBEQcQBrTewH+woPgafReIW0iHnHJ35P3Smnz/maNWX7wxvQ==
-----END CERTIFICATE-----
