Certificate:
    Data:
        Version: 3 (0x2)
        Serial Number: 4096 (0x1000)
        Signature Algorithm: sha256WithRSAEncryption
        Issuer: CN=ZeroC Test Intermediate 2, C=US, ST=Florida, L=Jupiter, O=ZeroC, OU=Ice Test Infrastructure/emailAddress=tests@zeroc.com
        Validity
            Not Before: May 22 16:16:05 2025 GMT
            Not After : Jun 24 16:16:05 2026 GMT
        Subject: CN=Client, C=US, ST=Florida, L=Jupiter, O=ZeroC, Inc., OU=Ice/emailAddress=info@zeroc.com
        Subject Public Key Info:
            Public Key Algorithm: rsaEncryption
                Public-Key: (2048 bit)
                Modulus:
                    00:bf:ad:80:c5:33:22:69:37:f4:a7:0c:a1:3d:8a:
                    8f:30:ff:3c:c9:13:2f:fa:c8:6f:cb:92:65:54:08:
                    1b:6e:a1:a1:b0:1e:38:b5:db:24:fe:f9:9a:0b:b4:
                    9b:93:b4:fc:a6:7a:e2:69:0d:fe:87:18:a9:f0:2f:
                    a1:35:e6:9b:97:4f:4b:95:68:49:52:8a:6f:b7:07:
                    3e:4e:92:19:89:99:42:bc:ab:f4:04:45:ed:24:e2:
                    3c:67:0a:0e:63:fe:36:ae:84:d3:86:74:a6:f9:cd:
                    eb:4e:65:cd:f0:3c:01:f2:ad:e1:bb:0b:23:ae:0a:
                    90:0f:24:fc:b6:46:96:b6:3c:0b:d7:40:0d:14:7a:
                    d2:bb:e6:e1:c9:ad:34:e2:6b:71:78:02:29:dc:05:
                    fe:d2:3f:b0:cd:64:f9:c3:9b:3f:25:ae:47:80:0d:
                    2f:80:d3:5f:d1:12:b9:0a:9b:2f:30:f6:d3:f5:d5:
                    0d:90:24:4f:1a:e4:a5:37:59:cc:96:e6:db:3e:b2:
                    59:d7:14:d5:f0:0c:18:52:94:c6:bc:15:36:4a:d7:
                    47:ff:aa:6f:15:67:99:c4:2d:07:2d:ec:e6:9e:43:
                    45:69:a2:39:05:86:99:8b:86:cc:bb:ab:d9:82:67:
                    6b:28:d1:88:1b:4c:c5:56:68:3b:ba:fe:26:b7:41:
                    43:07
                Exponent: 65537 (0x10001)
        X509v3 extensions:
            X509v3 Subject Key Identifier: 
                3C:ED:E4:EB:FE:BD:07:60:79:C0:C6:82:35:2C:F0:98:42:02:D4:AE
            X509v3 Authority Key Identifier: 
                AC:2A:D1:1B:E3:BB:1D:6E:AC:01:D8:CC:17:0D:2E:A0:E2:D4:39:4E
            X509v3 Key Usage: critical
                Digital Signature, Non Repudiation, Key Encipherment
            X509v3 Extended Key Usage: 
                TLS Web Client Authentication
            X509v3 Subject Alternative Name: 
                IP Address:127.0.0.1, DNS:client
    Signature Algorithm: sha256WithRSAEncryption
    Signature Value:
        8a:3d:6c:78:0f:6b:15:36:97:fe:36:e6:c9:69:50:3d:17:4c:
        9e:11:d6:4a:4f:f2:43:7e:0f:b7:eb:2d:71:4d:37:c9:81:e4:
        cb:4e:bd:cd:4d:15:12:4e:72:7a:d2:e4:a1:11:84:ce:df:af:
        c0:56:ab:0c:88:c1:e1:08:e9:c9:99:ec:41:74:18:f9:6b:f6:
        df:19:83:b7:3f:05:d5:22:a1:89:cb:db:8d:19:5e:6c:72:78:
        9e:e3:4c:62:cc:cf:2a:ee:7c:26:19:13:d4:d2:d1:b9:2c:c8:
        1a:b7:35:dd:0a:a9:af:24:7c:b5:5a:57:59:79:f8:5b:d4:43:
        89:27:94:23:25:b6:0c:ff:e2:75:d9:0c:6f:a2:68:98:a9:27:
        c5:3b:e4:b3:d1:f7:c9:75:fd:ab:ad:e1:30:74:ca:26:31:6f:
        a0:f6:82:ad:de:fe:b7:f9:9e:23:ee:eb:85:de:15:4e:72:3c:
        6c:27:81:c6:3d:05:8b:19:ee:88:a0:bc:d2:72:f1:ab:e6:f9:
        c7:e3:35:5e:2e:b1:53:2e:f3:50:80:3c:29:29:38:69:65:ad:
        80:a8:9d:c8:ad:6c:03:3a:12:0c:a7:cb:42:84:9b:bf:7c:e3:
        37:29:53:1c:d6:aa:37:a8:a3:6c:41:b8:e0:90:60:58:f4:a6:
        f7:9f:5f:e1
-----BEGIN CERTIFICATE-----
MIIEKzCCAxOgAwIBAgICEAAwDQYJKoZIhvcNAQELBQAwgacxIjAgBgNVBAMMGVpl
cm9DIFRlc3QgSW50ZXJtZWRpYXRlIDIxCzAJBgNVBAYTAlVTMRAwDgYDVQQIDAdG
bG9yaWRhMRAwDgYDVQQHDAdKdXBpdGVyMQ4wDAYDVQQKDAVaZXJvQzEgMB4GA1UE
CwwXSWNlIFRlc3QgSW5mcmFzdHJ1Y3R1cmUxHjAcBgkqhkiG9w0BCQEWD3Rlc3Rz
QHplcm9jLmNvbTAeFw0yNTA1MjIxNjE2MDVaFw0yNjA2MjQxNjE2MDVaMIGFMQ8w
DQYDVQQDDAZDbGllbnQxCzAJBgNVBAYTAlVTMRAwDgYDVQQIDAdGbG9yaWRhMRAw
DgYDVQQHDAdKdXBpdGVyMRQwEgYDVQQKDAtaZXJvQywgSW5jLjEMMAoGA1UECwwD
SWNlMR0wGwYJKoZIhvcNAQkBFg5pbmZvQHplcm9jLmNvbTCCASIwDQYJKoZIhvcN
AQEBBQADggEPADCCAQoCggEBAL+tgMUzImk39KcMoT2KjzD/PMkTL/rIb8uSZVQI
G26hobAeOLXbJP75mgu0m5O0/KZ64mkN/ocYqfAvoTXmm5dPS5VoSVKKb7cHPk6S
GYmZQryr9ARF7STiPGcKDmP+Nq6E04Z0pvnN605lzfA8AfKt4bsLI64KkA8k/LZG
lrY8C9dADRR60rvm4cmtNOJrcXgCKdwF/tI/sM1k+cObPyWuR4ANL4DTX9ESuQqb
LzD20/XVDZAkTxrkpTdZzJbm2z6yWdcU1fAMGFKUxrwVNkrXR/+qbxVnmcQtBy3s
5p5DRWmiOQWGmYuGzLur2YJnayjRiBtMxVZoO7r+JrdBQwcCAwEAAaOBgDB+MB0G
A1UdDgQWBBQ87eTr/r0HYHnAxoI1LPCYQgLUrjAfBgNVHSMEGDAWgBSsKtEb47sd
bqwB2MwXDS6g4tQ5TjAOBgNVHQ8BAf8EBAMCBeAwEwYDVR0lBAwwCgYIKwYBBQUH
AwIwFwYDVR0RBBAwDocEfwAAAYIGY2xpZW50MA0GCSqGSIb3DQEBCwUAA4IBAQCK
PWx4D2sVNpf+NubJaVA9F0yeEdZKT/JDfg+36y1xTTfJgeTLTr3NTRUSTnJ60uSh
EYTO36/AVqsMiMHhCOnJmexBdBj5a/bfGYO3PwXVIqGJy9uNGV5scnie40xizM8q
7nwmGRPU0tG5LMgatzXdCqmvJHy1WldZefhb1EOJJ5QjJbYM/+J12QxvomiYqSfF
O+Sz0ffJdf2rreEwdMomMW+g9oKt3v63+Z4j7uuF3hVOcjxsJ4HGPQWLGe6IoLzS
cvGr5vnH4zVeLrFTLvNQgDwpKThpZa2AqJ3IrWwDOhIMp8tChJu/fOM3KVMc1qo3
qKNsQbjgkGBY9Kb3n1/h
-----END CERTIFICATE-----
