Certificate:
    Data:
        Version: 3 (0x2)
        Serial Number: 4096 (0x1000)
        Signature Algorithm: sha256WithRSAEncryption
        Issuer: CN=ZeroC Test Intermediate 2, C=US, ST=Florida, L=Jupiter, O=ZeroC, OU=Ice Test Infrastructure/emailAddress=tests@zeroc.com
        Validity
            Not Before: May 22 15:10:10 2025 GMT
            Not After : Jun 24 15:10:10 2026 GMT
        Subject: CN=Client, C=US, ST=Florida, L=Jupiter, O=ZeroC, Inc., OU=Ice/emailAddress=info@zeroc.com
        Subject Public Key Info:
            Public Key Algorithm: rsaEncryption
                Public-Key: (2048 bit)
                Modulus:
                    00:e0:7a:0e:67:a8:c2:f7:a8:45:0d:f9:c1:e0:f1:
                    27:b2:4a:dc:fd:ff:33:d9:15:48:91:7f:5b:bd:b6:
                    74:88:f0:65:3b:40:c6:74:ec:87:53:4e:3a:59:33:
                    c9:73:df:5a:c3:c0:8c:63:e1:3c:43:d3:f6:de:17:
                    22:fa:87:83:c7:53:42:49:4d:2e:61:31:71:61:d9:
                    b1:ae:4d:d9:ac:e7:44:fd:a7:5e:0d:c0:63:45:e7:
                    7b:27:46:e1:a2:9d:58:48:9a:00:59:40:80:49:e2:
                    52:0f:96:36:91:1b:26:bf:34:31:c9:b6:de:81:e6:
                    ad:10:32:77:73:f9:ed:7c:1d:76:5e:92:89:56:fb:
                    d8:fc:17:b1:3a:64:18:0c:8d:a4:17:94:26:7e:21:
                    e4:06:cf:76:bd:d6:ba:f7:a0:f8:f6:26:d4:86:cd:
                    d2:13:48:16:a1:39:db:6f:90:74:a2:06:7e:9e:4a:
                    dc:da:48:3a:ea:d4:d1:2c:99:0e:d2:33:58:51:ac:
                    da:de:25:16:30:51:d9:67:85:d5:6b:91:fa:de:29:
                    63:85:b2:d5:90:0d:9d:8d:75:8c:64:c7:ea:20:93:
                    6a:67:40:7b:d4:fe:87:8d:a0:4c:e2:de:5d:06:27:
                    e3:3b:57:1d:7d:d2:29:76:3b:90:2b:19:6a:05:f7:
                    d1:97
                Exponent: 65537 (0x10001)
        X509v3 extensions:
            X509v3 Subject Key Identifier: 
                DE:9C:21:0C:33:78:B8:B8:05:4D:34:AB:B9:58:CE:39:B0:EB:65:A2
            X509v3 Authority Key Identifier: 
                3B:81:6C:3A:05:E5:BF:91:20:57:EC:DF:58:41:78:02:CB:32:59:57
            X509v3 Key Usage: critical
                Digital Signature, Non Repudiation, Key Encipherment
            X509v3 Extended Key Usage: 
                TLS Web Client Authentication
            X509v3 Subject Alternative Name: 
                IP Address:127.0.0.1, DNS:client
    Signature Algorithm: sha256WithRSAEncryption
    Signature Value:
        47:d3:15:fc:8e:39:1d:09:14:ae:7d:63:d2:38:38:f4:52:74:
        26:8e:b5:d8:c8:7d:c5:90:cf:c1:d3:1c:b4:f5:97:ae:b9:7d:
        37:19:54:dc:5f:ff:87:c3:d4:de:b1:02:53:44:21:60:c9:0f:
        bc:7f:b4:93:4d:e8:82:72:11:fc:d1:92:21:af:67:a6:7e:60:
        29:76:3a:05:fa:07:6b:d8:df:3c:51:42:70:b1:6c:82:4a:bd:
        49:87:37:6b:f3:45:dc:3f:01:44:f5:09:77:cc:08:fc:35:9f:
        73:27:e0:62:b2:bf:83:b8:74:9e:23:26:11:7e:b6:15:80:cf:
        d0:25:1e:e8:79:01:75:bc:d9:d4:ee:17:ce:50:96:e2:b9:de:
        29:3f:40:d9:44:9e:0c:7a:38:f0:0b:03:0c:ca:e7:56:bf:db:
        90:12:30:d3:62:31:9a:2f:e2:c9:f9:21:4a:16:25:5b:cc:16:
        87:bf:21:2f:a2:8c:e1:59:47:e5:f9:93:4f:7a:ba:0a:a6:d4:
        2a:f2:43:3a:f8:6b:dc:98:a8:a3:85:cf:93:42:0d:e6:55:0a:
        9b:f9:93:7f:70:78:9d:91:33:1f:cf:31:6e:79:55:f3:c8:cf:
        d3:4b:cf:b5:d6:7b:b5:8a:1c:81:4e:66:e3:b5:98:99:21:b7:
        d1:1c:2d:63
-----BEGIN CERTIFICATE-----
MIIEKzCCAxOgAwIBAgICEAAwDQYJKoZIhvcNAQELBQAwgacxIjAgBgNVBAMMGVpl
cm9DIFRlc3QgSW50ZXJtZWRpYXRlIDIxCzAJBgNVBAYTAlVTMRAwDgYDVQQIDAdG
bG9yaWRhMRAwDgYDVQQHDAdKdXBpdGVyMQ4wDAYDVQQKDAVaZXJvQzEgMB4GA1UE
CwwXSWNlIFRlc3QgSW5mcmFzdHJ1Y3R1cmUxHjAcBgkqhkiG9w0BCQEWD3Rlc3Rz
QHplcm9jLmNvbTAeFw0yNTA1MjIxNTEwMTBaFw0yNjA2MjQxNTEwMTBaMIGFMQ8w
DQYDVQQDDAZDbGllbnQxCzAJBgNVBAYTAlVTMRAwDgYDVQQIDAdGbG9yaWRhMRAw
DgYDVQQHDAdKdXBpdGVyMRQwEgYDVQQKDAtaZXJvQywgSW5jLjEMMAoGA1UECwwD
SWNlMR0wGwYJKoZIhvcNAQkBFg5pbmZvQHplcm9jLmNvbTCCASIwDQYJKoZIhvcN
AQEBBQADggEPADCCAQoCggEBAOB6DmeowveoRQ35weDxJ7JK3P3/M9kVSJF/W722
dIjwZTtAxnTsh1NOOlkzyXPfWsPAjGPhPEPT9t4XIvqHg8dTQklNLmExcWHZsa5N
2aznRP2nXg3AY0XneydG4aKdWEiaAFlAgEniUg+WNpEbJr80Mcm23oHmrRAyd3P5
7Xwddl6SiVb72PwXsTpkGAyNpBeUJn4h5AbPdr3Wuveg+PYm1IbN0hNIFqE522+Q
dKIGfp5K3NpIOurU0SyZDtIzWFGs2t4lFjBR2WeF1WuR+t4pY4Wy1ZANnY11jGTH
6iCTamdAe9T+h42gTOLeXQYn4ztXHX3SKXY7kCsZagX30ZcCAwEAAaOBgDB+MB0G
A1UdDgQWBBTenCEMM3i4uAVNNKu5WM45sOtlojAfBgNVHSMEGDAWgBQ7gWw6BeW/
kSBX7N9YQXgCyzJZVzAOBgNVHQ8BAf8EBAMCBeAwEwYDVR0lBAwwCgYIKwYBBQUH
AwIwFwYDVR0RBBAwDocEfwAAAYIGY2xpZW50MA0GCSqGSIb3DQEBCwUAA4IBAQBH
0xX8jjkdCRSufWPSODj0UnQmjrXYyH3FkM/B0xy09ZeuuX03GVTcX/+Hw9TesQJT
RCFgyQ+8f7STTeiCchH80ZIhr2emfmApdjoF+gdr2N88UUJwsWyCSr1Jhzdr80Xc
PwFE9Ql3zAj8NZ9zJ+Bisr+DuHSeIyYRfrYVgM/QJR7oeQF1vNnU7hfOUJbiud4p
P0DZRJ4MejjwCwMMyudWv9uQEjDTYjGaL+LJ+SFKFiVbzBaHvyEvoozhWUfl+ZNP
eroKptQq8kM6+GvcmKijhc+TQg3mVQqb+ZN/cHidkTMfzzFueVXzyM/TS8+11nu1
ihyBTmbjtZiZIbfRHC1j
-----END CERTIFICATE-----
