Certificate:
    Data:
        Version: 3 (0x2)
        Serial Number: 4096 (0x1000)
        Signature Algorithm: sha256WithRSAEncryption
        Issuer: CN=ZeroC Test Intermediate 2, C=US, ST=Florida, L=Jupiter, O=ZeroC, OU=Ice Test Infrastructure/emailAddress=tests@zeroc.com
        Validity
            Not Before: May 22 16:55:09 2025 GMT
            Not After : Jun 24 16:55:09 2026 GMT
        Subject: CN=Client, C=US, ST=Florida, L=Jupiter, O=ZeroC, Inc., OU=Ice/emailAddress=info@zeroc.com
        Subject Public Key Info:
            Public Key Algorithm: rsaEncryption
                Public-Key: (2048 bit)
                Modulus:
                    00:c0:a7:12:24:44:f5:d4:41:a0:97:e3:30:52:e4:
                    a1:35:98:04:3c:68:2b:aa:22:d1:4d:ba:b3:79:8e:
                    ab:f1:60:43:e7:04:bf:99:e9:a0:32:7d:84:ec:cc:
                    0b:59:e0:b4:1c:86:6f:6d:51:b9:74:6f:77:89:3e:
                    3d:5d:82:17:2f:f4:19:83:43:32:45:72:51:aa:9e:
                    a5:03:fd:ef:8a:38:c8:04:e3:06:f9:95:55:62:6a:
                    de:68:31:25:5a:63:b1:9e:6e:9f:af:26:fa:d7:eb:
                    97:99:98:6b:f5:8b:63:df:d1:21:47:96:a7:78:da:
                    be:5e:dd:d8:81:f2:be:00:e8:05:84:8b:31:c6:9a:
                    db:a6:63:cb:aa:15:d9:2c:d3:ea:5c:ba:49:d6:2f:
                    cb:eb:99:3c:a1:08:04:d5:b7:75:00:1e:d9:e7:55:
                    1e:0b:77:9d:e4:4c:2d:a1:3b:59:49:a1:7e:cb:39:
                    a6:fb:10:c1:00:02:60:92:12:89:a6:e5:5c:b2:6c:
                    be:ea:5b:d2:1c:a6:1c:a2:e5:94:7c:80:a4:b9:3a:
                    17:3d:00:bf:db:b9:6b:a4:35:78:ce:17:be:e1:41:
                    d8:9b:a8:7c:f8:d0:b0:a2:6d:92:1c:23:69:07:05:
                    46:17:85:bf:9c:6f:28:e4:d0:df:8d:56:c8:8b:ce:
                    83:b5
                Exponent: 65537 (0x10001)
        X509v3 extensions:
            X509v3 Subject Key Identifier: 
                CD:43:2A:B0:63:DB:B7:F8:FB:79:0B:9C:E8:FD:EB:16:0E:1D:C4:B5
            X509v3 Authority Key Identifier: 
                8C:80:00:C8:B2:CE:46:A7:04:1B:ED:58:D8:03:9D:CC:4E:66:DC:FE
            X509v3 Key Usage: critical
                Digital Signature, Non Repudiation, Key Encipherment
            X509v3 Extended Key Usage: 
                TLS Web Client Authentication
            X509v3 Subject Alternative Name: 
                IP Address:127.0.0.1, DNS:client
    Signature Algorithm: sha256WithRSAEncryption
    Signature Value:
        a2:44:99:f7:69:fd:73:7e:87:4c:60:96:de:26:ca:73:38:7e:
        e0:8a:75:e2:17:4b:ef:c1:46:6e:b4:bd:ff:92:c1:e0:d0:d8:
        11:c8:00:7f:61:53:00:5b:89:3c:b3:79:16:37:db:ba:cd:f8:
        23:fd:87:a9:ee:c8:7b:93:e8:31:0e:35:1b:8c:3c:9e:c2:a1:
        19:bb:2e:0c:09:c9:a2:c1:0d:51:16:79:f2:62:c9:9d:73:b7:
        52:fc:57:c8:a5:30:4b:01:c5:68:ff:e2:55:e3:15:d5:1b:29:
        4b:b8:93:ac:72:e9:14:a3:1e:4b:8d:c7:e6:d5:c5:a5:c9:3b:
        1f:a2:ec:89:4d:43:d0:b5:7f:b7:c6:8a:8c:cf:25:d4:7e:3b:
        f2:ee:0d:03:a1:9f:42:20:cb:c5:7c:dc:c2:ec:da:44:3d:b1:
        cb:d8:e9:5f:88:7d:52:df:ab:5b:b4:25:7c:72:d9:6f:9d:f5:
        e8:5f:8e:c2:9b:b4:3a:84:db:31:75:a1:10:79:de:91:82:c3:
        96:eb:e4:f7:0f:f1:f4:3c:01:1a:c9:18:cd:21:87:7b:f1:eb:
        ae:b2:a1:4a:ff:c0:19:04:42:51:8b:5c:26:91:b6:de:2f:d3:
        bf:f5:47:89:80:cf:42:7d:f4:29:28:c8:c6:00:39:6a:1c:d3:
        f4:3b:c6:7f
-----BEGIN CERTIFICATE-----
MIIEKzCCAxOgAwIBAgICEAAwDQYJKoZIhvcNAQELBQAwgacxIjAgBgNVBAMMGVpl
cm9DIFRlc3QgSW50ZXJtZWRpYXRlIDIxCzAJBgNVBAYTAlVTMRAwDgYDVQQIDAdG
bG9yaWRhMRAwDgYDVQQHDAdKdXBpdGVyMQ4wDAYDVQQKDAVaZXJvQzEgMB4GA1UE
CwwXSWNlIFRlc3QgSW5mcmFzdHJ1Y3R1cmUxHjAcBgkqhkiG9w0BCQEWD3Rlc3Rz
QHplcm9jLmNvbTAeFw0yNTA1MjIxNjU1MDlaFw0yNjA2MjQxNjU1MDlaMIGFMQ8w
DQYDVQQDDAZDbGllbnQxCzAJBgNVBAYTAlVTMRAwDgYDVQQIDAdGbG9yaWRhMRAw
DgYDVQQHDAdKdXBpdGVyMRQwEgYDVQQKDAtaZXJvQywgSW5jLjEMMAoGA1UECwwD
SWNlMR0wGwYJKoZIhvcNAQkBFg5pbmZvQHplcm9jLmNvbTCCASIwDQYJKoZIhvcN
AQEBBQADggEPADCCAQoCggEBAMCnEiRE9dRBoJfjMFLkoTWYBDxoK6oi0U26s3mO
q/FgQ+cEv5npoDJ9hOzMC1ngtByGb21RuXRvd4k+PV2CFy/0GYNDMkVyUaqepQP9
74o4yATjBvmVVWJq3mgxJVpjsZ5un68m+tfrl5mYa/WLY9/RIUeWp3javl7d2IHy
vgDoBYSLMcaa26Zjy6oV2SzT6ly6SdYvy+uZPKEIBNW3dQAe2edVHgt3neRMLaE7
WUmhfss5pvsQwQACYJISiablXLJsvupb0hymHKLllHyApLk6Fz0Av9u5a6Q1eM4X
vuFB2JuofPjQsKJtkhwjaQcFRheFv5xvKOTQ341WyIvOg7UCAwEAAaOBgDB+MB0G
A1UdDgQWBBTNQyqwY9u3+Pt5C5zo/esWDh3EtTAfBgNVHSMEGDAWgBSMgADIss5G
pwQb7VjYA53MTmbc/jAOBgNVHQ8BAf8EBAMCBeAwEwYDVR0lBAwwCgYIKwYBBQUH
AwIwFwYDVR0RBBAwDocEfwAAAYIGY2xpZW50MA0GCSqGSIb3DQEBCwUAA4IBAQCi
RJn3af1zfodMYJbeJspzOH7ginXiF0vvwUZutL3/ksHg0NgRyAB/YVMAW4k8s3kW
N9u6zfgj/Yep7sh7k+gxDjUbjDyewqEZuy4MCcmiwQ1RFnnyYsmdc7dS/FfIpTBL
AcVo/+JV4xXVGylLuJOscukUox5Ljcfm1cWlyTsfouyJTUPQtX+3xoqMzyXUfjvy
7g0DoZ9CIMvFfNzC7NpEPbHL2OlfiH1S36tbtCV8ctlvnfXoX47Cm7Q6hNsxdaEQ
ed6RgsOW6+T3D/H0PAEayRjNIYd78euusqFK/8AZBEJRi1wmkbbeL9O/9UeJgM9C
ffQpKMjGADlqHNP0O8Z/
-----END CERTIFICATE-----
