Certificate:
    Data:
        Version: 3 (0x2)
        Serial Number: 4097 (0x1001)
        Signature Algorithm: sha256WithRSAEncryption
        Issuer: CN=ZeroC Test Intermediate 2, C=US, ST=Florida, L=Jupiter, O=ZeroC, OU=Ice Test Infrastructure/emailAddress=tests@zeroc.com
        Validity
            Not Before: May 22 15:10:15 2025 GMT
            Not After : Jun 24 15:10:15 2026 GMT
        Subject: CN=server, C=US, ST=Florida, L=Jupiter, O=ZeroC, Inc., OU=Ice/emailAddress=info@zeroc.com
        Subject Public Key Info:
            Public Key Algorithm: rsaEncryption
                Public-Key: (2048 bit)
                Modulus:
                    00:e4:dd:b6:c8:2c:bf:1c:d6:23:5a:5b:5b:5a:f2:
                    2d:4a:5a:9e:fb:53:f7:8c:b1:e6:41:35:71:7f:50:
                    48:48:00:94:fb:c6:3a:41:ad:59:30:6d:c1:91:2a:
                    3b:21:10:1f:1e:89:51:92:30:50:0d:d2:c7:b1:ff:
                    94:a3:a5:71:b5:a6:17:a4:ec:65:6c:7e:3d:98:68:
                    ab:39:85:ac:87:17:99:04:43:90:75:90:ee:df:f9:
                    82:d5:77:fb:95:f4:b8:c6:28:bb:88:4e:b5:9a:7d:
                    59:58:c3:4c:f2:af:0e:5a:0a:15:6a:ea:5f:e1:48:
                    f7:4a:f5:d9:5b:ef:75:5e:c8:5e:e7:73:31:9e:63:
                    ec:fa:dc:fd:32:5b:0a:10:4c:33:18:fd:95:4c:99:
                    2c:6e:35:08:8a:18:60:b4:7c:78:8a:dc:7b:b4:35:
                    64:ac:c4:3b:bd:9d:21:19:cc:83:08:26:68:6e:ed:
                    50:16:75:9c:36:a7:c5:95:45:9b:fb:a4:fe:03:30:
                    38:88:88:17:c4:46:b1:7f:a0:5c:f4:c0:c3:84:70:
                    91:b2:17:3a:ba:15:2c:be:8b:86:73:ac:a3:28:1c:
                    e2:3a:d1:1f:f2:fd:c4:fa:e8:61:94:5e:06:39:17:
                    8a:8d:a6:03:ae:e0:c8:72:3b:fd:20:b9:e0:49:1c:
                    b7:11
                Exponent: 65537 (0x10001)
        X509v3 extensions:
            X509v3 Subject Key Identifier: 
                EB:60:B6:ED:67:EA:5F:1C:85:9E:46:09:74:45:6E:15:1C:25:EA:0A
            X509v3 Authority Key Identifier: 
                3B:81:6C:3A:05:E5:BF:91:20:57:EC:DF:58:41:78:02:CB:32:59:57
            X509v3 Key Usage: critical
                Digital Signature, Non Repudiation, Key Encipherment
            X509v3 Extended Key Usage: 
                TLS Web Server Authentication
            X509v3 Subject Alternative Name: 
                IP Address:127.0.0.1, DNS:server
    Signature Algorithm: sha256WithRSAEncryption
    Signature Value:
        b6:3f:df:0f:14:0c:eb:cf:8d:6b:4e:34:10:7f:ec:06:30:1f:
        ce:e6:93:13:55:68:73:5c:d4:9d:29:da:73:0f:12:ce:86:cb:
        f6:14:cd:73:68:48:26:83:13:c2:60:de:91:96:fc:cd:32:2b:
        26:ff:f7:be:02:bf:f0:c7:78:ba:7a:8d:41:69:60:5b:13:b9:
        ed:20:7d:76:b9:58:ce:4d:f7:f0:72:5f:15:e4:71:16:1d:7e:
        18:84:05:ca:30:51:8a:41:40:5a:c6:96:63:e4:28:8e:8c:9f:
        0c:7b:8b:9f:aa:f0:57:30:8c:6a:17:c0:35:0c:f3:b2:bb:4f:
        c3:06:3a:8e:e8:91:f6:77:6e:cd:11:c8:e1:f3:0f:6f:9f:61:
        6d:93:e1:65:a3:03:2a:d1:03:11:46:03:29:24:b6:6d:df:00:
        20:ca:f2:cd:58:0e:fc:e5:7b:30:32:c6:11:1e:55:01:ea:69:
        fe:9e:33:53:fe:2a:92:f7:73:80:3f:9f:11:0d:3f:49:08:98:
        48:b5:d0:94:2e:b5:53:67:a1:3f:03:6a:94:83:ff:7e:e5:17:
        f5:ed:6d:05:80:c1:0b:e8:b9:68:7f:01:75:e3:6c:78:7c:94:
        60:da:08:63:4e:8e:44:f5:d0:ff:77:2e:d9:6f:0b:c6:0f:41:
        64:f1:58:08
-----BEGIN CERTIFICATE-----
MIIEKzCCAxOgAwIBAgICEAEwDQYJKoZIhvcNAQELBQAwgacxIjAgBgNVBAMMGVpl
cm9DIFRlc3QgSW50ZXJtZWRpYXRlIDIxCzAJBgNVBAYTAlVTMRAwDgYDVQQIDAdG
bG9yaWRhMRAwDgYDVQQHDAdKdXBpdGVyMQ4wDAYDVQQKDAVaZXJvQzEgMB4GA1UE
CwwXSWNlIFRlc3QgSW5mcmFzdHJ1Y3R1cmUxHjAcBgkqhkiG9w0BCQEWD3Rlc3Rz
QHplcm9jLmNvbTAeFw0yNTA1MjIxNTEwMTVaFw0yNjA2MjQxNTEwMTVaMIGFMQ8w
DQYDVQQDDAZzZXJ2ZXIxCzAJBgNVBAYTAlVTMRAwDgYDVQQIDAdGbG9yaWRhMRAw
DgYDVQQHDAdKdXBpdGVyMRQwEgYDVQQKDAtaZXJvQywgSW5jLjEMMAoGA1UECwwD
SWNlMR0wGwYJKoZIhvcNAQkBFg5pbmZvQHplcm9jLmNvbTCCASIwDQYJKoZIhvcN
AQEBBQADggEPADCCAQoCggEBAOTdtsgsvxzWI1pbW1ryLUpanvtT94yx5kE1cX9Q
SEgAlPvGOkGtWTBtwZEqOyEQHx6JUZIwUA3Sx7H/lKOlcbWmF6TsZWx+PZhoqzmF
rIcXmQRDkHWQ7t/5gtV3+5X0uMYou4hOtZp9WVjDTPKvDloKFWrqX+FI90r12Vvv
dV7IXudzMZ5j7Prc/TJbChBMMxj9lUyZLG41CIoYYLR8eIrce7Q1ZKzEO72dIRnM
gwgmaG7tUBZ1nDanxZVFm/uk/gMwOIiIF8RGsX+gXPTAw4RwkbIXOroVLL6LhnOs
oygc4jrRH/L9xProYZReBjkXio2mA67gyHI7/SC54EkctxECAwEAAaOBgDB+MB0G
A1UdDgQWBBTrYLbtZ+pfHIWeRgl0RW4VHCXqCjAfBgNVHSMEGDAWgBQ7gWw6BeW/
kSBX7N9YQXgCyzJZVzAOBgNVHQ8BAf8EBAMCBeAwEwYDVR0lBAwwCgYIKwYBBQUH
AwEwFwYDVR0RBBAwDocEfwAAAYIGc2VydmVyMA0GCSqGSIb3DQEBCwUAA4IBAQC2
P98PFAzrz41rTjQQf+wGMB/O5pMTVWhzXNSdKdpzDxLOhsv2FM1zaEgmgxPCYN6R
lvzNMism//e+Ar/wx3i6eo1BaWBbE7ntIH12uVjOTffwcl8V5HEWHX4YhAXKMFGK
QUBaxpZj5CiOjJ8Me4ufqvBXMIxqF8A1DPOyu0/DBjqO6JH2d27NEcjh8w9vn2Ft
k+FlowMq0QMRRgMpJLZt3wAgyvLNWA785XswMsYRHlUB6mn+njNT/iqS93OAP58R
DT9JCJhItdCULrVTZ6E/A2qUg/9+5Rf17W0FgMEL6LlofwF142x4fJRg2ghjTo5E
9dD/dy7ZbwvGD0Fk8VgI
-----END CERTIFICATE-----
