Certificate:
    Data:
        Version: 3 (0x2)
        Serial Number: 4097 (0x1001)
        Signature Algorithm: sha256WithRSAEncryption
        Issuer: C=US, ST=Florida, L=Jupiter, O=ZeroC, OU=Ice, CN=ZeroC Test CA 2/emailAddress=tests@zeroc.com
        Validity
            Not Before: May 22 16:16:12 2025 GMT
            Not After : Jun 24 16:16:12 2026 GMT
        Subject: CN=Server, C=US, ST=Florida, L=Jupiter, O=ZeroC, Inc., OU=Ice/emailAddress=info@zeroc.com
        Subject Public Key Info:
            Public Key Algorithm: rsaEncryption
                Public-Key: (2048 bit)
                Modulus:
                    00:c8:75:a8:9f:3b:b3:ad:39:40:c5:e2:e0:5b:fd:
                    2f:fd:0f:64:9f:8a:2f:de:43:1b:83:2f:7b:3b:73:
                    96:82:bb:3b:56:3c:13:7c:94:62:35:2d:ec:78:78:
                    f0:63:32:dc:d5:ba:88:44:7c:8d:19:78:2c:0e:dc:
                    ff:2a:74:f8:20:1a:67:46:43:1e:bd:3d:35:5c:64:
                    8d:87:c5:dc:c4:d0:ac:00:7a:4d:b5:83:8f:a3:77:
                    ac:46:67:82:f9:32:fa:89:a5:cb:27:c9:04:ff:bc:
                    67:86:e4:39:12:19:d5:30:04:d1:06:da:02:c2:71:
                    97:0b:7e:e3:4e:63:d7:fd:40:8b:de:84:3d:01:10:
                    64:f8:e4:b5:89:11:26:b5:21:b4:64:c8:62:44:38:
                    94:07:63:1a:60:7c:c6:36:91:05:a1:db:6c:59:ab:
                    b3:4d:65:87:48:2f:64:4b:61:0d:84:c9:ac:30:9a:
                    d5:66:0e:5d:2c:88:ed:ed:a4:9c:13:b2:65:6f:85:
                    76:da:04:7d:5d:79:b7:7f:4d:61:bb:b4:31:f9:56:
                    e5:cc:ac:58:f8:78:b9:7c:ff:c2:fe:c8:30:fb:e7:
                    e7:51:0c:cb:15:df:e5:40:30:a2:2a:ea:d2:fa:10:
                    28:15:1e:10:c4:ae:6c:7a:40:9b:53:61:93:7d:6d:
                    fb:af
                Exponent: 65537 (0x10001)
        X509v3 extensions:
            X509v3 Subject Key Identifier: 
                AE:90:A8:9A:92:BB:11:8C:01:92:45:28:AF:4A:B5:FC:EA:7D:EC:65
            X509v3 Authority Key Identifier: 
                8E:19:A3:D0:92:04:2E:D1:1E:8B:CC:17:41:65:6A:23:4A:F5:80:2D
            X509v3 Key Usage: critical
                Digital Signature, Non Repudiation, Key Encipherment
            X509v3 Extended Key Usage: 
                TLS Web Server Authentication, TLS Web Client Authentication
            X509v3 Subject Alternative Name: 
                DNS:server, IP Address:127.0.0.1
    Signature Algorithm: sha256WithRSAEncryption
    Signature Value:
        41:ce:32:81:5d:ad:fa:74:be:79:0f:86:0c:d5:c1:98:f1:f7:
        53:81:64:b1:b9:22:49:74:d9:59:34:d0:39:d9:6f:77:ed:e4:
        e2:b5:90:1c:00:77:d7:24:be:cb:94:ee:13:6c:65:9b:f3:68:
        dc:23:a3:10:00:91:f3:88:94:93:10:90:42:e6:7f:a2:6d:32:
        e2:1e:d8:8b:fe:c1:be:d1:e5:f5:88:9f:c8:0f:a9:a8:32:d4:
        2a:b9:44:26:a6:a6:5e:bf:13:93:d2:83:c9:bf:17:93:1f:5d:
        e3:97:38:a1:79:ea:11:96:10:dc:4c:f2:1d:79:1c:f4:35:64:
        82:0b:8f:46:7a:73:ff:44:31:2b:0f:2b:d6:9a:d6:28:fc:f3:
        60:ee:e3:ff:f9:d7:91:d8:be:11:59:a9:5e:c1:3b:ac:46:53:
        1f:69:b0:29:7f:22:bc:48:ce:1a:2d:b3:d2:09:27:57:85:a7:
        ab:92:a0:9f:d2:e6:89:f1:ec:a5:0c:53:95:ad:32:d9:92:f2:
        ae:f6:2d:12:28:6a:6c:e1:48:c5:d0:52:fb:3e:d3:61:37:29:
        a7:5a:c3:b2:15:f2:f4:8a:f7:91:d4:61:92:90:99:a3:d0:60:
        28:35:fb:ad:1f:db:ae:80:67:d3:21:9d:ee:f9:52:79:d4:96:
        2a:95:e8:31
-----BEGIN CERTIFICATE-----
MIIEGDCCAwCgAwIBAgICEAEwDQYJKoZIhvcNAQELBQAwgYkxCzAJBgNVBAYTAlVT
MRAwDgYDVQQIDAdGbG9yaWRhMRAwDgYDVQQHDAdKdXBpdGVyMQ4wDAYDVQQKDAVa
ZXJvQzEMMAoGA1UECwwDSWNlMRgwFgYDVQQDDA9aZXJvQyBUZXN0IENBIDIxHjAc
BgkqhkiG9w0BCQEWD3Rlc3RzQHplcm9jLmNvbTAeFw0yNTA1MjIxNjE2MTJaFw0y
NjA2MjQxNjE2MTJaMIGFMQ8wDQYDVQQDDAZTZXJ2ZXIxCzAJBgNVBAYTAlVTMRAw
DgYDVQQIDAdGbG9yaWRhMRAwDgYDVQQHDAdKdXBpdGVyMRQwEgYDVQQKDAtaZXJv
QywgSW5jLjEMMAoGA1UECwwDSWNlMR0wGwYJKoZIhvcNAQkBFg5pbmZvQHplcm9j
LmNvbTCCASIwDQYJKoZIhvcNAQEBBQADggEPADCCAQoCggEBAMh1qJ87s605QMXi
4Fv9L/0PZJ+KL95DG4MveztzloK7O1Y8E3yUYjUt7Hh48GMy3NW6iER8jRl4LA7c
/yp0+CAaZ0ZDHr09NVxkjYfF3MTQrAB6TbWDj6N3rEZngvky+omlyyfJBP+8Z4bk
ORIZ1TAE0QbaAsJxlwt+405j1/1Ai96EPQEQZPjktYkRJrUhtGTIYkQ4lAdjGmB8
xjaRBaHbbFmrs01lh0gvZEthDYTJrDCa1WYOXSyI7e2knBOyZW+FdtoEfV15t39N
Ybu0MflW5cysWPh4uXz/wv7IMPvn51EMyxXf5UAwoirq0voQKBUeEMSubHpAm1Nh
k31t+68CAwEAAaOBizCBiDAdBgNVHQ4EFgQUrpCompK7EYwBkkUor0q1/Op97GUw
HwYDVR0jBBgwFoAUjhmj0JIELtEei8wXQWVqI0r1gC0wDgYDVR0PAQH/BAQDAgXg
MB0GA1UdJQQWMBQGCCsGAQUFBwMBBggrBgEFBQcDAjAXBgNVHREEEDAOggZzZXJ2
ZXKHBH8AAAEwDQYJKoZIhvcNAQELBQADggEBAEHOMoFdrfp0vnkPhgzVwZjx91OB
ZLG5Ikl02Vk00DnZb3ft5OK1kBwAd9ckvsuU7hNsZZvzaNwjoxAAkfOIlJMQkELm
f6JtMuIe2Iv+wb7R5fWIn8gPqagy1Cq5RCampl6/E5PSg8m/F5MfXeOXOKF56hGW
ENxM8h15HPQ1ZIILj0Z6c/9EMSsPK9aa1ij882Du4//515HYvhFZqV7BO6xGUx9p
sCl/IrxIzhots9IJJ1eFp6uSoJ/S5onx7KUMU5WtMtmS8q72LRIoamzhSMXQUvs+
02E3Kadaw7IV8vSK95HUYZKQmaPQYCg1+60f266AZ9Mhne75UnnUliqV6DE=
-----END CERTIFICATE-----
