Certificate:
    Data:
        Version: 3 (0x2)
        Serial Number: 4096 (0x1000)
        Signature Algorithm: sha256WithRSAEncryption
        Issuer: CN=ZeroC Test Intermediate 1 CA, C=US, ST=Florida, L=Jupiter, O=ZeroC, OU=Ice Test Infrastructure/emailAddress=tests@zeroc.com
        Validity
            Not Before: May 22 16:55:18 2025 GMT
            Not After : Jun 24 16:55:18 2026 GMT
        Subject: CN=Server Revoked, C=US, ST=Florida, L=Jupiter, O=ZeroC, Inc., OU=Ice/emailAddress=info@zeroc.com
        Subject Public Key Info:
            Public Key Algorithm: rsaEncryption
                Public-Key: (2048 bit)
                Modulus:
                    00:e0:8b:fc:e0:c1:32:43:09:3d:3d:0e:ca:2e:ee:
                    e2:2a:e1:5f:63:be:af:a6:d6:9c:8c:43:cb:2d:43:
                    b1:b7:22:54:72:82:af:58:5f:9d:24:52:b5:95:60:
                    33:dd:a2:05:6c:dd:ff:36:fd:27:0b:4f:05:e4:8d:
                    16:ba:88:e7:eb:21:6f:97:b5:28:43:5a:7c:77:b4:
                    3a:52:9b:80:65:14:d0:a6:bf:a2:2e:74:f4:72:d9:
                    bc:e6:35:c1:00:b8:60:1c:4f:da:2f:bc:68:32:80:
                    df:a2:2f:b8:c4:7f:31:e2:71:bd:bb:74:97:1f:b1:
                    ae:ba:5a:83:6a:18:ac:06:2a:81:eb:2a:3e:33:61:
                    8f:63:49:4e:fc:71:85:34:34:09:20:b5:8c:5b:d6:
                    46:71:0b:64:ee:42:af:a1:1a:77:be:ad:a0:36:6e:
                    a0:e1:1a:2b:26:15:c7:e3:16:02:9f:78:43:33:94:
                    3a:c9:49:69:20:53:c6:5b:70:47:a5:ee:f1:8e:67:
                    f4:a1:49:6b:a8:44:7b:07:3c:fa:d8:95:52:32:8f:
                    bc:21:1b:cc:6a:ad:b1:d6:ed:bd:ab:b5:50:f5:f1:
                    ad:98:af:40:f7:f5:68:3a:b1:d0:33:cc:95:d3:76:
                    8b:96:01:24:ac:1d:dc:f6:86:12:03:10:8e:01:55:
                    16:f9
                Exponent: 65537 (0x10001)
        X509v3 extensions:
            X509v3 Subject Key Identifier: 
                7C:21:24:8A:7A:D2:51:51:40:30:F3:CC:20:57:5C:49:1A:5A:DD:38
            X509v3 Authority Key Identifier: 
                70:04:92:72:48:3A:B7:C6:EF:65:DC:2C:52:9E:E0:53:CA:9A:E5:A8
            X509v3 Key Usage: critical
                Digital Signature, Non Repudiation, Key Encipherment
            X509v3 Extended Key Usage: 
                TLS Web Client Authentication
            Authority Information Access: 
                OCSP - URI:http://127.0.0.1:20002
                CA Issuers - URI:http://127.0.0.1:20001/ca4/ca4_cert.der
            X509v3 Subject Alternative Name: 
                IP Address:127.0.0.1, DNS:client
    Signature Algorithm: sha256WithRSAEncryption
    Signature Value:
        1e:5f:64:09:c3:3f:96:56:61:41:47:6b:ba:10:f2:d7:b3:b8:
        26:11:1a:be:71:83:34:1e:67:63:e8:28:74:fa:46:df:01:76:
        95:7b:4f:68:b3:13:0a:4b:3d:c3:0c:00:08:7b:06:81:eb:5e:
        84:61:40:cd:92:5a:f0:08:2b:58:8b:0c:42:8b:06:bf:5c:f5:
        59:68:33:77:f4:60:c1:9f:57:a2:7b:b1:5e:63:dd:c2:c2:4a:
        24:f2:98:77:58:9f:4d:33:24:35:d5:bf:6f:e0:fc:6a:f3:8c:
        ba:e6:5e:4c:1f:02:63:9c:23:3d:16:ae:d1:79:59:4c:64:d4:
        51:6e:db:38:06:f0:f3:0d:3e:ca:0c:6b:f8:ad:d6:d2:6a:6a:
        fa:d8:8e:58:20:b3:2b:8d:f8:b5:eb:2c:d0:25:a9:36:4c:6a:
        f5:22:34:85:8b:64:5c:65:17:1e:b7:68:cd:fc:1e:a6:e2:05:
        ed:d2:38:ce:f2:9a:b0:ec:fd:cb:58:95:2b:29:9e:07:73:d9:
        dd:fe:b7:58:c4:a1:22:9c:af:95:bd:fa:88:cf:d6:98:89:03:
        9c:ff:74:14:c3:d3:68:53:6d:5f:9d:12:62:9f:06:5f:83:99:
        d4:71:b9:ae:94:73:f0:73:36:a1:0a:d7:1e:0c:de:02:61:d3:
        76:0e:cd:24
-----BEGIN CERTIFICATE-----
MIIEoDCCA4igAwIBAgICEAAwDQYJKoZIhvcNAQELBQAwgaoxJTAjBgNVBAMMHFpl
cm9DIFRlc3QgSW50ZXJtZWRpYXRlIDEgQ0ExCzAJBgNVBAYTAlVTMRAwDgYDVQQI
DAdGbG9yaWRhMRAwDgYDVQQHDAdKdXBpdGVyMQ4wDAYDVQQKDAVaZXJvQzEgMB4G
A1UECwwXSWNlIFRlc3QgSW5mcmFzdHJ1Y3R1cmUxHjAcBgkqhkiG9w0BCQEWD3Rl
c3RzQHplcm9jLmNvbTAeFw0yNTA1MjIxNjU1MThaFw0yNjA2MjQxNjU1MThaMIGN
MRcwFQYDVQQDDA5TZXJ2ZXIgUmV2b2tlZDELMAkGA1UEBhMCVVMxEDAOBgNVBAgM
B0Zsb3JpZGExEDAOBgNVBAcMB0p1cGl0ZXIxFDASBgNVBAoMC1plcm9DLCBJbmMu
MQwwCgYDVQQLDANJY2UxHTAbBgkqhkiG9w0BCQEWDmluZm9AemVyb2MuY29tMIIB
IjANBgkqhkiG9w0BAQEFAAOCAQ8AMIIBCgKCAQEA4Iv84MEyQwk9PQ7KLu7iKuFf
Y76vptacjEPLLUOxtyJUcoKvWF+dJFK1lWAz3aIFbN3/Nv0nC08F5I0Wuojn6yFv
l7UoQ1p8d7Q6UpuAZRTQpr+iLnT0ctm85jXBALhgHE/aL7xoMoDfoi+4xH8x4nG9
u3SXH7GuulqDahisBiqB6yo+M2GPY0lO/HGFNDQJILWMW9ZGcQtk7kKvoRp3vq2g
Nm6g4RorJhXH4xYCn3hDM5Q6yUlpIFPGW3BHpe7xjmf0oUlrqER7Bzz62JVSMo+8
IRvMaq2x1u29q7VQ9fGtmK9A9/VoOrHQM8yV03aLlgEkrB3c9oYSAxCOAVUW+QID
AQABo4HqMIHnMB0GA1UdDgQWBBR8ISSKetJRUUAw88wgV1xJGlrdODAfBgNVHSME
GDAWgBRwBJJySDq3xu9l3CxSnuBTyprlqDAOBgNVHQ8BAf8EBAMCBeAwEwYDVR0l
BAwwCgYIKwYBBQUHAwIwZwYIKwYBBQUHAQEEWzBZMCIGCCsGAQUFBzABhhZodHRw
Oi8vMTI3LjAuMC4xOjIwMDAyMDMGCCsGAQUFBzAChidodHRwOi8vMTI3LjAuMC4x
OjIwMDAxL2NhNC9jYTRfY2VydC5kZXIwFwYDVR0RBBAwDocEfwAAAYIGY2xpZW50
MA0GCSqGSIb3DQEBCwUAA4IBAQAeX2QJwz+WVmFBR2u6EPLXs7gmERq+cYM0Hmdj
6Ch0+kbfAXaVe09osxMKSz3DDAAIewaB616EYUDNklrwCCtYiwxCiwa/XPVZaDN3
9GDBn1eie7FeY93Cwkok8ph3WJ9NMyQ11b9v4Pxq84y65l5MHwJjnCM9Fq7ReVlM
ZNRRbts4BvDzDT7KDGv4rdbSamr62I5YILMrjfi16yzQJak2TGr1IjSFi2RcZRce
t2jN/B6m4gXt0jjO8pqw7P3LWJUrKZ4Hc9nd/rdYxKEinK+VvfqIz9aYiQOc/3QU
w9NoU21fnRJinwZfg5nUcbmulHPwczahCtceDN4CYdN2Ds0k
-----END CERTIFICATE-----
