Certificate:
    Data:
        Version: 3 (0x2)
        Serial Number: 4096 (0x1000)
        Signature Algorithm: sha256WithRSAEncryption
        Issuer: C=US, ST=Florida, L=Jupiter, O=ZeroC, OU=Ice, CN=ZeroC Test CA 2/emailAddress=tests@zeroc.com
        Validity
            Not Before: May 22 16:16:06 2025 GMT
            Not After : Jun 24 16:16:06 2026 GMT
        Subject: CN=client, C=US, ST=Florida, L=Jupiter, O=ZeroC, Inc., OU=Ice/emailAddress=info@zeroc.com
        Subject Public Key Info:
            Public Key Algorithm: rsaEncryption
                Public-Key: (2048 bit)
                Modulus:
                    00:8f:5a:b2:74:33:e8:10:e4:a2:e4:03:25:53:e8:
                    04:39:1e:13:fc:d7:65:ed:54:31:39:59:4a:c1:d7:
                    1e:c0:a1:8d:d7:92:0b:b9:24:48:bd:b8:df:ca:b3:
                    9b:db:41:19:fb:7f:fe:d3:e2:60:76:36:bb:bf:90:
                    b0:b9:a6:3d:1a:90:4a:55:ae:0e:22:a4:67:74:09:
                    54:86:fa:61:1b:5b:a5:89:0d:de:e4:de:3f:1f:7c:
                    84:fa:da:e2:47:f3:c3:3c:e0:1e:54:75:4d:b9:9d:
                    b0:80:9d:b4:16:8c:ee:98:74:6a:65:3b:22:5b:fe:
                    d0:99:7e:1a:25:8b:b9:66:d4:8b:5d:14:17:96:d2:
                    32:9d:74:fa:53:6b:00:a4:96:02:b7:e4:9b:5b:a2:
                    bd:64:9a:df:97:fa:a6:36:5b:1c:1a:6a:37:3a:2c:
                    d5:d2:0b:c5:0d:e1:c4:05:9b:cd:aa:36:4b:17:a3:
                    ed:32:0e:01:a2:e1:e9:40:0f:10:58:32:9c:14:db:
                    04:7c:31:84:e6:f5:7d:05:3b:d7:10:2c:95:19:0d:
                    bb:63:4d:1c:c9:5e:e4:6f:c8:91:4d:bc:03:11:36:
                    d2:9a:9e:c3:fb:99:83:f4:23:81:aa:d7:8e:87:8f:
                    37:34:e8:99:50:92:ca:c8:8d:9c:74:76:7f:c1:9b:
                    cb:e7
                Exponent: 65537 (0x10001)
        X509v3 extensions:
            X509v3 Subject Key Identifier: 
                3E:38:EC:6C:76:25:CD:A7:4C:2F:F7:4C:F3:4A:7E:A5:68:8F:76:F9
            X509v3 Authority Key Identifier: 
                8E:19:A3:D0:92:04:2E:D1:1E:8B:CC:17:41:65:6A:23:4A:F5:80:2D
            X509v3 Key Usage: critical
                Digital Signature, Non Repudiation, Key Encipherment
            X509v3 Extended Key Usage: 
                TLS Web Client Authentication
            X509v3 Subject Alternative Name: 
                DNS:client, IP Address:127.0.0.1
    Signature Algorithm: sha256WithRSAEncryption
    Signature Value:
        8a:2e:19:fb:19:08:ea:fe:79:05:4b:71:a9:d1:80:95:bd:69:
        c5:e3:c4:65:1f:89:15:25:22:d9:2c:86:07:a8:80:72:48:c4:
        e0:e8:40:5a:12:8d:b2:af:9b:bb:99:9e:5d:8a:e7:fe:cc:8a:
        6b:fc:25:e9:ee:00:cf:b3:c0:24:e5:98:2c:23:a3:bc:be:51:
        c7:db:a2:0a:1d:19:59:a9:09:f9:0c:fc:fd:ed:69:d1:fa:8c:
        54:77:95:f8:ee:81:b5:c6:d3:2d:a8:6c:3a:2e:71:83:8b:aa:
        eb:8e:8c:c9:5b:e6:e4:8d:36:58:c6:8b:95:39:3a:bb:b3:52:
        07:b1:42:9a:3d:a4:4a:16:62:d8:c5:41:57:d8:2b:7d:c4:a4:
        b1:93:39:54:cc:7e:52:ed:d3:75:f1:95:25:83:54:65:50:3e:
        95:62:a8:57:0a:67:29:56:57:45:41:8b:04:bd:34:e0:81:52:
        ad:2c:85:99:7c:62:b0:cf:17:70:6e:2e:02:1e:7c:f2:15:33:
        aa:ff:79:d6:8b:c7:c9:ff:01:34:1f:ef:52:e4:bb:3b:ef:1a:
        6b:1d:e6:46:65:51:9c:65:40:47:ef:58:b1:5e:cc:4c:df:af:
        7b:b8:19:db:9f:1e:98:f3:43:ea:ef:52:e7:28:e1:28:1c:63:
        a7:5e:01:f8
-----BEGIN CERTIFICATE-----
MIIEDTCCAvWgAwIBAgICEAAwDQYJKoZIhvcNAQELBQAwgYkxCzAJBgNVBAYTAlVT
MRAwDgYDVQQIDAdGbG9yaWRhMRAwDgYDVQQHDAdKdXBpdGVyMQ4wDAYDVQQKDAVa
ZXJvQzEMMAoGA1UECwwDSWNlMRgwFgYDVQQDDA9aZXJvQyBUZXN0IENBIDIxHjAc
BgkqhkiG9w0BCQEWD3Rlc3RzQHplcm9jLmNvbTAeFw0yNTA1MjIxNjE2MDZaFw0y
NjA2MjQxNjE2MDZaMIGFMQ8wDQYDVQQDDAZjbGllbnQxCzAJBgNVBAYTAlVTMRAw
DgYDVQQIDAdGbG9yaWRhMRAwDgYDVQQHDAdKdXBpdGVyMRQwEgYDVQQKDAtaZXJv
QywgSW5jLjEMMAoGA1UECwwDSWNlMR0wGwYJKoZIhvcNAQkBFg5pbmZvQHplcm9j
LmNvbTCCASIwDQYJKoZIhvcNAQEBBQADggEPADCCAQoCggEBAI9asnQz6BDkouQD
JVPoBDkeE/zXZe1UMTlZSsHXHsChjdeSC7kkSL2438qzm9tBGft//tPiYHY2u7+Q
sLmmPRqQSlWuDiKkZ3QJVIb6YRtbpYkN3uTePx98hPra4kfzwzzgHlR1TbmdsICd
tBaM7ph0amU7Ilv+0Jl+GiWLuWbUi10UF5bSMp10+lNrAKSWArfkm1uivWSa35f6
pjZbHBpqNzos1dILxQ3hxAWbzao2Sxej7TIOAaLh6UAPEFgynBTbBHwxhOb1fQU7
1xAslRkNu2NNHMle5G/IkU28AxE20pqew/uZg/QjgarXjoePNzTomVCSysiNnHR2
f8Gby+cCAwEAAaOBgDB+MB0GA1UdDgQWBBQ+OOxsdiXNp0wv90zzSn6laI92+TAf
BgNVHSMEGDAWgBSOGaPQkgQu0R6LzBdBZWojSvWALTAOBgNVHQ8BAf8EBAMCBeAw
EwYDVR0lBAwwCgYIKwYBBQUHAwIwFwYDVR0RBBAwDoIGY2xpZW50hwR/AAABMA0G
CSqGSIb3DQEBCwUAA4IBAQCKLhn7GQjq/nkFS3Gp0YCVvWnF48RlH4kVJSLZLIYH
qIBySMTg6EBaEo2yr5u7mZ5diuf+zIpr/CXp7gDPs8Ak5ZgsI6O8vlHH26IKHRlZ
qQn5DPz97WnR+oxUd5X47oG1xtMtqGw6LnGDi6rrjozJW+bkjTZYxouVOTq7s1IH
sUKaPaRKFmLYxUFX2Ct9xKSxkzlUzH5S7dN18ZUlg1RlUD6VYqhXCmcpVldFQYsE
vTTggVKtLIWZfGKwzxdwbi4CHnzyFTOq/3nWi8fJ/wE0H+9S5Ls77xprHeZGZVGc
ZUBH71ixXsxM3697uBnbnx6Y80Pq71LnKOEoHGOnXgH4
-----END CERTIFICATE-----
