Certificate:
    Data:
        Version: 3 (0x2)
        Serial Number: 4096 (0x1000)
        Signature Algorithm: sha256WithRSAEncryption
        Issuer: C=US, ST=Florida, L=Jupiter, O=ZeroC, OU=Ice, CN=ZeroC Test CA 2/emailAddress=tests@zeroc.com
        Validity
            Not Before: May 22 15:10:12 2025 GMT
            Not After : Jun 24 15:10:12 2026 GMT
        Subject: CN=client, C=US, ST=Florida, L=Jupiter, O=ZeroC, Inc., OU=Ice/emailAddress=info@zeroc.com
        Subject Public Key Info:
            Public Key Algorithm: rsaEncryption
                Public-Key: (2048 bit)
                Modulus:
                    00:a2:cd:a9:4a:d9:09:2b:95:71:7b:d3:d9:d5:08:
                    fc:03:3e:f5:c1:e9:d9:88:12:93:6c:83:e6:68:2a:
                    e7:9e:ce:95:e7:a1:1e:a9:64:35:ba:91:5c:e1:4c:
                    28:45:ca:c8:61:dd:29:9e:90:a8:fd:85:78:91:22:
                    ae:b6:c2:19:51:f0:45:d8:51:cf:2f:08:f7:db:a3:
                    61:f4:5e:7d:c8:7b:79:ae:76:99:11:2d:78:33:cf:
                    ba:47:9b:0e:b8:75:4d:6a:1b:41:75:99:90:59:f4:
                    3f:a7:ed:2a:02:f1:79:53:79:f2:61:95:8e:0d:af:
                    1c:21:c5:0c:6d:65:67:2a:e7:fa:e8:f0:1f:a0:3f:
                    46:b0:d0:d9:b6:93:58:95:a7:55:22:c0:5a:f4:a7:
                    ab:98:2f:21:4a:78:64:05:3e:c3:65:0b:73:ab:aa:
                    da:61:64:72:b6:4b:80:68:eb:ce:03:99:af:eb:7d:
                    d4:78:5d:23:a4:ca:e6:8e:0d:85:a5:08:81:16:28:
                    1b:b5:54:9f:f9:b8:c2:7c:2b:a8:0a:2f:94:78:b3:
                    7f:ca:39:fb:e3:5b:1d:97:80:2f:c8:79:31:54:71:
                    17:d8:01:ad:db:c4:36:c7:91:fd:bd:a5:49:e4:a4:
                    e7:b6:de:65:c6:f9:66:99:4d:48:cf:b8:b1:b3:7c:
                    bf:0b
                Exponent: 65537 (0x10001)
        X509v3 extensions:
            X509v3 Subject Key Identifier: 
                A1:6C:2B:1A:20:D6:A9:A8:37:A9:F6:85:02:F4:AD:F4:71:B5:EF:D8
            X509v3 Authority Key Identifier: 
                FE:C9:B1:BF:83:4E:16:D6:43:CE:20:B6:26:73:A5:8E:CA:A9:53:3B
            X509v3 Key Usage: critical
                Digital Signature, Non Repudiation, Key Encipherment
            X509v3 Extended Key Usage: 
                TLS Web Client Authentication
            X509v3 Subject Alternative Name: 
                DNS:client, IP Address:127.0.0.1
    Signature Algorithm: sha256WithRSAEncryption
    Signature Value:
        22:28:1b:31:7c:ab:40:1c:bb:33:f3:a1:ce:70:a2:6a:bc:ec:
        0e:89:3d:11:cd:29:e1:2e:80:e7:49:ac:04:9c:21:9b:01:4b:
        dc:85:ff:5e:fe:8d:ce:32:db:c1:29:d3:3a:7d:b7:1a:ea:24:
        c7:fc:04:41:16:d9:ce:d3:24:12:5a:34:e6:1c:ae:22:96:22:
        d4:20:0c:5c:00:e8:6c:39:5d:28:28:ed:84:f5:6d:09:52:f9:
        7c:b0:bd:06:fe:e7:24:84:fe:00:3c:12:c5:9b:61:df:c8:ec:
        3d:45:b7:3f:e7:d4:12:45:df:26:0e:7c:9a:80:00:b4:40:11:
        7c:d2:d8:48:e1:4a:43:ee:1b:9c:99:95:65:7a:ef:b6:ee:82:
        c9:ee:87:a5:5e:0a:70:4b:06:71:15:de:0c:5b:b7:02:25:bd:
        1b:fb:99:06:01:e6:33:5b:9d:66:64:94:d3:68:53:3c:a6:11:
        ca:72:7e:00:d3:60:68:cf:7e:42:38:62:c7:f6:c1:2a:3e:29:
        45:61:eb:ab:72:63:a1:ca:69:84:4a:d8:7f:2d:50:42:9c:76:
        2e:c7:96:4f:4d:52:51:4c:08:bb:8c:d7:a0:6d:3a:a9:ec:bd:
        1a:8e:9c:33:72:c2:78:24:c2:1d:7e:cf:5d:d9:88:9d:7c:b1:
        04:a8:12:69
-----BEGIN CERTIFICATE-----
MIIEDTCCAvWgAwIBAgICEAAwDQYJKoZIhvcNAQELBQAwgYkxCzAJBgNVBAYTAlVT
MRAwDgYDVQQIDAdGbG9yaWRhMRAwDgYDVQQHDAdKdXBpdGVyMQ4wDAYDVQQKDAVa
ZXJvQzEMMAoGA1UECwwDSWNlMRgwFgYDVQQDDA9aZXJvQyBUZXN0IENBIDIxHjAc
BgkqhkiG9w0BCQEWD3Rlc3RzQHplcm9jLmNvbTAeFw0yNTA1MjIxNTEwMTJaFw0y
NjA2MjQxNTEwMTJaMIGFMQ8wDQYDVQQDDAZjbGllbnQxCzAJBgNVBAYTAlVTMRAw
DgYDVQQIDAdGbG9yaWRhMRAwDgYDVQQHDAdKdXBpdGVyMRQwEgYDVQQKDAtaZXJv
QywgSW5jLjEMMAoGA1UECwwDSWNlMR0wGwYJKoZIhvcNAQkBFg5pbmZvQHplcm9j
LmNvbTCCASIwDQYJKoZIhvcNAQEBBQADggEPADCCAQoCggEBAKLNqUrZCSuVcXvT
2dUI/AM+9cHp2YgSk2yD5mgq557OleehHqlkNbqRXOFMKEXKyGHdKZ6QqP2FeJEi
rrbCGVHwRdhRzy8I99ujYfRefch7ea52mREteDPPukebDrh1TWobQXWZkFn0P6ft
KgLxeVN58mGVjg2vHCHFDG1lZyrn+ujwH6A/RrDQ2baTWJWnVSLAWvSnq5gvIUp4
ZAU+w2ULc6uq2mFkcrZLgGjrzgOZr+t91HhdI6TK5o4NhaUIgRYoG7VUn/m4wnwr
qAovlHizf8o5++NbHZeAL8h5MVRxF9gBrdvENseR/b2lSeSk57beZcb5ZplNSM+4
sbN8vwsCAwEAAaOBgDB+MB0GA1UdDgQWBBShbCsaINapqDep9oUC9K30cbXv2DAf
BgNVHSMEGDAWgBT+ybG/g04W1kPOILYmc6WOyqlTOzAOBgNVHQ8BAf8EBAMCBeAw
EwYDVR0lBAwwCgYIKwYBBQUHAwIwFwYDVR0RBBAwDoIGY2xpZW50hwR/AAABMA0G
CSqGSIb3DQEBCwUAA4IBAQAiKBsxfKtAHLsz86HOcKJqvOwOiT0RzSnhLoDnSawE
nCGbAUvchf9e/o3OMtvBKdM6fbca6iTH/ARBFtnO0yQSWjTmHK4iliLUIAxcAOhs
OV0oKO2E9W0JUvl8sL0G/uckhP4APBLFm2HfyOw9Rbc/59QSRd8mDnyagAC0QBF8
0thI4UpD7hucmZVleu+27oLJ7oelXgpwSwZxFd4MW7cCJb0b+5kGAeYzW51mZJTT
aFM8phHKcn4A02Boz35COGLH9sEqPilFYeurcmOhymmESth/LVBCnHYux5ZPTVJR
TAi7jNegbTqp7L0ajpwzcsJ4JMIdfs9d2YidfLEEqBJp
-----END CERTIFICATE-----
