Certificate:
    Data:
        Version: 3 (0x2)
        Serial Number: 4096 (0x1000)
        Signature Algorithm: sha256WithRSAEncryption
        Issuer: C=US, ST=Florida, L=Jupiter, O=ZeroC, OU=Ice, CN=ZeroC Test CA 2/emailAddress=tests@zeroc.com
        Validity
            Not Before: May 22 16:55:10 2025 GMT
            Not After : Jun 24 16:55:10 2026 GMT
        Subject: CN=client, C=US, ST=Florida, L=Jupiter, O=ZeroC, Inc., OU=Ice/emailAddress=info@zeroc.com
        Subject Public Key Info:
            Public Key Algorithm: rsaEncryption
                Public-Key: (2048 bit)
                Modulus:
                    00:ab:2b:33:a8:fb:58:d5:81:69:4f:de:ab:5e:72:
                    26:01:1b:3b:40:cb:76:b5:24:cf:77:66:38:34:9f:
                    a2:b3:a0:97:37:e6:8c:ae:a3:63:63:a8:e5:7f:39:
                    c1:19:85:e6:49:84:71:57:3a:01:d6:48:da:df:43:
                    6b:fe:51:53:66:03:67:c5:3e:2d:16:b0:c6:c1:53:
                    4e:15:ab:77:64:3b:2b:31:af:b2:2a:9b:8b:7c:c5:
                    f8:9e:0d:e0:f7:ee:cb:fd:cb:e2:17:4d:76:d2:f4:
                    5f:2d:28:cb:d8:f7:fd:46:be:ea:17:92:f1:76:0e:
                    78:dd:ea:43:3c:01:39:ba:24:90:1d:b4:eb:67:a8:
                    92:f3:8c:f7:58:4e:35:27:15:00:38:3d:bf:9c:44:
                    95:92:63:be:16:43:94:43:49:b2:34:a9:85:58:a0:
                    36:0e:24:f7:b6:64:dc:0d:8e:02:af:ed:14:e4:74:
                    19:c2:95:fe:15:22:1f:51:e0:6b:64:50:9a:84:99:
                    e4:4f:6a:f8:c7:a1:76:c7:39:02:f5:25:55:dd:3c:
                    18:64:de:63:ad:58:13:f7:70:5d:b6:3f:d3:f3:8e:
                    5f:ac:68:75:94:ad:d3:50:48:f9:d3:a2:bf:6e:8b:
                    7b:0b:0d:bb:f9:3c:dc:4d:5d:e7:d1:d8:d7:51:b9:
                    c9:5f
                Exponent: 65537 (0x10001)
        X509v3 extensions:
            X509v3 Subject Key Identifier: 
                23:6B:FE:2D:29:99:64:28:12:0F:96:FD:BF:16:90:C5:30:34:0D:DB
            X509v3 Authority Key Identifier: 
                7E:75:83:C6:D8:8B:D9:B8:3E:03:94:F3:F8:39:34:6F:5D:93:29:B9
            X509v3 Key Usage: critical
                Digital Signature, Non Repudiation, Key Encipherment
            X509v3 Extended Key Usage: 
                TLS Web Client Authentication
            X509v3 Subject Alternative Name: 
                DNS:client, IP Address:127.0.0.1
    Signature Algorithm: sha256WithRSAEncryption
    Signature Value:
        2b:06:43:c7:90:53:4c:23:3e:c3:4d:0f:6b:5b:02:1d:21:c9:
        e3:11:40:71:39:3b:97:cb:8b:39:ce:96:eb:b9:dd:bc:62:33:
        c6:a5:11:ec:0c:54:6e:dd:bd:5b:df:4d:56:03:12:c3:3f:5a:
        5a:a2:43:84:a9:ca:4e:3e:bf:a7:2b:5b:bf:e0:71:ab:7c:4d:
        22:4b:78:21:d1:66:51:47:17:9c:08:18:64:36:a4:54:9a:0b:
        bf:9c:2a:5c:50:3d:be:e3:55:41:f2:46:b5:ad:21:9b:e2:09:
        ac:5a:61:42:6b:a6:7f:d6:6a:ad:6e:e3:8e:e8:71:7d:6f:2e:
        43:1a:cf:73:b5:f0:a8:fc:13:7f:77:67:52:6d:a3:77:19:05:
        10:df:de:4f:26:7b:d4:db:93:ac:b2:ab:95:f4:d6:75:f2:87:
        e0:81:b2:91:ad:00:e6:18:d7:9e:30:b9:e3:0f:62:57:cc:51:
        dd:62:69:ee:69:92:51:d0:39:4a:0a:87:37:8f:f0:55:00:6f:
        7b:17:b5:8c:20:6b:55:5e:c0:15:c1:7d:a2:2f:06:7b:2b:9e:
        54:05:ce:aa:94:46:b3:5a:48:25:b4:84:8f:23:3a:6c:a0:bd:
        cd:bc:df:a6:2f:86:1a:84:be:e4:2c:6a:04:4d:e9:43:b7:05:
        2c:b2:c0:12
-----BEGIN CERTIFICATE-----
MIIEDTCCAvWgAwIBAgICEAAwDQYJKoZIhvcNAQELBQAwgYkxCzAJBgNVBAYTAlVT
MRAwDgYDVQQIDAdGbG9yaWRhMRAwDgYDVQQHDAdKdXBpdGVyMQ4wDAYDVQQKDAVa
ZXJvQzEMMAoGA1UECwwDSWNlMRgwFgYDVQQDDA9aZXJvQyBUZXN0IENBIDIxHjAc
BgkqhkiG9w0BCQEWD3Rlc3RzQHplcm9jLmNvbTAeFw0yNTA1MjIxNjU1MTBaFw0y
NjA2MjQxNjU1MTBaMIGFMQ8wDQYDVQQDDAZjbGllbnQxCzAJBgNVBAYTAlVTMRAw
DgYDVQQIDAdGbG9yaWRhMRAwDgYDVQQHDAdKdXBpdGVyMRQwEgYDVQQKDAtaZXJv
QywgSW5jLjEMMAoGA1UECwwDSWNlMR0wGwYJKoZIhvcNAQkBFg5pbmZvQHplcm9j
LmNvbTCCASIwDQYJKoZIhvcNAQEBBQADggEPADCCAQoCggEBAKsrM6j7WNWBaU/e
q15yJgEbO0DLdrUkz3dmODSforOglzfmjK6jY2Oo5X85wRmF5kmEcVc6AdZI2t9D
a/5RU2YDZ8U+LRawxsFTThWrd2Q7KzGvsiqbi3zF+J4N4Pfuy/3L4hdNdtL0Xy0o
y9j3/Ua+6heS8XYOeN3qQzwBObokkB2062eokvOM91hONScVADg9v5xElZJjvhZD
lENJsjSphVigNg4k97Zk3A2OAq/tFOR0GcKV/hUiH1Hga2RQmoSZ5E9q+Mehdsc5
AvUlVd08GGTeY61YE/dwXbY/0/OOX6xodZSt01BI+dOiv26LewsNu/k83E1d59HY
11G5yV8CAwEAAaOBgDB+MB0GA1UdDgQWBBQja/4tKZlkKBIPlv2/FpDFMDQN2zAf
BgNVHSMEGDAWgBR+dYPG2IvZuD4DlPP4OTRvXZMpuTAOBgNVHQ8BAf8EBAMCBeAw
EwYDVR0lBAwwCgYIKwYBBQUHAwIwFwYDVR0RBBAwDoIGY2xpZW50hwR/AAABMA0G
CSqGSIb3DQEBCwUAA4IBAQArBkPHkFNMIz7DTQ9rWwIdIcnjEUBxOTuXy4s5zpbr
ud28YjPGpRHsDFRu3b1b301WAxLDP1paokOEqcpOPr+nK1u/4HGrfE0iS3gh0WZR
RxecCBhkNqRUmgu/nCpcUD2+41VB8ka1rSGb4gmsWmFCa6Z/1mqtbuOO6HF9by5D
Gs9ztfCo/BN/d2dSbaN3GQUQ395PJnvU25OssquV9NZ18ofggbKRrQDmGNeeMLnj
D2JXzFHdYmnuaZJR0DlKCoc3j/BVAG97F7WMIGtVXsAVwX2iLwZ7K55UBc6qlEaz
WkgltISPIzpsoL3NvN+mL4YahL7kLGoETelDtwUsssAS
-----END CERTIFICATE-----
