Certificate:
    Data:
        Version: 3 (0x2)
        Serial Number: 4097 (0x1001)
        Signature Algorithm: sha256WithRSAEncryption
        Issuer: C=US, ST=Florida, L=Jupiter, O=ZeroC, OU=Ice, CN=ZeroC Test CA 2/emailAddress=tests@zeroc.com
        Validity
            Not Before: May 22 16:55:16 2025 GMT
            Not After : Jun 24 16:55:16 2026 GMT
        Subject: CN=Server, C=US, ST=Florida, L=Jupiter, O=ZeroC, Inc., OU=Ice/emailAddress=info@zeroc.com
        Subject Public Key Info:
            Public Key Algorithm: rsaEncryption
                Public-Key: (2048 bit)
                Modulus:
                    00:87:f7:5f:47:41:1b:4c:cc:03:f3:32:21:df:69:
                    e5:19:c9:c4:13:1a:03:f0:9f:09:a4:2b:c1:97:1d:
                    88:95:fd:45:bd:9f:4b:d7:28:73:14:bf:62:d3:9e:
                    60:5c:30:54:5b:ca:a8:bf:08:fd:c5:16:6c:4d:a0:
                    24:42:b8:08:31:1c:b0:22:97:7f:03:fd:47:ee:14:
                    e9:69:ae:aa:18:e6:e2:9e:e8:58:64:68:0d:87:e8:
                    86:98:fe:d3:aa:8d:0f:37:54:8c:b1:56:5d:26:4b:
                    ce:d4:35:48:e5:19:ce:23:49:db:89:a6:97:50:1f:
                    79:04:29:07:5e:aa:ea:b7:58:67:51:ae:9b:c2:3c:
                    c3:c9:8d:79:f0:85:09:e1:32:f2:e7:5d:a5:37:52:
                    8e:a6:06:1a:5f:95:3d:d4:5b:aa:ea:ba:84:b4:28:
                    de:f3:d2:45:eb:a5:1b:76:56:b4:33:23:4a:7a:7c:
                    af:27:7f:39:62:28:a5:f5:79:a7:01:5c:8a:1d:e3:
                    7b:fe:64:41:84:be:a4:14:75:c3:a4:f0:00:a3:c1:
                    e6:11:5c:b5:d9:e9:46:79:f1:ad:16:59:63:92:77:
                    35:11:75:38:3f:b6:68:bc:08:60:73:a8:cd:aa:99:
                    56:82:b9:ed:5c:fc:b7:91:df:72:88:ff:85:e1:cb:
                    5b:93
                Exponent: 65537 (0x10001)
        X509v3 extensions:
            X509v3 Subject Key Identifier: 
                B5:46:EA:B4:34:B0:8F:CD:62:75:9D:34:D2:EE:75:D0:F0:D1:3D:E3
            X509v3 Authority Key Identifier: 
                7E:75:83:C6:D8:8B:D9:B8:3E:03:94:F3:F8:39:34:6F:5D:93:29:B9
            X509v3 Key Usage: critical
                Digital Signature, Non Repudiation, Key Encipherment
            X509v3 Extended Key Usage: 
                TLS Web Server Authentication, TLS Web Client Authentication
            X509v3 Subject Alternative Name: 
                DNS:server, IP Address:127.0.0.1
    Signature Algorithm: sha256WithRSAEncryption
    Signature Value:
        c7:c4:e0:c4:40:5a:09:cd:1e:97:c8:5c:2f:fb:aa:cb:ea:c7:
        28:6b:1b:19:e1:57:53:08:51:46:70:7a:6b:1f:c8:91:f0:63:
        2a:7b:a3:a7:10:f6:d4:a4:0f:80:f0:c9:e1:6b:f0:1f:7e:06:
        8f:98:95:51:e0:c7:df:f1:b6:e4:ca:00:de:d9:fc:7b:d1:93:
        98:54:a5:46:87:aa:0c:b5:53:6d:b5:d3:42:b6:f6:ce:e2:f3:
        f3:ce:af:80:cf:c0:38:7c:ff:32:9e:d2:b2:0f:8a:e1:7e:da:
        b3:30:81:0c:40:c2:e9:62:09:ea:92:85:34:e5:59:1b:a6:93:
        d2:34:7a:14:8f:06:5c:6d:1a:1f:75:29:cd:bb:2e:62:bf:b5:
        16:f8:59:e9:d7:3d:25:51:d5:28:3b:f8:53:f2:22:29:58:9b:
        f2:42:05:20:17:26:94:7e:6e:bf:7a:6b:9d:7a:f0:34:98:54:
        ce:c7:05:e0:a0:50:2c:4f:30:82:43:5a:11:98:37:80:fe:b3:
        92:80:c0:15:d5:d1:13:3f:87:83:3e:93:8d:04:67:b8:c6:18:
        f9:9e:6e:d6:bd:37:a0:6c:aa:d6:55:60:90:ca:4f:39:cb:12:
        e7:2c:5e:4f:16:d7:06:2f:f9:d5:26:72:71:eb:7c:ba:85:9c:
        c9:c0:85:66
-----BEGIN CERTIFICATE-----
MIIEGDCCAwCgAwIBAgICEAEwDQYJKoZIhvcNAQELBQAwgYkxCzAJBgNVBAYTAlVT
MRAwDgYDVQQIDAdGbG9yaWRhMRAwDgYDVQQHDAdKdXBpdGVyMQ4wDAYDVQQKDAVa
ZXJvQzEMMAoGA1UECwwDSWNlMRgwFgYDVQQDDA9aZXJvQyBUZXN0IENBIDIxHjAc
BgkqhkiG9w0BCQEWD3Rlc3RzQHplcm9jLmNvbTAeFw0yNTA1MjIxNjU1MTZaFw0y
NjA2MjQxNjU1MTZaMIGFMQ8wDQYDVQQDDAZTZXJ2ZXIxCzAJBgNVBAYTAlVTMRAw
DgYDVQQIDAdGbG9yaWRhMRAwDgYDVQQHDAdKdXBpdGVyMRQwEgYDVQQKDAtaZXJv
QywgSW5jLjEMMAoGA1UECwwDSWNlMR0wGwYJKoZIhvcNAQkBFg5pbmZvQHplcm9j
LmNvbTCCASIwDQYJKoZIhvcNAQEBBQADggEPADCCAQoCggEBAIf3X0dBG0zMA/My
Id9p5RnJxBMaA/CfCaQrwZcdiJX9Rb2fS9cocxS/YtOeYFwwVFvKqL8I/cUWbE2g
JEK4CDEcsCKXfwP9R+4U6Wmuqhjm4p7oWGRoDYfohpj+06qNDzdUjLFWXSZLztQ1
SOUZziNJ24mml1AfeQQpB16q6rdYZ1Gum8I8w8mNefCFCeEy8uddpTdSjqYGGl+V
PdRbquq6hLQo3vPSReulG3ZWtDMjSnp8ryd/OWIopfV5pwFcih3je/5kQYS+pBR1
w6TwAKPB5hFctdnpRnnxrRZZY5J3NRF1OD+2aLwIYHOozaqZVoK57Vz8t5Hfcoj/
heHLW5MCAwEAAaOBizCBiDAdBgNVHQ4EFgQUtUbqtDSwj81idZ000u510PDRPeMw
HwYDVR0jBBgwFoAUfnWDxtiL2bg+A5Tz+Dk0b12TKbkwDgYDVR0PAQH/BAQDAgXg
MB0GA1UdJQQWMBQGCCsGAQUFBwMBBggrBgEFBQcDAjAXBgNVHREEEDAOggZzZXJ2
ZXKHBH8AAAEwDQYJKoZIhvcNAQELBQADggEBAMfE4MRAWgnNHpfIXC/7qsvqxyhr
GxnhV1MIUUZwemsfyJHwYyp7o6cQ9tSkD4DwyeFr8B9+Bo+YlVHgx9/xtuTKAN7Z
/HvRk5hUpUaHqgy1U22100K29s7i8/POr4DPwDh8/zKe0rIPiuF+2rMwgQxAwuli
CeqShTTlWRumk9I0ehSPBlxtGh91Kc27LmK/tRb4WenXPSVR1Sg7+FPyIilYm/JC
BSAXJpR+br96a5168DSYVM7HBeCgUCxPMIJDWhGYN4D+s5KAwBXV0RM/h4M+k40E
Z7jGGPmebta9N6BsqtZVYJDKTznLEucsXk8W1wYv+dUmcnHrfLqFnMnAhWY=
-----END CERTIFICATE-----
