Certificate:
    Data:
        Version: 3 (0x2)
        Serial Number: 4097 (0x1001)
        Signature Algorithm: sha256WithRSAEncryption
        Issuer: C=US, ST=Florida, L=Jupiter, O=ZeroC, OU=Ice, CN=ZeroC Test CA 2/emailAddress=tests@zeroc.com
        Validity
            Not Before: May 22 15:10:17 2025 GMT
            Not After : Jun 24 15:10:17 2026 GMT
        Subject: CN=Server, C=US, ST=Florida, L=Jupiter, O=ZeroC, Inc., OU=Ice/emailAddress=info@zeroc.com
        Subject Public Key Info:
            Public Key Algorithm: rsaEncryption
                Public-Key: (2048 bit)
                Modulus:
                    00:c7:2f:84:78:37:6f:99:4b:fa:e7:9a:1d:17:3c:
                    1d:dd:b4:46:6d:e4:f7:f4:f7:cb:4e:77:3a:99:e0:
                    ea:d7:77:20:dd:0f:1e:d9:d1:34:89:db:05:c8:f9:
                    4b:ee:20:ec:6a:eb:d0:65:bf:52:52:fb:81:23:da:
                    c4:48:53:ef:5b:ce:1a:ac:7f:70:8e:05:ab:4b:12:
                    95:fa:f9:8a:29:71:b8:30:50:1a:eb:88:a5:fd:dd:
                    7e:0d:51:17:2e:ec:37:a0:3e:6d:58:1c:56:8d:5b:
                    3e:b9:16:4e:10:e3:36:ff:b0:09:7e:b1:b8:25:44:
                    a8:c6:6a:46:5d:9e:3a:50:a3:db:e1:4e:39:01:cf:
                    10:c0:48:b9:db:99:23:e8:8c:35:cf:df:4a:7b:aa:
                    de:bf:1a:26:c9:58:5e:c0:4f:80:6b:12:66:e7:32:
                    c6:24:9a:4a:45:3e:70:62:c9:65:6b:fc:16:00:d7:
                    82:70:5e:f2:82:b5:63:57:0b:a2:75:1f:b6:07:ab:
                    b8:02:99:1d:ab:d0:8a:a1:51:57:11:72:9e:c1:da:
                    85:40:e4:29:5b:21:62:d7:68:95:2a:a9:7e:3e:cf:
                    e3:3f:3c:a3:61:f9:89:ce:d3:aa:69:91:f8:08:7f:
                    f1:f1:39:0e:1c:e0:59:72:3b:8c:7d:ac:38:03:1c:
                    da:cb
                Exponent: 65537 (0x10001)
        X509v3 extensions:
            X509v3 Subject Key Identifier: 
                39:8A:5E:9A:F4:5C:AB:21:E1:C9:F6:76:B5:79:F4:B8:CA:61:80:21
            X509v3 Authority Key Identifier: 
                FE:C9:B1:BF:83:4E:16:D6:43:CE:20:B6:26:73:A5:8E:CA:A9:53:3B
            X509v3 Key Usage: critical
                Digital Signature, Non Repudiation, Key Encipherment
            X509v3 Extended Key Usage: 
                TLS Web Server Authentication, TLS Web Client Authentication
            X509v3 Subject Alternative Name: 
                DNS:server, IP Address:127.0.0.1
    Signature Algorithm: sha256WithRSAEncryption
    Signature Value:
        08:01:b1:6e:e8:24:11:96:8c:cf:24:19:02:ac:83:4d:69:e1:
        73:9d:60:95:6f:9a:51:eb:29:75:f9:0b:07:1b:09:f2:39:16:
        e6:70:02:52:ae:a2:d0:1e:49:e5:42:05:2e:85:bc:bd:64:e0:
        32:85:ef:25:f2:1a:dd:e4:11:2e:1b:75:c7:59:22:a8:3f:d0:
        ac:a8:ac:fc:4a:92:31:bc:12:74:15:e3:3c:d7:05:8a:72:82:
        68:ee:24:5c:8e:60:b1:a4:39:3e:da:89:d7:3a:93:26:e6:f6:
        ec:e8:87:c3:25:1b:32:9b:42:11:7b:a9:97:61:88:a5:65:ad:
        23:25:41:86:f6:20:05:e3:9f:4b:1a:57:c5:bb:30:9b:88:0a:
        db:13:68:83:b9:fd:17:d1:b1:e6:cf:87:6f:71:68:a8:bd:d3:
        9c:aa:e2:74:5a:b5:3c:ef:01:f9:07:2c:f4:c9:4e:8b:91:02:
        dc:87:71:b7:f6:25:58:49:7f:66:d0:da:07:5b:b7:bf:d8:a0:
        28:85:22:3b:57:26:a4:e5:70:db:4e:87:5f:ab:df:fe:04:8f:
        f4:70:39:dc:45:0d:46:11:31:00:47:1c:d1:d5:44:5f:6a:ee:
        ec:8c:6a:7a:d8:a2:ce:d2:45:e7:bb:ec:e4:ec:f0:1c:c6:dc:
        30:4c:f6:35
-----BEGIN CERTIFICATE-----
MIIEGDCCAwCgAwIBAgICEAEwDQYJKoZIhvcNAQELBQAwgYkxCzAJBgNVBAYTAlVT
MRAwDgYDVQQIDAdGbG9yaWRhMRAwDgYDVQQHDAdKdXBpdGVyMQ4wDAYDVQQKDAVa
ZXJvQzEMMAoGA1UECwwDSWNlMRgwFgYDVQQDDA9aZXJvQyBUZXN0IENBIDIxHjAc
BgkqhkiG9w0BCQEWD3Rlc3RzQHplcm9jLmNvbTAeFw0yNTA1MjIxNTEwMTdaFw0y
NjA2MjQxNTEwMTdaMIGFMQ8wDQYDVQQDDAZTZXJ2ZXIxCzAJBgNVBAYTAlVTMRAw
DgYDVQQIDAdGbG9yaWRhMRAwDgYDVQQHDAdKdXBpdGVyMRQwEgYDVQQKDAtaZXJv
QywgSW5jLjEMMAoGA1UECwwDSWNlMR0wGwYJKoZIhvcNAQkBFg5pbmZvQHplcm9j
LmNvbTCCASIwDQYJKoZIhvcNAQEBBQADggEPADCCAQoCggEBAMcvhHg3b5lL+uea
HRc8Hd20Rm3k9/T3y053Opng6td3IN0PHtnRNInbBcj5S+4g7Grr0GW/UlL7gSPa
xEhT71vOGqx/cI4Fq0sSlfr5iilxuDBQGuuIpf3dfg1RFy7sN6A+bVgcVo1bPrkW
ThDjNv+wCX6xuCVEqMZqRl2eOlCj2+FOOQHPEMBIuduZI+iMNc/fSnuq3r8aJslY
XsBPgGsSZucyxiSaSkU+cGLJZWv8FgDXgnBe8oK1Y1cLonUftgeruAKZHavQiqFR
VxFynsHahUDkKVshYtdolSqpfj7P4z88o2H5ic7TqmmR+Ah/8fE5DhzgWXI7jH2s
OAMc2ssCAwEAAaOBizCBiDAdBgNVHQ4EFgQUOYpemvRcqyHhyfZ2tXn0uMphgCEw
HwYDVR0jBBgwFoAU/smxv4NOFtZDziC2JnOljsqpUzswDgYDVR0PAQH/BAQDAgXg
MB0GA1UdJQQWMBQGCCsGAQUFBwMBBggrBgEFBQcDAjAXBgNVHREEEDAOggZzZXJ2
ZXKHBH8AAAEwDQYJKoZIhvcNAQELBQADggEBAAgBsW7oJBGWjM8kGQKsg01p4XOd
YJVvmlHrKXX5CwcbCfI5FuZwAlKuotAeSeVCBS6FvL1k4DKF7yXyGt3kES4bdcdZ
Iqg/0KyorPxKkjG8EnQV4zzXBYpygmjuJFyOYLGkOT7aidc6kybm9uzoh8MlGzKb
QhF7qZdhiKVlrSMlQYb2IAXjn0saV8W7MJuICtsTaIO5/RfRsebPh29xaKi905yq
4nRatTzvAfkHLPTJTouRAtyHcbf2JVhJf2bQ2gdbt7/YoCiFIjtXJqTlcNtOh1+r
3/4Ej/RwOdxFDUYRMQBHHNHVRF9q7uyManrYos7SRee77OTs8BzG3DBM9jU=
-----END CERTIFICATE-----
