Certificate:
    Data:
        Version: 3 (0x2)
        Serial Number: 4096 (0x1000)
        Signature Algorithm: sha256WithRSAEncryption
        Issuer: CN=ZeroC Test Intermediate 1 CA, C=US, ST=Florida, L=Jupiter, O=ZeroC, OU=Ice Test Infrastructure/emailAddress=tests@zeroc.com
        Validity
            Not Before: May 22 16:16:14 2025 GMT
            Not After : Jun 24 16:16:14 2026 GMT
        Subject: CN=Server Revoked, C=US, ST=Florida, L=Jupiter, O=ZeroC, Inc., OU=Ice/emailAddress=info@zeroc.com
        Subject Public Key Info:
            Public Key Algorithm: rsaEncryption
                Public-Key: (2048 bit)
                Modulus:
                    00:b9:39:55:d6:e3:25:93:04:23:e9:4f:64:70:70:
                    5f:c0:04:cd:e5:d3:e9:a6:62:c5:31:4c:a0:c3:f4:
                    9e:f0:a9:5e:af:c1:37:da:df:f3:40:b8:29:b4:27:
                    3a:33:98:bf:95:93:c7:1a:4c:97:7d:ad:25:cd:15:
                    79:a2:c6:37:e3:cd:fc:df:28:1a:66:bf:12:cb:b8:
                    5c:f7:a1:e6:5e:d2:d4:a8:58:4e:1a:28:77:c5:25:
                    d3:7a:b8:6c:a5:d5:bd:cc:c3:de:65:5c:3b:6d:2a:
                    84:0d:9f:14:a9:89:d9:e4:87:97:86:44:f1:1d:2d:
                    4a:6f:88:95:8a:9e:3d:c9:e4:49:52:2f:a3:f3:5b:
                    16:aa:da:d2:c2:94:bf:9e:e8:44:e0:1a:23:7c:68:
                    f2:3a:35:4d:04:89:85:3f:88:c1:65:ed:a1:22:c8:
                    54:6b:ff:5f:e5:2d:38:1f:ea:01:2d:d7:08:53:35:
                    c0:90:fa:ed:54:92:74:7a:0a:e4:ea:70:d9:a6:f9:
                    8d:ac:b5:6b:79:24:0b:1d:6f:93:64:01:60:9d:01:
                    38:4d:ea:73:89:e9:27:19:ae:65:8c:86:fb:3f:fe:
                    57:9a:38:87:98:2f:06:48:4b:6d:db:70:94:a8:f2:
                    50:de:4a:fd:3a:3a:63:b3:9f:3a:7f:29:c5:3b:f6:
                    c9:93
                Exponent: 65537 (0x10001)
        X509v3 extensions:
            X509v3 Subject Key Identifier: 
                F3:DC:19:70:DD:72:62:4F:51:B0:22:A9:DF:5E:FA:FC:E1:0D:CD:B9
            X509v3 Authority Key Identifier: 
                6D:21:CB:82:2F:A9:CA:E0:94:EC:9A:C0:AE:BA:F0:FA:2A:61:40:25
            X509v3 Key Usage: critical
                Digital Signature, Non Repudiation, Key Encipherment
            X509v3 Extended Key Usage: 
                TLS Web Client Authentication
            Authority Information Access: 
                OCSP - URI:http://127.0.0.1:20002
                CA Issuers - URI:http://127.0.0.1:20001/ca4/ca4_cert.der
            X509v3 Subject Alternative Name: 
                IP Address:127.0.0.1, DNS:client
    Signature Algorithm: sha256WithRSAEncryption
    Signature Value:
        d6:4b:44:22:d5:00:36:34:c2:30:77:c1:8a:6f:ff:11:67:3f:
        19:90:e0:75:29:cc:13:53:f6:cf:e0:14:1e:2c:1e:98:d3:38:
        6b:7f:5a:67:49:29:9c:4a:44:92:a3:78:90:53:d2:55:97:1c:
        22:43:d5:d7:ab:a6:e0:80:18:25:39:f3:22:d8:3d:4c:81:46:
        17:00:8b:3d:f0:3d:e1:96:cb:ed:a2:22:3c:1a:8a:05:b2:f0:
        26:12:4c:f1:9e:a7:78:89:dc:d9:0f:07:c7:40:4d:0f:c9:a8:
        97:c3:38:f1:56:78:06:bf:cc:39:06:1c:cf:fb:33:59:16:cd:
        6f:f4:41:35:f3:92:27:56:91:cd:70:79:cf:9a:1a:e8:c4:b2:
        e0:6d:83:d3:20:a2:d3:2b:6c:fd:ed:cf:3d:10:0d:04:07:af:
        da:ee:ae:38:bc:e6:4f:b9:a5:ed:d0:c7:c5:41:f4:24:9e:21:
        7a:0e:a0:3f:f5:c0:27:7b:16:f4:3e:64:9b:a6:f1:55:a8:30:
        f4:d2:00:a1:61:a0:dd:ca:13:ad:82:c0:0f:3b:dd:3c:41:8e:
        58:b7:ad:2d:15:2a:7c:27:1d:23:56:f3:e8:93:e1:2e:10:45:
        43:16:10:0e:6d:3a:61:10:e4:6c:65:1e:82:7a:ad:f8:e0:30:
        20:dd:8a:8c
-----BEGIN CERTIFICATE-----
MIIEoDCCA4igAwIBAgICEAAwDQYJKoZIhvcNAQELBQAwgaoxJTAjBgNVBAMMHFpl
cm9DIFRlc3QgSW50ZXJtZWRpYXRlIDEgQ0ExCzAJBgNVBAYTAlVTMRAwDgYDVQQI
DAdGbG9yaWRhMRAwDgYDVQQHDAdKdXBpdGVyMQ4wDAYDVQQKDAVaZXJvQzEgMB4G
A1UECwwXSWNlIFRlc3QgSW5mcmFzdHJ1Y3R1cmUxHjAcBgkqhkiG9w0BCQEWD3Rl
c3RzQHplcm9jLmNvbTAeFw0yNTA1MjIxNjE2MTRaFw0yNjA2MjQxNjE2MTRaMIGN
MRcwFQYDVQQDDA5TZXJ2ZXIgUmV2b2tlZDELMAkGA1UEBhMCVVMxEDAOBgNVBAgM
B0Zsb3JpZGExEDAOBgNVBAcMB0p1cGl0ZXIxFDASBgNVBAoMC1plcm9DLCBJbmMu
MQwwCgYDVQQLDANJY2UxHTAbBgkqhkiG9w0BCQEWDmluZm9AemVyb2MuY29tMIIB
IjANBgkqhkiG9w0BAQEFAAOCAQ8AMIIBCgKCAQEAuTlV1uMlkwQj6U9kcHBfwATN
5dPppmLFMUygw/Se8Kler8E32t/zQLgptCc6M5i/lZPHGkyXfa0lzRV5osY34838
3ygaZr8Sy7hc96HmXtLUqFhOGih3xSXTerhspdW9zMPeZVw7bSqEDZ8UqYnZ5IeX
hkTxHS1Kb4iVip49yeRJUi+j81sWqtrSwpS/nuhE4BojfGjyOjVNBImFP4jBZe2h
IshUa/9f5S04H+oBLdcIUzXAkPrtVJJ0egrk6nDZpvmNrLVreSQLHW+TZAFgnQE4
TepzieknGa5ljIb7P/5XmjiHmC8GSEtt23CUqPJQ3kr9Ojpjs586fynFO/bJkwID
AQABo4HqMIHnMB0GA1UdDgQWBBTz3Blw3XJiT1GwIqnfXvr84Q3NuTAfBgNVHSME
GDAWgBRtIcuCL6nK4JTsmsCuuvD6KmFAJTAOBgNVHQ8BAf8EBAMCBeAwEwYDVR0l
BAwwCgYIKwYBBQUHAwIwZwYIKwYBBQUHAQEEWzBZMCIGCCsGAQUFBzABhhZodHRw
Oi8vMTI3LjAuMC4xOjIwMDAyMDMGCCsGAQUFBzAChidodHRwOi8vMTI3LjAuMC4x
OjIwMDAxL2NhNC9jYTRfY2VydC5kZXIwFwYDVR0RBBAwDocEfwAAAYIGY2xpZW50
MA0GCSqGSIb3DQEBCwUAA4IBAQDWS0Qi1QA2NMIwd8GKb/8RZz8ZkOB1KcwTU/bP
4BQeLB6Y0zhrf1pnSSmcSkSSo3iQU9JVlxwiQ9XXq6bggBglOfMi2D1MgUYXAIs9
8D3hlsvtoiI8GooFsvAmEkzxnqd4idzZDwfHQE0PyaiXwzjxVngGv8w5BhzP+zNZ
Fs1v9EE185InVpHNcHnPmhroxLLgbYPTIKLTK2z97c89EA0EB6/a7q44vOZPuaXt
0MfFQfQkniF6DqA/9cAnexb0PmSbpvFVqDD00gChYaDdyhOtgsAPO908QY5Yt60t
FSp8Jx0jVvPok+EuEEVDFhAObTphEORsZR6Ceq344DAg3YqM
-----END CERTIFICATE-----
