Certificate:
    Data:
        Version: 3 (0x2)
        Serial Number: 4096 (0x1000)
        Signature Algorithm: sha256WithRSAEncryption
        Issuer: CN=ZeroC Test Intermediate 1 CA, C=US, ST=Florida, L=Jupiter, O=ZeroC, OU=Ice Test Infrastructure/emailAddress=tests@zeroc.com
        Validity
            Not Before: May 22 15:10:19 2025 GMT
            Not After : Jun 24 15:10:19 2026 GMT
        Subject: CN=Server Revoked, C=US, ST=Florida, L=Jupiter, O=ZeroC, Inc., OU=Ice/emailAddress=info@zeroc.com
        Subject Public Key Info:
            Public Key Algorithm: rsaEncryption
                Public-Key: (2048 bit)
                Modulus:
                    00:b6:e4:b4:4c:80:75:d1:03:f5:3d:4c:95:eb:87:
                    40:bb:85:92:72:d3:11:82:7e:83:fa:0c:bd:3b:96:
                    45:76:2d:42:d0:79:47:df:1e:e3:b6:74:62:12:4c:
                    6c:2b:f7:62:49:f5:7b:71:93:f6:85:fe:7a:78:bf:
                    26:7b:81:1f:cf:a6:61:5a:8b:d5:e6:e0:91:e1:2b:
                    db:d4:71:55:e3:36:c8:a9:b6:90:6f:c5:62:d6:40:
                    28:5f:7d:e2:66:86:02:fa:db:b9:64:52:81:a9:cb:
                    4d:fb:3c:ea:fc:36:af:00:b0:eb:be:eb:8d:66:03:
                    43:be:f6:2c:4a:57:b5:67:6a:61:c9:be:37:8a:7d:
                    2a:71:e3:2f:1b:fd:6d:eb:99:bc:b6:9b:da:a1:99:
                    a3:9d:5d:30:f3:9a:ed:f5:77:e5:58:a9:c8:21:70:
                    5a:e9:ca:7d:f4:5d:a8:9d:f7:a8:44:7e:16:77:39:
                    6f:0e:5a:e6:ef:52:20:42:0a:4e:6f:6d:1a:e4:40:
                    63:4c:10:2a:bb:e5:72:8d:5f:43:2e:e1:ff:ba:c8:
                    ef:51:0e:fe:e4:0b:bb:90:61:59:43:21:46:67:aa:
                    7b:46:44:0a:30:95:13:15:b6:50:ca:c9:7e:f4:37:
                    d0:69:90:c5:80:fc:19:62:97:fe:cc:ba:6d:e9:bc:
                    3f:49
                Exponent: 65537 (0x10001)
        X509v3 extensions:
            X509v3 Subject Key Identifier: 
                5C:30:D1:D3:F0:52:AE:EC:41:56:1D:A0:71:D4:41:0F:26:E7:89:EE
            X509v3 Authority Key Identifier: 
                89:FF:D8:B6:36:33:3A:ED:9C:B7:8B:0A:A0:6E:EC:35:E1:82:72:3F
            X509v3 Key Usage: critical
                Digital Signature, Non Repudiation, Key Encipherment
            X509v3 Extended Key Usage: 
                TLS Web Client Authentication
            Authority Information Access: 
                OCSP - URI:http://127.0.0.1:20002
                CA Issuers - URI:http://127.0.0.1:20001/ca4/ca4_cert.der
            X509v3 Subject Alternative Name: 
                IP Address:127.0.0.1, DNS:client
    Signature Algorithm: sha256WithRSAEncryption
    Signature Value:
        23:73:55:28:32:f0:90:c8:3f:8b:dc:96:06:5d:d1:87:a9:b9:
        17:9f:1d:4a:86:d5:f7:05:40:8f:df:28:b9:aa:d1:09:70:76:
        b5:d8:74:77:7d:f4:32:82:29:91:a6:1b:aa:d1:36:09:fe:fe:
        6f:80:d8:59:32:ae:00:35:d9:ad:39:5d:42:80:6f:f1:c8:34:
        df:47:ee:86:57:35:d3:8e:1e:86:7c:b9:39:3e:27:e5:0d:c5:
        4c:fc:7c:e7:4f:f2:ee:7b:8e:e8:c7:b5:f8:ab:1a:a7:b1:11:
        b5:1c:bb:51:52:16:16:01:80:91:c6:cb:cd:7a:7e:fb:0b:3a:
        c7:4d:ba:5a:17:f6:5d:d2:49:3a:06:35:e1:47:ad:bf:e2:76:
        ce:9c:ea:7f:bd:97:a7:fe:9e:7d:67:a0:40:79:ff:64:6f:37:
        85:74:be:d3:42:43:0d:c2:e9:39:1e:17:e2:c8:73:1a:90:1e:
        ba:45:8b:04:02:e2:8a:22:14:9f:9d:ed:85:48:1c:e7:ee:33:
        9f:86:c0:f9:9e:08:d7:18:93:41:90:c4:20:aa:8c:54:31:23:
        ce:b0:0d:53:f6:da:67:2d:80:17:50:30:24:e7:06:f3:9e:b1:
        5b:7f:37:2d:3a:1e:83:73:30:20:4d:2e:e6:1e:31:3f:3d:99:
        0e:21:1b:4e
-----BEGIN CERTIFICATE-----
MIIEoDCCA4igAwIBAgICEAAwDQYJKoZIhvcNAQELBQAwgaoxJTAjBgNVBAMMHFpl
cm9DIFRlc3QgSW50ZXJtZWRpYXRlIDEgQ0ExCzAJBgNVBAYTAlVTMRAwDgYDVQQI
DAdGbG9yaWRhMRAwDgYDVQQHDAdKdXBpdGVyMQ4wDAYDVQQKDAVaZXJvQzEgMB4G
A1UECwwXSWNlIFRlc3QgSW5mcmFzdHJ1Y3R1cmUxHjAcBgkqhkiG9w0BCQEWD3Rl
c3RzQHplcm9jLmNvbTAeFw0yNTA1MjIxNTEwMTlaFw0yNjA2MjQxNTEwMTlaMIGN
MRcwFQYDVQQDDA5TZXJ2ZXIgUmV2b2tlZDELMAkGA1UEBhMCVVMxEDAOBgNVBAgM
B0Zsb3JpZGExEDAOBgNVBAcMB0p1cGl0ZXIxFDASBgNVBAoMC1plcm9DLCBJbmMu
MQwwCgYDVQQLDANJY2UxHTAbBgkqhkiG9w0BCQEWDmluZm9AemVyb2MuY29tMIIB
IjANBgkqhkiG9w0BAQEFAAOCAQ8AMIIBCgKCAQEAtuS0TIB10QP1PUyV64dAu4WS
ctMRgn6D+gy9O5ZFdi1C0HlH3x7jtnRiEkxsK/diSfV7cZP2hf56eL8me4Efz6Zh
WovV5uCR4Svb1HFV4zbIqbaQb8Vi1kAoX33iZoYC+tu5ZFKBqctN+zzq/DavALDr
vuuNZgNDvvYsSle1Z2phyb43in0qceMvG/1t65m8tpvaoZmjnV0w85rt9XflWKnI
IXBa6cp99F2onfeoRH4WdzlvDlrm71IgQgpOb20a5EBjTBAqu+VyjV9DLuH/usjv
UQ7+5Au7kGFZQyFGZ6p7RkQKMJUTFbZQysl+9DfQaZDFgPwZYpf+zLpt6bw/SQID
AQABo4HqMIHnMB0GA1UdDgQWBBRcMNHT8FKu7EFWHaBx1EEPJueJ7jAfBgNVHSME
GDAWgBSJ/9i2NjM67Zy3iwqgbuw14YJyPzAOBgNVHQ8BAf8EBAMCBeAwEwYDVR0l
BAwwCgYIKwYBBQUHAwIwZwYIKwYBBQUHAQEEWzBZMCIGCCsGAQUFBzABhhZodHRw
Oi8vMTI3LjAuMC4xOjIwMDAyMDMGCCsGAQUFBzAChidodHRwOi8vMTI3LjAuMC4x
OjIwMDAxL2NhNC9jYTRfY2VydC5kZXIwFwYDVR0RBBAwDocEfwAAAYIGY2xpZW50
MA0GCSqGSIb3DQEBCwUAA4IBAQAjc1UoMvCQyD+L3JYGXdGHqbkXnx1KhtX3BUCP
3yi5qtEJcHa12HR3ffQygimRphuq0TYJ/v5vgNhZMq4ANdmtOV1CgG/xyDTfR+6G
VzXTjh6GfLk5PiflDcVM/HznT/Lue47ox7X4qxqnsRG1HLtRUhYWAYCRxsvNen77
CzrHTbpaF/Zd0kk6BjXhR62/4nbOnOp/vZen/p59Z6BAef9kbzeFdL7TQkMNwuk5
HhfiyHMakB66RYsEAuKKIhSfne2FSBzn7jOfhsD5ngjXGJNBkMQgqoxUMSPOsA1T
9tpnLYAXUDAk5wbznrFbfzctOh6DczAgTS7mHjE/PZkOIRtO
-----END CERTIFICATE-----
