Certificate:
    Data:
        Version: 3 (0x2)
        Serial Number: 4096 (0x1000)
        Signature Algorithm: sha256WithRSAEncryption
        Issuer: CN=CA1 Intermediate 5 (Not Yet), C=US, ST=Florida, L=Jupiter, O=ZeroC, OU=Ice/emailAddress=tests@zeroc.com
        Validity
            Not Before: Jun 25 15:10:11 2026 GMT
            Not After : Jul 28 15:10:11 2027 GMT
        Subject: CN=Client, C=US, ST=Florida, L=Jupiter, O=ZeroC, Inc., OU=Ice/emailAddress=info@zeroc.com
        Subject Public Key Info:
            Public Key Algorithm: rsaEncryption
                Public-Key: (2048 bit)
                Modulus:
                    00:c1:87:dd:41:a2:0d:47:d5:4c:48:b9:f0:f1:5c:
                    63:ce:88:7c:de:8a:a1:0b:7c:83:e6:d4:ec:69:9c:
                    8a:5f:a1:66:79:6c:69:d8:c8:94:3c:97:c6:ba:1d:
                    28:22:75:57:96:f7:02:b3:5e:13:ac:a4:78:33:55:
                    90:2b:7c:0c:89:c7:4a:e2:6a:63:02:e0:bb:3b:4d:
                    7c:0c:3c:bb:2d:61:78:1c:18:6f:f3:45:41:95:4f:
                    cc:d5:41:6f:1d:1d:ba:e6:97:74:ff:d7:8b:ea:cc:
                    c8:b4:59:5b:ca:f3:17:98:6d:a6:0f:d5:39:8b:2c:
                    28:f2:aa:31:34:3e:1f:62:59:90:1f:8b:6d:8a:9a:
                    93:4a:1f:78:41:6b:a0:92:55:69:64:f4:db:38:0b:
                    6d:c8:c2:2a:13:9e:7f:17:f0:ee:0e:37:c4:fd:da:
                    63:ec:f6:db:29:d2:c8:ac:d9:8a:46:5c:d6:7f:b2:
                    17:e8:33:b9:4a:4b:f5:ca:bb:84:7a:0d:95:fe:d8:
                    34:48:60:55:70:eb:62:22:88:7a:b0:ba:d5:1f:04:
                    e9:07:f5:fe:d8:6f:dd:bf:7a:31:16:d1:3a:ef:e9:
                    11:9e:28:4f:5c:d7:8f:2b:8e:0a:6e:6d:c1:3c:4a:
                    49:e9:e2:25:34:25:14:52:39:1a:fd:8d:e0:cf:e7:
                    43:61
                Exponent: 65537 (0x10001)
        X509v3 extensions:
            X509v3 Subject Key Identifier: 
                E5:8F:60:91:39:30:58:83:A9:27:D2:10:5F:40:66:A9:55:EA:01:FC
            X509v3 Authority Key Identifier: 
                14:CB:E2:32:DF:8E:04:8F:F2:DD:35:E2:6D:18:25:93:6B:D1:86:BD
            X509v3 Key Usage: critical
                Digital Signature, Non Repudiation, Key Encipherment
            X509v3 Extended Key Usage: 
                TLS Web Client Authentication
            X509v3 Subject Alternative Name: 
                IP Address:127.0.0.1, DNS:client
    Signature Algorithm: sha256WithRSAEncryption
    Signature Value:
        34:d5:18:ac:a1:5a:bd:29:14:84:85:f9:77:7c:c9:4f:d9:88:
        bc:18:af:ad:b7:b8:65:61:1c:3d:8e:3e:bd:b1:fe:51:c1:a7:
        de:83:06:76:2a:df:2d:d6:fa:92:af:9f:a0:bd:ec:4d:db:30:
        1e:63:d2:75:d5:06:24:51:63:62:50:b1:48:7b:cf:74:b6:13:
        86:bd:7b:0e:82:69:e8:54:3f:a3:c0:8d:12:fb:76:1d:f5:23:
        47:f6:df:83:f7:63:24:d6:3a:4e:a6:09:39:c7:e6:c6:93:08:
        9b:38:a7:f6:18:fa:f7:c5:11:58:33:6f:9d:f5:8f:44:c7:b5:
        12:d7:d0:24:4b:4f:9b:db:21:f7:34:d7:02:db:d8:9a:63:b0:
        66:2a:a2:c1:fc:aa:a1:a5:03:bc:35:dc:00:98:b2:f2:9c:0a:
        ec:6f:81:c3:3b:dd:fe:39:24:7f:39:e2:4a:a1:3a:63:ab:09:
        ca:ab:cb:da:e6:ba:d1:d5:13:93:82:1c:00:d3:9d:01:35:3c:
        50:bf:f8:b7:93:a7:b4:43:9e:16:dd:03:ea:6a:b6:eb:92:8b:
        8c:6e:36:0a:d9:06:62:92:ff:57:e3:45:dd:ac:cc:49:eb:76:
        67:22:7d:e8:af:7f:d0:c7:b0:d5:12:49:05:ab:96:73:5c:a5:
        85:c7:ca:05
-----BEGIN CERTIFICATE-----
MIIEGjCCAwKgAwIBAgICEAAwDQYJKoZIhvcNAQELBQAwgZYxJTAjBgNVBAMMHENB
MSBJbnRlcm1lZGlhdGUgNSAoTm90IFlldCkxCzAJBgNVBAYTAlVTMRAwDgYDVQQI
DAdGbG9yaWRhMRAwDgYDVQQHDAdKdXBpdGVyMQ4wDAYDVQQKDAVaZXJvQzEMMAoG
A1UECwwDSWNlMR4wHAYJKoZIhvcNAQkBFg90ZXN0c0B6ZXJvYy5jb20wHhcNMjYw
NjI1MTUxMDExWhcNMjcwNzI4MTUxMDExWjCBhTEPMA0GA1UEAwwGQ2xpZW50MQsw
CQYDVQQGEwJVUzEQMA4GA1UECAwHRmxvcmlkYTEQMA4GA1UEBwwHSnVwaXRlcjEU
MBIGA1UECgwLWmVyb0MsIEluYy4xDDAKBgNVBAsMA0ljZTEdMBsGCSqGSIb3DQEJ
ARYOaW5mb0B6ZXJvYy5jb20wggEiMA0GCSqGSIb3DQEBAQUAA4IBDwAwggEKAoIB
AQDBh91Bog1H1UxIufDxXGPOiHzeiqELfIPm1OxpnIpfoWZ5bGnYyJQ8l8a6HSgi
dVeW9wKzXhOspHgzVZArfAyJx0riamMC4Ls7TXwMPLstYXgcGG/zRUGVT8zVQW8d
Hbrml3T/14vqzMi0WVvK8xeYbaYP1TmLLCjyqjE0Ph9iWZAfi22KmpNKH3hBa6CS
VWlk9Ns4C23IwioTnn8X8O4ON8T92mPs9tsp0sis2YpGXNZ/shfoM7lKS/XKu4R6
DZX+2DRIYFVw62IiiHqwutUfBOkH9f7Yb92/ejEW0Trv6RGeKE9c148rjgpubcE8
Sknp4iU0JRRSORr9jeDP50NhAgMBAAGjgYAwfjAdBgNVHQ4EFgQU5Y9gkTkwWIOp
J9IQX0BmqVXqAfwwHwYDVR0jBBgwFoAUFMviMt+OBI/y3TXibRglk2vRhr0wDgYD
VR0PAQH/BAQDAgXgMBMGA1UdJQQMMAoGCCsGAQUFBwMCMBcGA1UdEQQQMA6HBH8A
AAGCBmNsaWVudDANBgkqhkiG9w0BAQsFAAOCAQEANNUYrKFavSkUhIX5d3zJT9mI
vBivrbe4ZWEcPY4+vbH+UcGn3oMGdirfLdb6kq+foL3sTdswHmPSddUGJFFjYlCx
SHvPdLYThr17DoJp6FQ/o8CNEvt2HfUjR/bfg/djJNY6TqYJOcfmxpMImzin9hj6
98URWDNvnfWPRMe1EtfQJEtPm9sh9zTXAtvYmmOwZiqiwfyqoaUDvDXcAJiy8pwK
7G+Bwzvd/jkkfzniSqE6Y6sJyqvL2ua60dUTk4IcANOdATU8UL/4t5OntEOeFt0D
6mq265KLjG42CtkGYpL/V+NF3azMSet2ZyJ96K9/0Mew1RJJBauWc1ylhcfKBQ==
-----END CERTIFICATE-----
