Certificate:
    Data:
        Version: 3 (0x2)
        Serial Number: 4096 (0x1000)
        Signature Algorithm: sha256WithRSAEncryption
        Issuer: CN=CA1 Intermediate 5 (Not Yet), C=US, ST=Florida, L=Jupiter, O=ZeroC, OU=Ice/emailAddress=tests@zeroc.com
        Validity
            Not Before: Jun 25 16:16:05 2026 GMT
            Not After : Jul 28 16:16:05 2027 GMT
        Subject: CN=Client, C=US, ST=Florida, L=Jupiter, O=ZeroC, Inc., OU=Ice/emailAddress=info@zeroc.com
        Subject Public Key Info:
            Public Key Algorithm: rsaEncryption
                Public-Key: (2048 bit)
                Modulus:
                    00:cd:91:c0:a6:b1:83:11:cf:30:f8:68:cd:b3:6b:
                    3d:79:66:d2:bc:17:a2:86:ee:f2:05:0f:ba:67:38:
                    cd:ee:39:6f:72:6d:48:ef:0d:90:c7:d7:a8:5c:4e:
                    a9:d0:d5:25:76:9b:bf:13:7e:97:53:c2:22:9f:eb:
                    e3:7a:44:4d:4f:a5:d4:ff:3f:23:a1:ec:65:ee:88:
                    99:d9:c4:2c:11:ce:ec:b7:4d:e6:1a:a2:13:88:ea:
                    24:ad:18:52:be:77:86:fb:b1:0b:0f:13:16:0a:02:
                    0b:09:0f:db:be:75:70:b6:23:6a:b6:fa:10:21:34:
                    98:4b:a0:79:d9:f8:7f:eb:14:ca:8c:a5:04:8f:7d:
                    8b:b0:37:8b:b9:a8:aa:f7:01:89:07:55:9f:81:31:
                    72:4a:09:05:22:51:be:28:a6:09:fb:02:47:3b:e1:
                    89:58:69:9e:61:4c:ed:f9:85:17:25:80:8f:7c:4b:
                    f7:b0:d5:1d:e2:df:d1:42:02:f2:7d:ee:74:20:29:
                    da:86:c3:a6:8a:63:56:74:98:81:44:c4:17:80:57:
                    ae:e0:cd:f7:3d:42:68:c3:01:0d:9e:89:a7:b9:7e:
                    0d:1a:40:09:28:9c:d1:92:51:ee:ca:69:c1:8e:a7:
                    c6:9a:90:bf:fa:09:d4:7b:bd:d6:5f:65:d8:a4:d6:
                    1f:e7
                Exponent: 65537 (0x10001)
        X509v3 extensions:
            X509v3 Subject Key Identifier: 
                85:38:3B:8C:F0:CA:D9:46:C8:9E:FD:68:37:55:35:F9:0A:5A:99:16
            X509v3 Authority Key Identifier: 
                40:61:B4:64:B8:1F:A5:0F:91:1F:F1:02:CD:5B:1F:32:1C:2E:16:9F
            X509v3 Key Usage: critical
                Digital Signature, Non Repudiation, Key Encipherment
            X509v3 Extended Key Usage: 
                TLS Web Client Authentication
            X509v3 Subject Alternative Name: 
                IP Address:127.0.0.1, DNS:client
    Signature Algorithm: sha256WithRSAEncryption
    Signature Value:
        2f:c3:c3:cf:6f:64:10:3e:8f:6f:1b:b5:62:ce:69:ed:4f:c5:
        b4:8a:d3:2d:d6:27:57:5d:89:7a:0a:f9:80:04:6f:e3:d2:7f:
        96:eb:af:89:c6:5d:66:55:a4:fa:08:63:07:ce:a7:49:9f:07:
        80:a3:a4:3b:38:24:e7:3a:45:1b:92:78:cc:b8:35:c6:b7:b9:
        e7:b4:99:11:d2:e7:2e:ce:6b:a0:67:6c:b8:c4:81:f6:cb:b1:
        e8:b9:89:3c:71:4d:0e:ff:b2:91:62:34:aa:3a:a1:96:2c:50:
        8c:de:37:25:81:f7:d7:e3:2c:22:2b:60:77:3c:e6:f1:d1:1d:
        d8:8c:c7:72:fb:19:95:24:4b:c2:9b:c1:95:a1:50:b0:fb:f0:
        d8:d5:69:67:0e:e0:8e:d1:2c:81:34:3c:ad:67:a4:26:cf:16:
        dc:d7:dd:5c:ad:d8:e0:42:8b:c9:44:2d:b0:b2:6b:e1:a5:b4:
        77:ec:bf:a7:ac:79:9b:ac:f1:26:fd:4c:63:04:66:3f:52:51:
        82:a6:45:80:fe:c4:ec:33:df:55:f2:da:a9:19:39:40:40:9d:
        16:06:b9:79:71:11:1b:ef:30:d2:03:a6:df:bd:39:06:e6:d2:
        91:86:5f:c2:6d:d8:17:9c:27:a0:0d:37:91:f9:33:be:76:ae:
        b8:80:b8:eb
-----BEGIN CERTIFICATE-----
MIIEGjCCAwKgAwIBAgICEAAwDQYJKoZIhvcNAQELBQAwgZYxJTAjBgNVBAMMHENB
MSBJbnRlcm1lZGlhdGUgNSAoTm90IFlldCkxCzAJBgNVBAYTAlVTMRAwDgYDVQQI
DAdGbG9yaWRhMRAwDgYDVQQHDAdKdXBpdGVyMQ4wDAYDVQQKDAVaZXJvQzEMMAoG
A1UECwwDSWNlMR4wHAYJKoZIhvcNAQkBFg90ZXN0c0B6ZXJvYy5jb20wHhcNMjYw
NjI1MTYxNjA1WhcNMjcwNzI4MTYxNjA1WjCBhTEPMA0GA1UEAwwGQ2xpZW50MQsw
CQYDVQQGEwJVUzEQMA4GA1UECAwHRmxvcmlkYTEQMA4GA1UEBwwHSnVwaXRlcjEU
MBIGA1UECgwLWmVyb0MsIEluYy4xDDAKBgNVBAsMA0ljZTEdMBsGCSqGSIb3DQEJ
ARYOaW5mb0B6ZXJvYy5jb20wggEiMA0GCSqGSIb3DQEBAQUAA4IBDwAwggEKAoIB
AQDNkcCmsYMRzzD4aM2zaz15ZtK8F6KG7vIFD7pnOM3uOW9ybUjvDZDH16hcTqnQ
1SV2m78TfpdTwiKf6+N6RE1PpdT/PyOh7GXuiJnZxCwRzuy3TeYaohOI6iStGFK+
d4b7sQsPExYKAgsJD9u+dXC2I2q2+hAhNJhLoHnZ+H/rFMqMpQSPfYuwN4u5qKr3
AYkHVZ+BMXJKCQUiUb4opgn7Akc74YlYaZ5hTO35hRclgI98S/ew1R3i39FCAvJ9
7nQgKdqGw6aKY1Z0mIFExBeAV67gzfc9QmjDAQ2eiae5fg0aQAkonNGSUe7KacGO
p8aakL/6CdR7vdZfZdik1h/nAgMBAAGjgYAwfjAdBgNVHQ4EFgQUhTg7jPDK2UbI
nv1oN1U1+QpamRYwHwYDVR0jBBgwFoAUQGG0ZLgfpQ+RH/ECzVsfMhwuFp8wDgYD
VR0PAQH/BAQDAgXgMBMGA1UdJQQMMAoGCCsGAQUFBwMCMBcGA1UdEQQQMA6HBH8A
AAGCBmNsaWVudDANBgkqhkiG9w0BAQsFAAOCAQEAL8PDz29kED6Pbxu1Ys5p7U/F
tIrTLdYnV12Jegr5gARv49J/luuvicZdZlWk+ghjB86nSZ8HgKOkOzgk5zpFG5J4
zLg1xre557SZEdLnLs5roGdsuMSB9sux6LmJPHFNDv+ykWI0qjqhlixQjN43JYH3
1+MsIitgdzzm8dEd2IzHcvsZlSRLwpvBlaFQsPvw2NVpZw7gjtEsgTQ8rWekJs8W
3NfdXK3Y4EKLyUQtsLJr4aW0d+y/p6x5m6zxJv1MYwRmP1JRgqZFgP7E7DPfVfLa
qRk5QECdFga5eXERG+8w0gOm3705BubSkYZfwm3YF5wnoA03kfkzvnauuIC46w==
-----END CERTIFICATE-----
