Certificate:
    Data:
        Version: 3 (0x2)
        Serial Number: 4097 (0x1001)
        Signature Algorithm: sha256WithRSAEncryption
        Issuer: CN=CA1 Intermediate 5 (Not Yet), C=US, ST=Florida, L=Jupiter, O=ZeroC, OU=Ice/emailAddress=tests@zeroc.com
        Validity
            Not Before: Jun 25 15:10:17 2026 GMT
            Not After : Jul 28 15:10:17 2027 GMT
        Subject: CN=Server, C=US, ST=Florida, L=Jupiter, O=ZeroC, Inc., OU=Ice/emailAddress=info@zeroc.com
        Subject Public Key Info:
            Public Key Algorithm: rsaEncryption
                Public-Key: (2048 bit)
                Modulus:
                    00:e1:33:e4:51:ec:0c:a7:ed:d6:f0:71:65:e7:b8:
                    c3:6a:ed:f5:b2:b1:05:2f:0f:ca:5e:b5:72:9f:9e:
                    6e:1e:00:4c:50:1f:56:cc:32:ac:69:1c:29:9a:10:
                    55:f0:d3:4e:61:fb:43:a8:11:42:65:6a:65:d0:1c:
                    28:78:46:73:51:12:5c:c1:32:de:9d:28:f4:21:2a:
                    3c:da:26:0f:dd:3a:f4:2b:1d:de:09:fa:4c:02:7e:
                    3e:61:1c:5b:98:9f:34:da:21:52:a6:cf:84:18:02:
                    af:16:20:77:92:a3:d5:bc:d2:6e:70:7b:4c:fb:10:
                    62:fe:8b:99:a4:24:81:03:18:7f:39:fc:d5:9b:d2:
                    64:de:86:b5:df:93:5e:a2:bf:a0:58:c1:61:b5:97:
                    35:f2:8f:a7:41:20:72:ac:25:70:e5:b4:97:42:75:
                    33:c1:86:63:53:8c:39:b0:42:cf:f9:b2:33:6a:d8:
                    18:7f:ae:d2:9b:23:e6:a1:f6:aa:cc:44:8e:8c:1e:
                    a0:47:29:3e:1f:79:71:8b:c2:68:7d:33:36:47:d3:
                    61:1a:bf:d5:1c:ca:6a:c3:9b:05:75:ab:a4:d7:9e:
                    72:33:9f:a7:4e:5c:13:79:4c:da:fd:89:4d:40:a0:
                    c4:c2:38:7a:3e:3c:51:72:f6:5a:1f:51:ce:71:cf:
                    f4:7b
                Exponent: 65537 (0x10001)
        X509v3 extensions:
            X509v3 Subject Key Identifier: 
                81:D5:F4:87:B4:2C:A2:93:FB:27:F5:28:66:CD:89:3E:60:91:08:9F
            X509v3 Authority Key Identifier: 
                14:CB:E2:32:DF:8E:04:8F:F2:DD:35:E2:6D:18:25:93:6B:D1:86:BD
            X509v3 Key Usage: critical
                Digital Signature, Non Repudiation, Key Encipherment
            X509v3 Extended Key Usage: 
                TLS Web Server Authentication
            X509v3 Subject Alternative Name: 
                IP Address:127.0.0.1, DNS:server
    Signature Algorithm: sha256WithRSAEncryption
    Signature Value:
        3b:7a:dd:4e:a1:f6:58:3d:e0:aa:bf:07:85:9c:66:3d:90:d3:
        71:f6:b3:a3:24:4a:5f:68:2b:53:59:a5:00:c0:81:5c:21:71:
        54:1c:24:f9:af:ef:99:ac:5e:15:4e:88:28:d9:66:62:bc:dc:
        9f:b7:15:c0:7f:03:9c:34:a3:01:6c:3c:b9:9a:e1:b3:85:53:
        e7:88:2e:5e:91:56:68:b9:75:23:71:62:ba:6c:4a:de:a8:de:
        14:86:df:8a:30:f0:e6:fd:74:d1:4f:58:66:13:f9:18:fb:55:
        99:4d:dc:09:3c:65:d2:ad:b3:21:45:1c:44:30:22:2e:80:ff:
        9c:c7:eb:3e:e3:8b:6d:da:04:47:75:56:69:29:34:76:85:e6:
        8b:b1:f8:06:80:53:ee:9b:18:87:cf:db:25:cd:dd:29:4d:3c:
        6b:b1:47:e5:b0:0f:20:4e:5f:d4:52:eb:88:c5:93:56:11:d5:
        1d:09:a2:dc:17:d0:e7:f6:05:b9:db:9c:2a:dd:4c:f2:c7:c7:
        87:de:a8:05:c2:f0:c1:b1:22:f4:11:a3:aa:c8:25:01:27:f8:
        b1:73:04:bf:f2:14:78:89:50:bb:3a:17:9f:9a:fa:0b:d8:9b:
        06:a4:47:1f:ae:7e:a9:2a:56:ef:47:76:3f:c3:c1:fd:3e:76:
        e0:bf:9b:aa
-----BEGIN CERTIFICATE-----
MIIEGjCCAwKgAwIBAgICEAEwDQYJKoZIhvcNAQELBQAwgZYxJTAjBgNVBAMMHENB
MSBJbnRlcm1lZGlhdGUgNSAoTm90IFlldCkxCzAJBgNVBAYTAlVTMRAwDgYDVQQI
DAdGbG9yaWRhMRAwDgYDVQQHDAdKdXBpdGVyMQ4wDAYDVQQKDAVaZXJvQzEMMAoG
A1UECwwDSWNlMR4wHAYJKoZIhvcNAQkBFg90ZXN0c0B6ZXJvYy5jb20wHhcNMjYw
NjI1MTUxMDE3WhcNMjcwNzI4MTUxMDE3WjCBhTEPMA0GA1UEAwwGU2VydmVyMQsw
CQYDVQQGEwJVUzEQMA4GA1UECAwHRmxvcmlkYTEQMA4GA1UEBwwHSnVwaXRlcjEU
MBIGA1UECgwLWmVyb0MsIEluYy4xDDAKBgNVBAsMA0ljZTEdMBsGCSqGSIb3DQEJ
ARYOaW5mb0B6ZXJvYy5jb20wggEiMA0GCSqGSIb3DQEBAQUAA4IBDwAwggEKAoIB
AQDhM+RR7Ayn7dbwcWXnuMNq7fWysQUvD8petXKfnm4eAExQH1bMMqxpHCmaEFXw
005h+0OoEUJlamXQHCh4RnNRElzBMt6dKPQhKjzaJg/dOvQrHd4J+kwCfj5hHFuY
nzTaIVKmz4QYAq8WIHeSo9W80m5we0z7EGL+i5mkJIEDGH85/NWb0mTehrXfk16i
v6BYwWG1lzXyj6dBIHKsJXDltJdCdTPBhmNTjDmwQs/5sjNq2Bh/rtKbI+ah9qrM
RI6MHqBHKT4feXGLwmh9MzZH02Eav9UcymrDmwV1q6TXnnIzn6dOXBN5TNr9iU1A
oMTCOHo+PFFy9lofUc5xz/R7AgMBAAGjgYAwfjAdBgNVHQ4EFgQUgdX0h7QsopP7
J/UoZs2JPmCRCJ8wHwYDVR0jBBgwFoAUFMviMt+OBI/y3TXibRglk2vRhr0wDgYD
VR0PAQH/BAQDAgXgMBMGA1UdJQQMMAoGCCsGAQUFBwMBMBcGA1UdEQQQMA6HBH8A
AAGCBnNlcnZlcjANBgkqhkiG9w0BAQsFAAOCAQEAO3rdTqH2WD3gqr8HhZxmPZDT
cfazoyRKX2grU1mlAMCBXCFxVBwk+a/vmaxeFU6IKNlmYrzcn7cVwH8DnDSjAWw8
uZrhs4VT54guXpFWaLl1I3FiumxK3qjeFIbfijDw5v100U9YZhP5GPtVmU3cCTxl
0q2zIUUcRDAiLoD/nMfrPuOLbdoER3VWaSk0doXmi7H4BoBT7psYh8/bJc3dKU08
a7FH5bAPIE5f1FLriMWTVhHVHQmi3BfQ5/YFuducKt1M8sfHh96oBcLwwbEi9BGj
qsglASf4sXMEv/IUeIlQuzoXn5r6C9ibBqRHH65+qSpW70d2P8PB/T524L+bqg==
-----END CERTIFICATE-----
