Certificate:
    Data:
        Version: 3 (0x2)
        Serial Number: 4097 (0x1001)
        Signature Algorithm: sha256WithRSAEncryption
        Issuer: CN=CA1 Intermediate 5 (Not Yet), C=US, ST=Florida, L=Jupiter, O=ZeroC, OU=Ice/emailAddress=tests@zeroc.com
        Validity
            Not Before: Jun 25 16:55:15 2026 GMT
            Not After : Jul 28 16:55:15 2027 GMT
        Subject: CN=Server, C=US, ST=Florida, L=Jupiter, O=ZeroC, Inc., OU=Ice/emailAddress=info@zeroc.com
        Subject Public Key Info:
            Public Key Algorithm: rsaEncryption
                Public-Key: (2048 bit)
                Modulus:
                    00:b5:9a:f8:5a:c1:8a:05:30:24:91:c2:c1:19:46:
                    05:ac:59:df:7e:a8:ef:8c:69:d9:e3:74:82:3f:fd:
                    bb:2c:4b:1a:1b:ab:58:79:91:3f:43:97:21:42:f5:
                    0d:a6:cf:32:75:09:a6:70:41:12:bd:7c:f3:c0:fe:
                    8c:84:a7:0b:39:c6:b0:94:c4:4a:fc:4a:41:f4:22:
                    11:0a:ba:f4:c0:fa:f3:23:f5:4c:92:68:fc:b7:2c:
                    6b:50:1a:c2:83:21:0f:d8:ac:f9:ae:24:bf:7a:7f:
                    80:0f:f1:75:57:24:27:c8:a4:83:47:d4:65:09:bc:
                    48:fb:19:e1:a6:ac:76:85:a8:1a:45:d4:29:97:43:
                    72:3f:04:ae:d7:3d:67:f4:d6:e7:25:4c:e6:7a:b7:
                    98:d3:da:ca:58:bb:b7:cd:b4:17:36:04:c9:ab:53:
                    2e:0f:45:cd:ce:d2:3e:d2:9c:95:b8:f5:2d:15:af:
                    c2:cf:f3:67:65:21:75:d9:72:94:e0:4c:4d:66:66:
                    e1:54:f4:40:3e:89:20:05:9f:cd:82:fe:07:66:b3:
                    ad:b2:45:fa:db:dc:f5:af:d2:a5:d3:c9:ea:82:04:
                    8e:47:c9:0b:2c:45:82:bd:29:a4:95:63:cd:5e:ff:
                    da:1c:69:a3:64:8c:ee:d3:6e:6c:f0:bf:af:9f:81:
                    ec:29
                Exponent: 65537 (0x10001)
        X509v3 extensions:
            X509v3 Subject Key Identifier: 
                B7:32:55:1F:62:1F:1D:21:2E:7E:BD:A1:55:72:A6:E3:B8:A8:74:22
            X509v3 Authority Key Identifier: 
                E2:F2:8F:CA:5A:F7:21:4A:56:5F:59:51:5A:52:10:E0:E2:55:A5:0D
            X509v3 Key Usage: critical
                Digital Signature, Non Repudiation, Key Encipherment
            X509v3 Extended Key Usage: 
                TLS Web Server Authentication
            X509v3 Subject Alternative Name: 
                IP Address:127.0.0.1, DNS:server
    Signature Algorithm: sha256WithRSAEncryption
    Signature Value:
        a8:40:e9:db:87:23:60:c9:ae:12:7c:f6:f5:93:85:79:b3:3b:
        0d:61:ed:30:3e:b6:4f:31:78:9d:65:71:46:e2:e1:93:29:80:
        76:16:88:b5:56:af:03:42:bb:cf:59:30:54:d7:72:a6:a6:13:
        62:2f:63:28:7b:12:91:f4:70:d1:39:05:d6:83:54:f5:5d:c4:
        99:df:60:53:5c:c6:39:1f:f0:7c:54:68:5e:fb:b0:2e:9d:48:
        fc:1c:96:44:ef:2d:6e:4a:2b:25:a6:08:79:de:89:7a:da:d1:
        0a:87:73:bb:35:1e:6d:84:51:da:16:6e:1a:5e:65:2a:e4:bd:
        de:6d:41:0f:7f:30:aa:22:c8:c0:a0:4d:70:c6:36:97:7d:0d:
        a9:a7:30:ca:1d:50:8e:22:99:f5:87:17:b0:99:96:37:8a:7c:
        6b:1a:81:b5:fa:39:94:7c:e7:a9:61:be:52:f1:f4:3b:5b:66:
        32:db:0b:c5:54:9b:38:d6:cf:10:57:d9:9c:76:2a:05:d9:ed:
        d6:fc:52:c1:9b:1a:a3:11:b4:f9:d0:0d:4d:83:b5:e3:17:df:
        e9:8a:6e:4f:a8:34:5c:8f:97:d0:49:5a:d0:ed:51:5d:37:8f:
        a4:65:d9:b9:0b:d5:63:4d:f7:08:2d:71:c6:34:1e:a7:f8:4e:
        e0:79:1b:a6
-----BEGIN CERTIFICATE-----
MIIEGjCCAwKgAwIBAgICEAEwDQYJKoZIhvcNAQELBQAwgZYxJTAjBgNVBAMMHENB
MSBJbnRlcm1lZGlhdGUgNSAoTm90IFlldCkxCzAJBgNVBAYTAlVTMRAwDgYDVQQI
DAdGbG9yaWRhMRAwDgYDVQQHDAdKdXBpdGVyMQ4wDAYDVQQKDAVaZXJvQzEMMAoG
A1UECwwDSWNlMR4wHAYJKoZIhvcNAQkBFg90ZXN0c0B6ZXJvYy5jb20wHhcNMjYw
NjI1MTY1NTE1WhcNMjcwNzI4MTY1NTE1WjCBhTEPMA0GA1UEAwwGU2VydmVyMQsw
CQYDVQQGEwJVUzEQMA4GA1UECAwHRmxvcmlkYTEQMA4GA1UEBwwHSnVwaXRlcjEU
MBIGA1UECgwLWmVyb0MsIEluYy4xDDAKBgNVBAsMA0ljZTEdMBsGCSqGSIb3DQEJ
ARYOaW5mb0B6ZXJvYy5jb20wggEiMA0GCSqGSIb3DQEBAQUAA4IBDwAwggEKAoIB
AQC1mvhawYoFMCSRwsEZRgWsWd9+qO+MadnjdII//bssSxobq1h5kT9DlyFC9Q2m
zzJ1CaZwQRK9fPPA/oyEpws5xrCUxEr8SkH0IhEKuvTA+vMj9UySaPy3LGtQGsKD
IQ/YrPmuJL96f4AP8XVXJCfIpINH1GUJvEj7GeGmrHaFqBpF1CmXQ3I/BK7XPWf0
1uclTOZ6t5jT2spYu7fNtBc2BMmrUy4PRc3O0j7SnJW49S0Vr8LP82dlIXXZcpTg
TE1mZuFU9EA+iSAFn82C/gdms62yRfrb3PWv0qXTyeqCBI5HyQssRYK9KaSVY81e
/9ocaaNkjO7Tbmzwv6+fgewpAgMBAAGjgYAwfjAdBgNVHQ4EFgQUtzJVH2IfHSEu
fr2hVXKm47iodCIwHwYDVR0jBBgwFoAU4vKPylr3IUpWX1lRWlIQ4OJVpQ0wDgYD
VR0PAQH/BAQDAgXgMBMGA1UdJQQMMAoGCCsGAQUFBwMBMBcGA1UdEQQQMA6HBH8A
AAGCBnNlcnZlcjANBgkqhkiG9w0BAQsFAAOCAQEAqEDp24cjYMmuEnz29ZOFebM7
DWHtMD62TzF4nWVxRuLhkymAdhaItVavA0K7z1kwVNdypqYTYi9jKHsSkfRw0TkF
1oNU9V3Emd9gU1zGOR/wfFRoXvuwLp1I/ByWRO8tbkorJaYIed6JetrRCodzuzUe
bYRR2hZuGl5lKuS93m1BD38wqiLIwKBNcMY2l30Nqacwyh1QjiKZ9YcXsJmWN4p8
axqBtfo5lHznqWG+UvH0O1tmMtsLxVSbONbPEFfZnHYqBdnt1vxSwZsaoxG0+dAN
TYO14xff6YpuT6g0XI+X0Ela0O1RXTePpGXZuQvVY033CC1xxjQep/hO4Hkbpg==
-----END CERTIFICATE-----
