Certificate:
    Data:
        Version: 3 (0x2)
        Serial Number: 4096 (0x1000)
        Signature Algorithm: sha256WithRSAEncryption
        Issuer: CN=CA5 Intermediate 1 (Expired), C=US, ST=Florida, L=Jupiter, O=ZeroC, OU=Ice/emailAddress=tests@zeroc.com
        Validity
            Not Before: Apr 18 15:10:11 2024 GMT
            Not After : May 21 15:10:11 2025 GMT
        Subject: CN=Client, C=US, ST=Florida, L=Jupiter, O=ZeroC, Inc., OU=Ice/emailAddress=info@zeroc.com
        Subject Public Key Info:
            Public Key Algorithm: rsaEncryption
                Public-Key: (2048 bit)
                Modulus:
                    00:a7:b6:f4:08:10:74:58:94:ed:e2:2f:b1:df:08:
                    d4:83:9f:fc:a5:87:b5:2d:f2:e3:6f:66:74:74:e1:
                    d0:e2:c4:dc:d5:c9:5c:c8:20:e5:54:6e:87:d4:1b:
                    c9:23:06:3b:01:61:e8:e0:d5:27:78:35:06:24:ea:
                    c3:c3:df:17:10:0d:9b:e8:be:7d:2f:d7:07:16:41:
                    7f:61:5e:b3:dc:3d:48:61:07:6d:26:fa:03:8b:5e:
                    49:cc:19:6b:8e:ea:4e:4a:c6:7c:73:d4:4e:b5:4c:
                    15:57:9a:4b:f3:aa:a0:a3:d3:b2:8d:28:23:1a:81:
                    84:0e:22:fe:43:b1:f5:93:9b:1f:07:22:57:d6:fe:
                    cd:e5:e3:bc:a5:c0:28:1e:d9:5e:43:d5:53:b7:79:
                    c8:4f:31:61:14:7e:33:d5:12:fe:d5:3a:56:9a:c8:
                    6a:a3:eb:c0:1a:23:a2:9b:7e:b9:17:65:3f:d2:2a:
                    dc:52:c1:b7:9d:f0:4d:c8:97:63:8c:57:01:23:2c:
                    a0:29:d7:9a:55:84:f8:a9:9f:48:56:e4:e0:4b:d2:
                    50:db:a5:b8:9c:38:4b:8d:e0:03:47:ea:85:97:b8:
                    07:b3:10:64:6c:73:93:65:63:6b:88:ab:01:13:1e:
                    1b:37:0b:f6:f9:cc:60:16:02:9f:fd:22:36:e7:53:
                    9e:57
                Exponent: 65537 (0x10001)
        X509v3 extensions:
            X509v3 Subject Key Identifier: 
                07:AB:C0:5D:58:2A:1C:DF:DB:CA:E3:86:13:D4:11:7B:97:E0:92:95
            X509v3 Authority Key Identifier: 
                C6:23:FD:0C:E2:60:11:F5:70:99:93:1A:CC:84:4F:95:9D:69:A7:96
            X509v3 Key Usage: critical
                Digital Signature, Non Repudiation, Key Encipherment
            X509v3 Extended Key Usage: 
                TLS Web Client Authentication
            X509v3 Subject Alternative Name: 
                IP Address:127.0.0.1, DNS:client
    Signature Algorithm: sha256WithRSAEncryption
    Signature Value:
        4f:9f:4a:ad:02:29:56:82:30:50:43:cc:d6:da:a0:eb:96:4b:
        b0:05:48:4f:c9:c7:2f:55:d7:f9:cd:b9:8f:5a:5a:6c:af:03:
        7d:09:76:94:7e:00:20:61:29:81:21:ab:d2:b8:76:be:21:16:
        71:98:8b:fd:b1:36:5f:8a:ba:fa:a8:21:c2:04:c1:51:29:6a:
        46:6a:c0:26:51:20:54:e2:be:f4:de:9c:88:a9:34:15:b6:5b:
        98:57:9b:f5:63:ec:26:4d:e0:9c:40:4c:ed:77:46:44:a9:b4:
        59:cc:fb:5b:1d:dc:42:7b:fd:14:c3:64:29:17:b4:35:70:43:
        23:f1:04:29:8f:c5:90:fc:f7:bb:85:ae:5b:a8:a6:ff:71:6e:
        b8:f4:c8:a4:9a:da:14:e7:7e:cb:d5:40:68:a9:5b:15:58:8a:
        40:bc:d9:37:ae:36:b1:31:df:65:50:33:37:b9:80:a8:e8:4e:
        a6:1a:82:8a:95:ab:cf:33:27:e8:a7:2b:20:61:7b:4c:65:0f:
        a7:ac:95:12:03:34:83:d0:93:c2:4f:d4:21:1e:1f:c4:68:22:
        ca:ce:21:dc:62:8f:52:4d:7f:7b:f6:4d:14:92:54:a5:93:27:
        31:8b:9e:a4:22:5b:9f:81:06:8f:e0:d8:45:ba:1a:d3:ae:a8:
        86:79:6e:8f
-----BEGIN CERTIFICATE-----
MIIEGjCCAwKgAwIBAgICEAAwDQYJKoZIhvcNAQELBQAwgZYxJTAjBgNVBAMMHENB
NSBJbnRlcm1lZGlhdGUgMSAoRXhwaXJlZCkxCzAJBgNVBAYTAlVTMRAwDgYDVQQI
DAdGbG9yaWRhMRAwDgYDVQQHDAdKdXBpdGVyMQ4wDAYDVQQKDAVaZXJvQzEMMAoG
A1UECwwDSWNlMR4wHAYJKoZIhvcNAQkBFg90ZXN0c0B6ZXJvYy5jb20wHhcNMjQw
NDE4MTUxMDExWhcNMjUwNTIxMTUxMDExWjCBhTEPMA0GA1UEAwwGQ2xpZW50MQsw
CQYDVQQGEwJVUzEQMA4GA1UECAwHRmxvcmlkYTEQMA4GA1UEBwwHSnVwaXRlcjEU
MBIGA1UECgwLWmVyb0MsIEluYy4xDDAKBgNVBAsMA0ljZTEdMBsGCSqGSIb3DQEJ
ARYOaW5mb0B6ZXJvYy5jb20wggEiMA0GCSqGSIb3DQEBAQUAA4IBDwAwggEKAoIB
AQCntvQIEHRYlO3iL7HfCNSDn/ylh7Ut8uNvZnR04dDixNzVyVzIIOVUbofUG8kj
BjsBYejg1Sd4NQYk6sPD3xcQDZvovn0v1wcWQX9hXrPcPUhhB20m+gOLXknMGWuO
6k5Kxnxz1E61TBVXmkvzqqCj07KNKCMagYQOIv5DsfWTmx8HIlfW/s3l47ylwCge
2V5D1VO3echPMWEUfjPVEv7VOlaayGqj68AaI6KbfrkXZT/SKtxSwbed8E3Il2OM
VwEjLKAp15pVhPipn0hW5OBL0lDbpbicOEuN4ANH6oWXuAezEGRsc5NlY2uIqwET
Hhs3C/b5zGAWAp/9IjbnU55XAgMBAAGjgYAwfjAdBgNVHQ4EFgQUB6vAXVgqHN/b
yuOGE9QRe5fgkpUwHwYDVR0jBBgwFoAUxiP9DOJgEfVwmZMazIRPlZ1pp5YwDgYD
VR0PAQH/BAQDAgXgMBMGA1UdJQQMMAoGCCsGAQUFBwMCMBcGA1UdEQQQMA6HBH8A
AAGCBmNsaWVudDANBgkqhkiG9w0BAQsFAAOCAQEAT59KrQIpVoIwUEPM1tqg65ZL
sAVIT8nHL1XX+c25j1pabK8DfQl2lH4AIGEpgSGr0rh2viEWcZiL/bE2X4q6+qgh
wgTBUSlqRmrAJlEgVOK+9N6ciKk0FbZbmFeb9WPsJk3gnEBM7XdGRKm0Wcz7Wx3c
Qnv9FMNkKRe0NXBDI/EEKY/FkPz3u4WuW6im/3FuuPTIpJraFOd+y9VAaKlbFViK
QLzZN642sTHfZVAzN7mAqOhOphqCipWrzzMn6KcrIGF7TGUPp6yVEgM0g9CTwk/U
IR4fxGgiys4h3GKPUk1/e/ZNFJJUpZMnMYuepCJbn4EGj+DYRboa066ohnlujw==
-----END CERTIFICATE-----
