Certificate:
    Data:
        Version: 3 (0x2)
        Serial Number: 4096 (0x1000)
        Signature Algorithm: sha256WithRSAEncryption
        Issuer: CN=CA5 Intermediate 1 (Expired), C=US, ST=Florida, L=Jupiter, O=ZeroC, OU=Ice/emailAddress=tests@zeroc.com
        Validity
            Not Before: Apr 18 16:16:06 2024 GMT
            Not After : May 21 16:16:06 2025 GMT
        Subject: CN=Client, C=US, ST=Florida, L=Jupiter, O=ZeroC, Inc., OU=Ice/emailAddress=info@zeroc.com
        Subject Public Key Info:
            Public Key Algorithm: rsaEncryption
                Public-Key: (2048 bit)
                Modulus:
                    00:9e:82:e0:cd:1a:5c:22:2d:0e:16:d3:52:16:d1:
                    6d:9e:a5:ea:32:ac:5d:d1:09:9e:f2:ba:1c:b6:5f:
                    48:94:b4:84:95:67:f5:8e:ac:c8:d6:6a:a0:51:89:
                    3a:a8:a1:e6:65:54:9c:7b:7c:89:17:a9:67:67:0b:
                    61:64:c6:12:b5:7c:df:9f:aa:a4:b6:fd:e7:06:12:
                    38:6e:91:75:53:c3:a6:68:65:be:88:7a:fd:72:dc:
                    40:c5:55:26:72:f7:ec:51:05:32:f3:6f:49:8d:83:
                    e3:ed:89:ad:4a:5f:5d:cc:3e:50:97:19:a5:e2:70:
                    05:68:cf:83:b8:00:0c:3a:4c:d3:99:b7:f8:e7:25:
                    3d:3e:1f:f8:8d:7b:0e:84:e6:c8:e8:43:d5:a6:a0:
                    fe:f0:38:61:7e:01:71:f6:44:75:46:c1:42:33:d4:
                    73:8d:01:1b:3e:ff:5a:3f:b7:d3:e6:3a:dd:8d:af:
                    b0:77:64:75:06:5e:98:94:d8:08:d2:ec:2f:ce:ce:
                    30:a3:11:a5:45:0e:5d:0e:a7:09:0e:c6:cc:8f:3e:
                    35:0c:79:4e:41:56:91:0d:6f:3b:63:c4:fb:1c:30:
                    4e:c8:99:a3:92:85:3f:a3:a2:a1:24:2a:e4:29:9a:
                    a6:0e:5c:f5:3f:80:29:b7:15:ba:c3:95:25:8a:29:
                    80:0f
                Exponent: 65537 (0x10001)
        X509v3 extensions:
            X509v3 Subject Key Identifier: 
                20:80:09:CC:D5:AD:A4:7D:B5:46:EF:3C:1D:BA:24:7E:E7:B3:2F:9A
            X509v3 Authority Key Identifier: 
                13:78:B2:2C:03:83:46:F4:FD:00:49:66:1C:FE:07:92:21:E5:74:59
            X509v3 Key Usage: critical
                Digital Signature, Non Repudiation, Key Encipherment
            X509v3 Extended Key Usage: 
                TLS Web Client Authentication
            X509v3 Subject Alternative Name: 
                IP Address:127.0.0.1, DNS:client
    Signature Algorithm: sha256WithRSAEncryption
    Signature Value:
        b9:b6:e8:38:6d:36:22:44:6d:95:90:88:93:17:72:d9:fc:96:
        ac:cd:90:30:67:da:32:7b:94:b5:0a:fd:d3:6d:38:33:e1:1d:
        5d:37:fd:94:d5:a6:22:92:58:84:99:a7:cf:0f:f1:2f:7d:40:
        5c:50:2a:78:9a:ef:42:3a:6b:dc:23:a4:99:c5:3e:7d:cf:20:
        53:d7:a8:5d:66:a4:ce:0d:7d:93:ce:1b:41:d3:ae:46:18:d4:
        a7:94:aa:fa:ed:cc:b6:c5:75:02:fb:99:fe:77:9e:03:4d:1f:
        37:d9:c9:3b:ed:f4:34:e2:f1:ee:a2:93:aa:45:9c:8e:e6:c9:
        5d:a3:41:c9:49:cb:9c:c3:d2:b7:73:4d:f5:92:1a:d7:68:b3:
        39:51:23:a7:ae:47:56:3e:97:86:a1:d4:5e:ef:5d:3a:c3:df:
        66:8b:8d:07:80:d5:a2:0d:c7:38:aa:36:32:3a:72:51:1e:fc:
        ae:5f:4c:3d:23:92:3d:74:dd:eb:88:ae:2b:b1:4d:df:83:3d:
        69:d2:81:8d:7a:03:25:9f:c3:c2:51:f1:2e:6a:34:77:42:94:
        a9:6e:41:4b:a4:70:3c:80:c8:44:1c:6d:9c:be:9a:06:fc:31:
        c0:b6:0b:e3:e4:ed:7b:10:97:cb:44:73:86:e4:74:07:9b:b9:
        ce:4b:f6:91
-----BEGIN CERTIFICATE-----
MIIEGjCCAwKgAwIBAgICEAAwDQYJKoZIhvcNAQELBQAwgZYxJTAjBgNVBAMMHENB
NSBJbnRlcm1lZGlhdGUgMSAoRXhwaXJlZCkxCzAJBgNVBAYTAlVTMRAwDgYDVQQI
DAdGbG9yaWRhMRAwDgYDVQQHDAdKdXBpdGVyMQ4wDAYDVQQKDAVaZXJvQzEMMAoG
A1UECwwDSWNlMR4wHAYJKoZIhvcNAQkBFg90ZXN0c0B6ZXJvYy5jb20wHhcNMjQw
NDE4MTYxNjA2WhcNMjUwNTIxMTYxNjA2WjCBhTEPMA0GA1UEAwwGQ2xpZW50MQsw
CQYDVQQGEwJVUzEQMA4GA1UECAwHRmxvcmlkYTEQMA4GA1UEBwwHSnVwaXRlcjEU
MBIGA1UECgwLWmVyb0MsIEluYy4xDDAKBgNVBAsMA0ljZTEdMBsGCSqGSIb3DQEJ
ARYOaW5mb0B6ZXJvYy5jb20wggEiMA0GCSqGSIb3DQEBAQUAA4IBDwAwggEKAoIB
AQCeguDNGlwiLQ4W01IW0W2epeoyrF3RCZ7yuhy2X0iUtISVZ/WOrMjWaqBRiTqo
oeZlVJx7fIkXqWdnC2FkxhK1fN+fqqS2/ecGEjhukXVTw6ZoZb6Iev1y3EDFVSZy
9+xRBTLzb0mNg+Ptia1KX13MPlCXGaXicAVoz4O4AAw6TNOZt/jnJT0+H/iNew6E
5sjoQ9WmoP7wOGF+AXH2RHVGwUIz1HONARs+/1o/t9PmOt2Nr7B3ZHUGXpiU2AjS
7C/OzjCjEaVFDl0OpwkOxsyPPjUMeU5BVpENbztjxPscME7ImaOShT+joqEkKuQp
mqYOXPU/gCm3FbrDlSWKKYAPAgMBAAGjgYAwfjAdBgNVHQ4EFgQUIIAJzNWtpH21
Ru88HbokfuezL5owHwYDVR0jBBgwFoAUE3iyLAODRvT9AElmHP4HkiHldFkwDgYD
VR0PAQH/BAQDAgXgMBMGA1UdJQQMMAoGCCsGAQUFBwMCMBcGA1UdEQQQMA6HBH8A
AAGCBmNsaWVudDANBgkqhkiG9w0BAQsFAAOCAQEAubboOG02IkRtlZCIkxdy2fyW
rM2QMGfaMnuUtQr90204M+EdXTf9lNWmIpJYhJmnzw/xL31AXFAqeJrvQjpr3COk
mcU+fc8gU9eoXWakzg19k84bQdOuRhjUp5Sq+u3MtsV1AvuZ/neeA00fN9nJO+30
NOLx7qKTqkWcjubJXaNByUnLnMPSt3NN9ZIa12izOVEjp65HVj6XhqHUXu9dOsPf
ZouNB4DVog3HOKo2MjpyUR78rl9MPSOSPXTd64iuK7FN34M9adKBjXoDJZ/DwlHx
Lmo0d0KUqW5BS6RwPIDIRBxtnL6aBvwxwLYL4+TtexCXy0RzhuR0B5u5zkv2kQ==
-----END CERTIFICATE-----
