Certificate:
    Data:
        Version: 3 (0x2)
        Serial Number: 4097 (0x1001)
        Signature Algorithm: sha256WithRSAEncryption
        Issuer: C=US, ST=Florida, L=Jupiter, O=ZeroC, OU=Ice, CN=ZeroC Test CA 5/emailAddress=tests@zeroc.com
        Validity
            Not Before: Apr 18 15:10:09 2024 GMT
            Not After : May 21 15:10:09 2025 GMT
        Subject: CN=CA5 Intermediate 1 (Expired), C=US, ST=Florida, L=Jupiter, O=ZeroC, OU=Ice/emailAddress=tests@zeroc.com
        Subject Public Key Info:
            Public Key Algorithm: rsaEncryption
                Public-Key: (2048 bit)
                Modulus:
                    00:ba:2e:e0:c6:e1:2e:81:e6:fb:b4:25:c1:e9:99:
                    68:c9:2f:7d:bb:0d:51:6b:0e:12:e8:66:0c:c3:2a:
                    32:3c:c2:f2:e4:94:a1:6c:12:98:76:b2:91:54:d1:
                    c6:54:b5:04:96:7a:eb:d9:20:d4:f3:50:5a:06:ae:
                    1e:ee:42:ea:59:5a:df:fe:ec:cd:59:dc:22:bd:dd:
                    40:33:15:fd:8e:fc:64:f7:fa:2f:a2:bf:9f:20:b5:
                    b5:c8:3c:25:f7:5f:ce:70:1e:90:ad:a1:03:d6:74:
                    09:a6:e2:2b:3f:21:e9:3a:71:52:a7:6c:fc:15:ad:
                    d7:e7:a0:20:97:08:b7:3c:75:7e:8c:76:de:f2:6f:
                    f3:bf:1e:fb:7d:32:fe:80:d0:52:c7:56:3a:5e:f7:
                    83:61:43:43:29:af:df:8d:b2:fd:f6:7b:d7:4f:31:
                    93:04:39:d3:7a:aa:83:e6:c0:ec:8e:6e:9b:d1:95:
                    8f:a4:63:92:d5:00:cc:16:26:38:3b:cd:7e:87:8b:
                    6d:67:42:50:df:ff:12:d1:c6:a0:c1:64:dc:2f:3d:
                    c2:2a:23:43:b9:e0:66:3a:18:93:1c:ce:58:f4:1e:
                    17:69:85:00:57:72:5f:7b:df:89:9d:58:03:0f:de:
                    e0:c2:32:a8:1b:8f:1e:43:b4:63:e0:da:02:52:9b:
                    5c:05
                Exponent: 65537 (0x10001)
        X509v3 extensions:
            X509v3 Subject Key Identifier: 
                C6:23:FD:0C:E2:60:11:F5:70:99:93:1A:CC:84:4F:95:9D:69:A7:96
            X509v3 Authority Key Identifier: 
                46:9C:DE:6C:0E:F6:7A:68:36:C8:91:57:D3:47:DE:D9:30:CC:39:48
            X509v3 Basic Constraints: critical
                CA:TRUE
            X509v3 Key Usage: critical
                Digital Signature, Certificate Sign, CRL Sign
    Signature Algorithm: sha256WithRSAEncryption
    Signature Value:
        80:44:86:0b:ff:e2:62:26:76:9b:b6:4c:88:6e:3f:63:4e:0f:
        0f:53:b8:a0:15:42:9a:8c:98:06:15:06:17:4b:06:83:52:cb:
        09:f7:e6:06:53:19:27:4a:b8:47:67:14:f4:da:d9:d1:a2:64:
        b3:dc:db:7b:7a:28:7a:79:8a:2c:ba:05:3b:08:e7:6e:59:58:
        a6:82:17:e9:06:91:e0:37:33:e6:bc:77:47:51:32:be:e1:5d:
        03:74:78:9e:0c:2f:17:99:d1:d7:5b:b3:9e:03:a8:c2:c6:0e:
        f2:ef:ab:c3:9d:fc:02:19:7e:96:f7:16:f2:f7:d0:8a:a2:06:
        c9:77:c8:dc:5a:5a:36:8f:06:c0:09:79:87:d0:c8:36:0f:d5:
        21:a8:00:10:ff:5e:21:9d:fc:db:de:fc:37:e2:f8:a2:7a:cd:
        9d:b3:05:43:49:f9:b2:5c:44:3d:b2:55:4c:29:62:59:f6:5d:
        fa:8b:35:95:56:7b:ab:9c:49:42:4a:2f:fc:a6:66:fa:82:c8:
        14:2e:5e:fb:9f:e7:91:55:b4:41:49:cd:5b:64:a8:2e:03:81:
        53:a5:b7:8d:29:7c:f2:a1:ee:23:d9:0d:68:13:6e:d5:50:fb:
        7a:25:66:bd:d0:58:0f:bc:e4:52:ae:c4:1f:35:ca:15:d2:92:
        b9:da:35:e0
-----BEGIN CERTIFICATE-----
MIIEADCCAuigAwIBAgICEAEwDQYJKoZIhvcNAQELBQAwgYkxCzAJBgNVBAYTAlVT
MRAwDgYDVQQIDAdGbG9yaWRhMRAwDgYDVQQHDAdKdXBpdGVyMQ4wDAYDVQQKDAVa
ZXJvQzEMMAoGA1UECwwDSWNlMRgwFgYDVQQDDA9aZXJvQyBUZXN0IENBIDUxHjAc
BgkqhkiG9w0BCQEWD3Rlc3RzQHplcm9jLmNvbTAeFw0yNDA0MTgxNTEwMDlaFw0y
NTA1MjExNTEwMDlaMIGWMSUwIwYDVQQDDBxDQTUgSW50ZXJtZWRpYXRlIDEgKEV4
cGlyZWQpMQswCQYDVQQGEwJVUzEQMA4GA1UECAwHRmxvcmlkYTEQMA4GA1UEBwwH
SnVwaXRlcjEOMAwGA1UECgwFWmVyb0MxDDAKBgNVBAsMA0ljZTEeMBwGCSqGSIb3
DQEJARYPdGVzdHNAemVyb2MuY29tMIIBIjANBgkqhkiG9w0BAQEFAAOCAQ8AMIIB
CgKCAQEAui7gxuEugeb7tCXB6ZloyS99uw1Raw4S6GYMwyoyPMLy5JShbBKYdrKR
VNHGVLUElnrr2SDU81BaBq4e7kLqWVrf/uzNWdwivd1AMxX9jvxk9/ovor+fILW1
yDwl91/OcB6QraED1nQJpuIrPyHpOnFSp2z8Fa3X56Aglwi3PHV+jHbe8m/zvx77
fTL+gNBSx1Y6XveDYUNDKa/fjbL99nvXTzGTBDnTeqqD5sDsjm6b0ZWPpGOS1QDM
FiY4O81+h4ttZ0JQ3/8S0cagwWTcLz3CKiNDueBmOhiTHM5Y9B4XaYUAV3Jfe9+J
nVgDD97gwjKoG48eQ7Rj4NoCUptcBQIDAQABo2MwYTAdBgNVHQ4EFgQUxiP9DOJg
EfVwmZMazIRPlZ1pp5YwHwYDVR0jBBgwFoAURpzebA72emg2yJFX00fe2TDMOUgw
DwYDVR0TAQH/BAUwAwEB/zAOBgNVHQ8BAf8EBAMCAYYwDQYJKoZIhvcNAQELBQAD
ggEBAIBEhgv/4mImdpu2TIhuP2NODw9TuKAVQpqMmAYVBhdLBoNSywn35gZTGSdK
uEdnFPTa2dGiZLPc23t6KHp5iiy6BTsI525ZWKaCF+kGkeA3M+a8d0dRMr7hXQN0
eJ4MLxeZ0ddbs54DqMLGDvLvq8Od/AIZfpb3FvL30IqiBsl3yNxaWjaPBsAJeYfQ
yDYP1SGoABD/XiGd/Nve/Dfi+KJ6zZ2zBUNJ+bJcRD2yVUwpYln2XfqLNZVWe6uc
SUJKL/ymZvqCyBQuXvuf55FVtEFJzVtkqC4DgVOlt40pfPKh7iPZDWgTbtVQ+3ol
Zr3QWA+85FKuxB81yhXSkrnaNeA=
-----END CERTIFICATE-----
