Certificate:
    Data:
        Version: 3 (0x2)
        Serial Number: 4097 (0x1001)
        Signature Algorithm: sha256WithRSAEncryption
        Issuer: C=US, ST=Florida, L=Jupiter, O=ZeroC, OU=Ice, CN=ZeroC Test CA 5/emailAddress=tests@zeroc.com
        Validity
            Not Before: Apr 18 16:55:07 2024 GMT
            Not After : May 21 16:55:07 2025 GMT
        Subject: CN=CA5 Intermediate 1 (Expired), C=US, ST=Florida, L=Jupiter, O=ZeroC, OU=Ice/emailAddress=tests@zeroc.com
        Subject Public Key Info:
            Public Key Algorithm: rsaEncryption
                Public-Key: (2048 bit)
                Modulus:
                    00:dd:f1:c7:09:77:84:5b:46:7d:5a:a3:1f:09:ed:
                    81:ba:61:10:10:88:52:99:ba:36:25:ba:51:7c:c4:
                    aa:42:e4:28:46:d8:36:22:4f:73:50:87:cc:df:72:
                    4f:03:e2:cd:26:fb:d3:c5:d1:8c:cf:d7:6b:e7:02:
                    a6:e8:40:d8:a0:53:a7:cd:42:2d:45:5c:98:2c:2e:
                    f6:e6:95:45:50:b2:30:a2:b3:1b:58:e1:5c:2b:f8:
                    0f:ee:c9:73:4a:39:28:88:3f:ac:ce:a1:69:23:71:
                    c2:ce:f3:33:dd:ef:83:f3:cb:06:a8:ff:a7:f3:69:
                    b8:99:1a:a3:70:ef:21:3d:e5:a7:5c:f8:57:f5:fa:
                    77:3d:bd:17:87:a0:7a:ee:68:27:25:ad:4d:65:ea:
                    32:9d:86:53:bd:4b:07:35:39:1f:ef:8e:13:18:ef:
                    9e:c5:65:cf:f1:e2:13:75:4c:ee:eb:bd:91:87:36:
                    da:2d:74:3d:7f:2e:9c:52:c7:1d:9f:cb:8a:28:f0:
                    11:29:92:e6:fa:0e:1e:fa:f8:8d:69:7b:30:05:10:
                    87:c2:b0:d6:5a:81:2d:3f:c1:34:70:5a:00:96:1a:
                    c1:8e:f1:32:c8:7f:0e:2c:bf:d4:df:10:13:60:c3:
                    8f:a3:20:28:1b:5c:11:29:bc:30:51:1a:4c:5b:6c:
                    ae:2d
                Exponent: 65537 (0x10001)
        X509v3 extensions:
            X509v3 Subject Key Identifier: 
                59:4B:B5:7E:82:6E:79:8E:86:53:63:A4:82:C4:7C:41:EA:1B:8B:92
            X509v3 Authority Key Identifier: 
                A3:84:1E:A0:10:DD:38:95:DB:BA:EC:06:EB:70:54:FE:B0:84:98:CB
            X509v3 Basic Constraints: critical
                CA:TRUE
            X509v3 Key Usage: critical
                Digital Signature, Certificate Sign, CRL Sign
    Signature Algorithm: sha256WithRSAEncryption
    Signature Value:
        68:01:38:fc:c3:4f:a5:72:69:e7:2c:0f:f6:35:e7:42:37:e4:
        d0:58:02:f7:ab:a2:4a:da:2b:1a:06:5e:6c:5c:20:13:a1:70:
        97:1d:6a:95:f7:7d:19:5d:5f:63:8e:3a:1a:d7:50:fd:2a:85:
        11:8b:2a:28:44:86:f8:74:20:3b:5c:05:06:0a:85:b8:2d:40:
        64:82:68:1a:07:a0:6b:1a:9c:59:7f:a7:6e:ea:ae:b1:c8:07:
        d6:43:00:60:22:33:15:00:80:76:37:fb:6c:a7:2c:d3:f7:42:
        10:a2:95:fe:7a:ac:17:18:6f:13:bb:0f:9b:34:b5:f0:ae:93:
        19:6e:22:91:5d:4b:e0:a0:a0:64:f0:0d:07:03:97:4c:68:d5:
        b3:5b:92:03:08:5d:7d:e6:ea:22:74:f8:01:3a:22:a5:9f:ef:
        e4:75:61:f1:fb:7f:9e:19:3c:97:2c:7c:e7:10:48:98:ab:ae:
        23:66:2d:15:b8:d0:d5:87:69:ef:94:ff:ff:6c:e4:21:ec:23:
        e1:f1:74:1b:a7:1f:b8:95:c6:3c:54:f6:48:c8:d4:6c:07:c5:
        40:2b:00:90:bf:02:52:48:f8:30:1c:1c:0c:34:29:63:e8:4b:
        1e:1a:db:eb:c7:6c:6c:48:e0:9e:84:85:a6:fd:9c:cc:ec:bc:
        d9:0c:f8:74
-----BEGIN CERTIFICATE-----
MIIEADCCAuigAwIBAgICEAEwDQYJKoZIhvcNAQELBQAwgYkxCzAJBgNVBAYTAlVT
MRAwDgYDVQQIDAdGbG9yaWRhMRAwDgYDVQQHDAdKdXBpdGVyMQ4wDAYDVQQKDAVa
ZXJvQzEMMAoGA1UECwwDSWNlMRgwFgYDVQQDDA9aZXJvQyBUZXN0IENBIDUxHjAc
BgkqhkiG9w0BCQEWD3Rlc3RzQHplcm9jLmNvbTAeFw0yNDA0MTgxNjU1MDdaFw0y
NTA1MjExNjU1MDdaMIGWMSUwIwYDVQQDDBxDQTUgSW50ZXJtZWRpYXRlIDEgKEV4
cGlyZWQpMQswCQYDVQQGEwJVUzEQMA4GA1UECAwHRmxvcmlkYTEQMA4GA1UEBwwH
SnVwaXRlcjEOMAwGA1UECgwFWmVyb0MxDDAKBgNVBAsMA0ljZTEeMBwGCSqGSIb3
DQEJARYPdGVzdHNAemVyb2MuY29tMIIBIjANBgkqhkiG9w0BAQEFAAOCAQ8AMIIB
CgKCAQEA3fHHCXeEW0Z9WqMfCe2BumEQEIhSmbo2JbpRfMSqQuQoRtg2Ik9zUIfM
33JPA+LNJvvTxdGMz9dr5wKm6EDYoFOnzUItRVyYLC725pVFULIworMbWOFcK/gP
7slzSjkoiD+szqFpI3HCzvMz3e+D88sGqP+n82m4mRqjcO8hPeWnXPhX9fp3Pb0X
h6B67mgnJa1NZeoynYZTvUsHNTkf744TGO+exWXP8eITdUzu672RhzbaLXQ9fy6c
Uscdn8uKKPARKZLm+g4e+viNaXswBRCHwrDWWoEtP8E0cFoAlhrBjvEyyH8OLL/U
3xATYMOPoyAoG1wRKbwwURpMW2yuLQIDAQABo2MwYTAdBgNVHQ4EFgQUWUu1foJu
eY6GU2OkgsR8Qeobi5IwHwYDVR0jBBgwFoAUo4QeoBDdOJXbuuwG63BU/rCEmMsw
DwYDVR0TAQH/BAUwAwEB/zAOBgNVHQ8BAf8EBAMCAYYwDQYJKoZIhvcNAQELBQAD
ggEBAGgBOPzDT6VyaecsD/Y150I35NBYAverokraKxoGXmxcIBOhcJcdapX3fRld
X2OOOhrXUP0qhRGLKihEhvh0IDtcBQYKhbgtQGSCaBoHoGsanFl/p27qrrHIB9ZD
AGAiMxUAgHY3+2ynLNP3QhCilf56rBcYbxO7D5s0tfCukxluIpFdS+CgoGTwDQcD
l0xo1bNbkgMIXX3m6iJ0+AE6IqWf7+R1YfH7f54ZPJcsfOcQSJirriNmLRW40NWH
ae+U//9s5CHsI+HxdBunH7iVxjxU9kjI1GwHxUArAJC/AlJI+DAcHAw0KWPoSx4a
2+vHbGxI4J6Ehab9nMzsvNkM+HQ=
-----END CERTIFICATE-----
