Certificate:
    Data:
        Version: 3 (0x2)
        Serial Number: 4097 (0x1001)
        Signature Algorithm: sha256WithRSAEncryption
        Issuer: CN=CA5 Intermediate 1 (Expired), C=US, ST=Florida, L=Jupiter, O=ZeroC, OU=Ice/emailAddress=tests@zeroc.com
        Validity
            Not Before: Apr 18 15:10:17 2024 GMT
            Not After : May 21 15:10:17 2025 GMT
        Subject: CN=Server, C=US, ST=Florida, L=Jupiter, O=ZeroC, Inc., OU=Ice/emailAddress=info@zeroc.com
        Subject Public Key Info:
            Public Key Algorithm: rsaEncryption
                Public-Key: (2048 bit)
                Modulus:
                    00:a6:43:c0:92:c6:56:73:a5:b7:c3:2b:31:61:55:
                    7a:c5:fb:ac:05:f7:ab:79:14:e4:c2:ac:0f:ae:f5:
                    31:27:bf:dc:4a:6c:b3:e2:eb:80:32:22:83:69:61:
                    23:b8:1b:a7:64:8c:d6:71:ea:dd:51:c2:d8:dc:17:
                    99:48:80:ef:88:7d:1f:ad:cf:0e:cb:a4:c6:55:c1:
                    0a:d6:a4:f8:61:c0:c1:a9:22:a6:6a:76:d9:8a:49:
                    bb:32:ac:a1:90:58:ab:3d:b7:e4:1a:93:f1:67:8f:
                    e7:c6:cd:b9:f1:73:0b:d6:7b:29:5b:29:1c:e2:12:
                    bc:6a:90:9a:89:1e:fc:4b:6b:93:a3:30:1b:5b:7a:
                    32:4e:1b:22:c6:61:60:b2:94:83:e8:da:d2:0a:b1:
                    17:80:66:1b:a7:9d:ee:9a:13:c9:16:16:48:8e:56:
                    78:e2:cf:a8:67:3c:18:bc:95:2a:93:5f:e7:fd:b2:
                    82:25:83:c3:32:1d:51:0f:74:a3:b5:c0:15:c6:a2:
                    22:88:24:9f:cd:9c:6c:d7:47:9b:b4:82:ea:0e:e3:
                    bf:90:bf:20:59:e1:fe:91:78:29:e4:8f:ff:ff:69:
                    ce:c3:a4:00:59:9e:e8:53:ec:fe:0b:f3:90:e1:5c:
                    ec:34:ec:4c:e0:9d:51:5a:e0:a5:e7:ca:79:d1:57:
                    40:cb
                Exponent: 65537 (0x10001)
        X509v3 extensions:
            X509v3 Subject Key Identifier: 
                ED:58:44:DA:28:E6:98:8F:3F:08:23:32:D1:0E:7B:B6:AC:25:EE:3D
            X509v3 Authority Key Identifier: 
                C6:23:FD:0C:E2:60:11:F5:70:99:93:1A:CC:84:4F:95:9D:69:A7:96
            X509v3 Key Usage: critical
                Digital Signature, Non Repudiation, Key Encipherment
            X509v3 Extended Key Usage: 
                TLS Web Server Authentication
            X509v3 Subject Alternative Name: 
                IP Address:127.0.0.1, DNS:server
    Signature Algorithm: sha256WithRSAEncryption
    Signature Value:
        0b:84:68:de:d6:7a:c4:5d:92:0a:fb:ef:43:e6:2b:07:60:e7:
        71:15:95:b5:96:e3:0d:82:41:2d:84:f2:82:2b:a2:ea:61:3f:
        ec:ae:6b:99:01:5f:45:4d:ec:9b:f6:cb:f1:b3:b5:0c:45:3f:
        d3:ab:e5:ce:97:57:91:e9:1f:e9:51:68:0b:e3:23:48:31:04:
        ad:16:42:ba:1c:a4:a3:6e:a3:ed:bc:00:2e:e8:c6:5b:81:3d:
        73:d8:9a:b8:11:01:11:9c:25:1c:03:b3:ad:6e:dd:ce:48:a2:
        3c:75:52:ee:61:4b:f7:9c:0b:2e:26:ce:d0:7e:d9:27:17:99:
        f5:b4:e8:74:f4:ca:52:36:53:4e:5e:1c:51:d0:70:5e:31:49:
        ef:7d:40:e3:68:f2:76:dd:d7:9c:5d:f4:b1:5b:77:19:1b:74:
        03:2e:83:2e:35:d3:56:6c:cb:38:8a:69:d2:50:62:66:19:53:
        2b:17:85:38:2f:91:14:c8:d2:ec:ed:bd:70:3d:22:e8:3f:ba:
        23:e2:63:4d:3e:d3:14:18:31:2c:be:69:3d:cb:1a:9c:ca:b2:
        e7:50:d4:14:f2:63:f7:c0:5e:11:4a:61:87:25:66:28:37:e1:
        9a:a5:d4:69:b7:16:3a:9d:ab:dc:54:86:30:a4:be:14:51:1c:
        69:54:be:7b
-----BEGIN CERTIFICATE-----
MIIEGjCCAwKgAwIBAgICEAEwDQYJKoZIhvcNAQELBQAwgZYxJTAjBgNVBAMMHENB
NSBJbnRlcm1lZGlhdGUgMSAoRXhwaXJlZCkxCzAJBgNVBAYTAlVTMRAwDgYDVQQI
DAdGbG9yaWRhMRAwDgYDVQQHDAdKdXBpdGVyMQ4wDAYDVQQKDAVaZXJvQzEMMAoG
A1UECwwDSWNlMR4wHAYJKoZIhvcNAQkBFg90ZXN0c0B6ZXJvYy5jb20wHhcNMjQw
NDE4MTUxMDE3WhcNMjUwNTIxMTUxMDE3WjCBhTEPMA0GA1UEAwwGU2VydmVyMQsw
CQYDVQQGEwJVUzEQMA4GA1UECAwHRmxvcmlkYTEQMA4GA1UEBwwHSnVwaXRlcjEU
MBIGA1UECgwLWmVyb0MsIEluYy4xDDAKBgNVBAsMA0ljZTEdMBsGCSqGSIb3DQEJ
ARYOaW5mb0B6ZXJvYy5jb20wggEiMA0GCSqGSIb3DQEBAQUAA4IBDwAwggEKAoIB
AQCmQ8CSxlZzpbfDKzFhVXrF+6wF96t5FOTCrA+u9TEnv9xKbLPi64AyIoNpYSO4
G6dkjNZx6t1RwtjcF5lIgO+IfR+tzw7LpMZVwQrWpPhhwMGpIqZqdtmKSbsyrKGQ
WKs9t+Qak/Fnj+fGzbnxcwvWeylbKRziErxqkJqJHvxLa5OjMBtbejJOGyLGYWCy
lIPo2tIKsReAZhunne6aE8kWFkiOVnjiz6hnPBi8lSqTX+f9soIlg8MyHVEPdKO1
wBXGoiKIJJ/NnGzXR5u0guoO47+QvyBZ4f6ReCnkj///ac7DpABZnuhT7P4L85Dh
XOw07EzgnVFa4KXnynnRV0DLAgMBAAGjgYAwfjAdBgNVHQ4EFgQU7VhE2ijmmI8/
CCMy0Q57tqwl7j0wHwYDVR0jBBgwFoAUxiP9DOJgEfVwmZMazIRPlZ1pp5YwDgYD
VR0PAQH/BAQDAgXgMBMGA1UdJQQMMAoGCCsGAQUFBwMBMBcGA1UdEQQQMA6HBH8A
AAGCBnNlcnZlcjANBgkqhkiG9w0BAQsFAAOCAQEAC4Ro3tZ6xF2SCvvvQ+YrB2Dn
cRWVtZbjDYJBLYTygiui6mE/7K5rmQFfRU3sm/bL8bO1DEU/06vlzpdXkekf6VFo
C+MjSDEErRZCuhyko26j7bwALujGW4E9c9iauBEBEZwlHAOzrW7dzkiiPHVS7mFL
95wLLibO0H7ZJxeZ9bTodPTKUjZTTl4cUdBwXjFJ731A42jydt3XnF30sVt3GRt0
Ay6DLjXTVmzLOIpp0lBiZhlTKxeFOC+RFMjS7O29cD0i6D+6I+JjTT7TFBgxLL5p
PcsanMqy51DUFPJj98BeEUphhyVmKDfhmqXUabcWOp2r3FSGMKS+FFEcaVS+ew==
-----END CERTIFICATE-----
