Certificate:
    Data:
        Version: 3 (0x2)
        Serial Number: 4097 (0x1001)
        Signature Algorithm: sha256WithRSAEncryption
        Issuer: CN=CA5 Intermediate 1 (Expired), C=US, ST=Florida, L=Jupiter, O=ZeroC, OU=Ice/emailAddress=tests@zeroc.com
        Validity
            Not Before: Apr 18 16:55:16 2024 GMT
            Not After : May 21 16:55:16 2025 GMT
        Subject: CN=Server, C=US, ST=Florida, L=Jupiter, O=ZeroC, Inc., OU=Ice/emailAddress=info@zeroc.com
        Subject Public Key Info:
            Public Key Algorithm: rsaEncryption
                Public-Key: (2048 bit)
                Modulus:
                    00:b4:68:0d:e2:d9:cf:81:58:27:58:2b:86:74:59:
                    f0:bd:08:6b:4d:e1:82:44:c3:68:6a:95:a2:e2:0f:
                    7c:ed:03:92:86:50:00:bf:53:ec:fe:d7:8a:6d:34:
                    7a:c5:38:a9:8f:df:53:65:ae:2b:f7:2d:34:f1:90:
                    0d:bf:db:54:35:a3:4a:c1:6e:99:31:11:37:6d:1f:
                    b4:07:ad:19:42:9a:02:05:8b:82:cf:5a:1f:2a:34:
                    5e:e4:93:70:c6:40:dc:d7:88:c1:cf:47:62:5b:6d:
                    ee:29:6f:81:c0:5f:f7:0a:38:24:a4:17:37:23:54:
                    51:f6:0b:63:65:16:8f:23:e2:94:8f:5c:14:2c:36:
                    7c:1a:af:8c:98:3b:3d:e6:2e:69:5b:ad:82:52:ab:
                    72:d3:5f:ee:59:64:e0:ab:b5:7d:10:3a:86:62:2c:
                    20:50:01:33:50:65:3a:3d:3f:4f:21:34:78:e0:6a:
                    77:e3:8e:c1:c5:2a:6f:26:56:dd:02:04:f6:ba:f2:
                    78:b0:02:6e:e0:9f:3e:2f:a9:a2:b4:f5:b3:22:58:
                    43:7a:fe:5f:8d:30:49:0d:67:6c:41:69:6b:74:cb:
                    34:2e:4e:dd:64:ce:c1:55:6e:31:2b:a7:dc:b0:2f:
                    c6:e9:82:56:a8:1b:80:a5:7d:d2:11:0f:c6:c2:10:
                    fa:11
                Exponent: 65537 (0x10001)
        X509v3 extensions:
            X509v3 Subject Key Identifier: 
                8F:DD:23:B8:FC:8A:79:B6:DD:62:A2:38:78:5B:C6:B7:BC:48:B5:52
            X509v3 Authority Key Identifier: 
                59:4B:B5:7E:82:6E:79:8E:86:53:63:A4:82:C4:7C:41:EA:1B:8B:92
            X509v3 Key Usage: critical
                Digital Signature, Non Repudiation, Key Encipherment
            X509v3 Extended Key Usage: 
                TLS Web Server Authentication
            X509v3 Subject Alternative Name: 
                IP Address:127.0.0.1, DNS:server
    Signature Algorithm: sha256WithRSAEncryption
    Signature Value:
        22:71:44:9a:7a:80:c1:99:4f:92:2d:19:95:69:17:5a:7f:88:
        52:7c:3d:3b:e8:f0:6a:25:b4:79:f4:a1:0c:d2:7b:e5:e7:dd:
        7e:d4:bb:4a:ac:09:f9:98:a1:ae:3f:c9:64:a2:ee:d1:0f:33:
        f0:f7:1a:c4:9a:f8:08:e6:e7:00:1d:97:d0:96:b2:a9:7f:67:
        bc:f9:27:f3:9b:15:50:1e:26:f7:68:47:07:29:f0:4c:af:3a:
        73:ac:c1:f9:84:89:7d:92:bf:27:89:1b:25:b2:e6:08:a1:7a:
        41:18:a9:93:30:ba:ce:ea:99:e7:d6:82:59:f4:52:71:36:89:
        33:80:ce:0c:03:f6:2a:e8:06:57:f6:f2:ae:88:10:8a:86:47:
        8a:8f:54:7a:8a:57:d4:3b:7e:5a:e6:72:5a:a4:3e:41:7f:a7:
        f2:bf:ce:ea:b3:ac:3b:fd:b0:43:9e:f6:3f:d5:c0:bd:f8:49:
        18:0c:a7:67:6c:35:79:ab:c3:6d:55:3d:47:f7:3c:f7:19:36:
        8b:f9:f7:40:18:94:00:87:91:a2:d7:c3:86:9c:ad:fe:73:fe:
        49:9b:93:40:a5:28:ee:e5:f6:ae:61:8a:d3:e4:3f:e7:a9:67:
        66:0c:69:20:57:04:ed:23:aa:35:f4:97:27:87:d4:10:06:36:
        0a:3e:93:0b
-----BEGIN CERTIFICATE-----
MIIEGjCCAwKgAwIBAgICEAEwDQYJKoZIhvcNAQELBQAwgZYxJTAjBgNVBAMMHENB
NSBJbnRlcm1lZGlhdGUgMSAoRXhwaXJlZCkxCzAJBgNVBAYTAlVTMRAwDgYDVQQI
DAdGbG9yaWRhMRAwDgYDVQQHDAdKdXBpdGVyMQ4wDAYDVQQKDAVaZXJvQzEMMAoG
A1UECwwDSWNlMR4wHAYJKoZIhvcNAQkBFg90ZXN0c0B6ZXJvYy5jb20wHhcNMjQw
NDE4MTY1NTE2WhcNMjUwNTIxMTY1NTE2WjCBhTEPMA0GA1UEAwwGU2VydmVyMQsw
CQYDVQQGEwJVUzEQMA4GA1UECAwHRmxvcmlkYTEQMA4GA1UEBwwHSnVwaXRlcjEU
MBIGA1UECgwLWmVyb0MsIEluYy4xDDAKBgNVBAsMA0ljZTEdMBsGCSqGSIb3DQEJ
ARYOaW5mb0B6ZXJvYy5jb20wggEiMA0GCSqGSIb3DQEBAQUAA4IBDwAwggEKAoIB
AQC0aA3i2c+BWCdYK4Z0WfC9CGtN4YJEw2hqlaLiD3ztA5KGUAC/U+z+14ptNHrF
OKmP31Nlriv3LTTxkA2/21Q1o0rBbpkxETdtH7QHrRlCmgIFi4LPWh8qNF7kk3DG
QNzXiMHPR2Jbbe4pb4HAX/cKOCSkFzcjVFH2C2NlFo8j4pSPXBQsNnwar4yYOz3m
LmlbrYJSq3LTX+5ZZOCrtX0QOoZiLCBQATNQZTo9P08hNHjganfjjsHFKm8mVt0C
BPa68niwAm7gnz4vqaK09bMiWEN6/l+NMEkNZ2xBaWt0yzQuTt1kzsFVbjErp9yw
L8bpglaoG4ClfdIRD8bCEPoRAgMBAAGjgYAwfjAdBgNVHQ4EFgQUj90juPyKebbd
YqI4eFvGt7xItVIwHwYDVR0jBBgwFoAUWUu1foJueY6GU2OkgsR8Qeobi5IwDgYD
VR0PAQH/BAQDAgXgMBMGA1UdJQQMMAoGCCsGAQUFBwMBMBcGA1UdEQQQMA6HBH8A
AAGCBnNlcnZlcjANBgkqhkiG9w0BAQsFAAOCAQEAInFEmnqAwZlPki0ZlWkXWn+I
Unw9O+jwaiW0efShDNJ75efdftS7SqwJ+Zihrj/JZKLu0Q8z8PcaxJr4CObnAB2X
0JayqX9nvPkn85sVUB4m92hHBynwTK86c6zB+YSJfZK/J4kbJbLmCKF6QRipkzC6
zuqZ59aCWfRScTaJM4DODAP2KugGV/byrogQioZHio9UeopX1Dt+WuZyWqQ+QX+n
8r/O6rOsO/2wQ572P9XAvfhJGAynZ2w1eavDbVU9R/c89xk2i/n3QBiUAIeRotfD
hpyt/nP+SZuTQKUo7uX2rmGK0+Q/56lnZgxpIFcE7SOqNfSXJ4fUEAY2Cj6TCw==
-----END CERTIFICATE-----
