Certificate:
    Data:
        Version: 3 (0x2)
        Serial Number: 4097 (0x1001)
        Signature Algorithm: sha256WithRSAEncryption
        Issuer: CN=CA5 Intermediate 1 (Expired), C=US, ST=Florida, L=Jupiter, O=ZeroC, OU=Ice/emailAddress=tests@zeroc.com
        Validity
            Not Before: Apr 18 16:16:12 2024 GMT
            Not After : May 21 16:16:12 2025 GMT
        Subject: CN=Server, C=US, ST=Florida, L=Jupiter, O=ZeroC, Inc., OU=Ice/emailAddress=info@zeroc.com
        Subject Public Key Info:
            Public Key Algorithm: rsaEncryption
                Public-Key: (2048 bit)
                Modulus:
                    00:aa:90:c3:d1:68:79:09:49:17:ad:8f:a3:30:b5:
                    a4:78:93:13:df:be:78:f9:af:2d:d4:3d:4a:79:17:
                    de:9f:48:cd:8d:38:b5:17:8b:99:ac:c3:28:45:ee:
                    87:80:3b:b5:3e:d3:28:a5:4f:cc:75:eb:d6:6a:db:
                    dd:e1:ff:22:ee:9e:8b:81:dc:9e:e4:72:73:f1:e3:
                    51:ae:ee:c7:4c:d4:fd:11:0d:52:b3:9f:5f:21:4a:
                    4b:d9:f0:8a:82:d9:e5:eb:dc:5a:e8:d8:ec:bd:40:
                    3e:ed:28:ac:32:1e:43:67:7c:ff:35:f4:2b:dc:9c:
                    ed:1d:fa:ea:01:3e:6f:8b:1e:3c:8d:91:d2:c8:1b:
                    1a:88:e7:cd:d6:dd:a4:7d:60:a6:66:9d:46:de:8a:
                    3b:35:ca:7c:b0:3d:58:63:b9:67:b7:80:81:fc:e6:
                    0b:b9:07:21:47:eb:c0:c4:6a:63:d4:e1:99:16:fc:
                    0b:52:f8:f7:50:75:45:6a:e7:d1:73:85:79:e3:07:
                    ec:d6:ab:83:11:78:66:d1:c7:0e:28:9d:27:2f:88:
                    10:ae:67:47:cd:3f:7e:7e:a6:c9:a7:5c:1c:e1:5a:
                    57:12:b9:d8:af:bc:b3:81:11:9b:23:41:a0:4b:59:
                    7d:69:e8:31:c1:bf:65:ba:cd:c0:e2:3c:8d:7b:47:
                    a2:95
                Exponent: 65537 (0x10001)
        X509v3 extensions:
            X509v3 Subject Key Identifier: 
                F2:DA:EA:E1:EC:E1:5D:8E:0E:3A:9A:83:9F:3B:F9:A2:32:47:77:70
            X509v3 Authority Key Identifier: 
                13:78:B2:2C:03:83:46:F4:FD:00:49:66:1C:FE:07:92:21:E5:74:59
            X509v3 Key Usage: critical
                Digital Signature, Non Repudiation, Key Encipherment
            X509v3 Extended Key Usage: 
                TLS Web Server Authentication
            X509v3 Subject Alternative Name: 
                IP Address:127.0.0.1, DNS:server
    Signature Algorithm: sha256WithRSAEncryption
    Signature Value:
        2a:bf:88:4c:1d:25:cd:79:42:97:59:1d:fb:9d:d9:52:92:99:
        b4:cb:15:0d:fc:70:50:f0:8b:5a:01:64:2a:dc:47:27:db:83:
        bd:7f:58:7a:41:48:14:75:8c:66:b8:19:73:79:fa:f1:31:b2:
        9d:59:67:be:1e:13:e9:67:11:1a:07:f0:91:cc:45:d2:5c:55:
        dc:ac:f4:ea:06:41:a1:2f:71:76:42:35:ce:91:da:68:0c:58:
        d5:bb:55:db:85:01:27:91:5f:34:65:82:b8:0a:0c:cc:4d:1e:
        21:11:96:58:f4:0c:67:62:b6:29:ff:c2:16:9b:f8:bd:ae:02:
        c0:0e:4f:55:20:5e:f6:f2:d5:4a:7d:da:4d:6c:e9:7d:61:c1:
        47:b2:c8:ee:3d:44:6c:54:f6:55:93:e2:81:1c:64:dd:40:53:
        9e:0d:45:51:d4:31:43:a9:c3:a4:9a:2d:5c:c1:20:bf:6e:b6:
        03:8c:fc:17:5f:24:83:05:55:94:7e:4b:99:af:01:2e:37:f9:
        8f:7e:8b:e1:ad:b6:0f:9c:7e:0c:9e:be:30:1f:c5:58:60:a9:
        eb:97:12:53:54:79:20:f3:c8:3c:c6:36:80:06:bb:f9:b6:b3:
        a3:58:03:57:bf:b9:93:ff:91:2c:60:99:29:36:9a:89:f0:0f:
        45:dd:7e:9d
-----BEGIN CERTIFICATE-----
MIIEGjCCAwKgAwIBAgICEAEwDQYJKoZIhvcNAQELBQAwgZYxJTAjBgNVBAMMHENB
NSBJbnRlcm1lZGlhdGUgMSAoRXhwaXJlZCkxCzAJBgNVBAYTAlVTMRAwDgYDVQQI
DAdGbG9yaWRhMRAwDgYDVQQHDAdKdXBpdGVyMQ4wDAYDVQQKDAVaZXJvQzEMMAoG
A1UECwwDSWNlMR4wHAYJKoZIhvcNAQkBFg90ZXN0c0B6ZXJvYy5jb20wHhcNMjQw
NDE4MTYxNjEyWhcNMjUwNTIxMTYxNjEyWjCBhTEPMA0GA1UEAwwGU2VydmVyMQsw
CQYDVQQGEwJVUzEQMA4GA1UECAwHRmxvcmlkYTEQMA4GA1UEBwwHSnVwaXRlcjEU
MBIGA1UECgwLWmVyb0MsIEluYy4xDDAKBgNVBAsMA0ljZTEdMBsGCSqGSIb3DQEJ
ARYOaW5mb0B6ZXJvYy5jb20wggEiMA0GCSqGSIb3DQEBAQUAA4IBDwAwggEKAoIB
AQCqkMPRaHkJSRetj6MwtaR4kxPfvnj5ry3UPUp5F96fSM2NOLUXi5mswyhF7oeA
O7U+0yilT8x169Zq293h/yLunouB3J7kcnPx41Gu7sdM1P0RDVKzn18hSkvZ8IqC
2eXr3Fro2Oy9QD7tKKwyHkNnfP819CvcnO0d+uoBPm+LHjyNkdLIGxqI583W3aR9
YKZmnUbeijs1ynywPVhjuWe3gIH85gu5ByFH68DEamPU4ZkW/AtS+PdQdUVq59Fz
hXnjB+zWq4MReGbRxw4onScviBCuZ0fNP35+psmnXBzhWlcSudivvLOBEZsjQaBL
WX1p6DHBv2W6zcDiPI17R6KVAgMBAAGjgYAwfjAdBgNVHQ4EFgQU8trq4ezhXY4O
OpqDnzv5ojJHd3AwHwYDVR0jBBgwFoAUE3iyLAODRvT9AElmHP4HkiHldFkwDgYD
VR0PAQH/BAQDAgXgMBMGA1UdJQQMMAoGCCsGAQUFBwMBMBcGA1UdEQQQMA6HBH8A
AAGCBnNlcnZlcjANBgkqhkiG9w0BAQsFAAOCAQEAKr+ITB0lzXlCl1kd+53ZUpKZ
tMsVDfxwUPCLWgFkKtxHJ9uDvX9YekFIFHWMZrgZc3n68TGynVlnvh4T6WcRGgfw
kcxF0lxV3Kz06gZBoS9xdkI1zpHaaAxY1btV24UBJ5FfNGWCuAoMzE0eIRGWWPQM
Z2K2Kf/CFpv4va4CwA5PVSBe9vLVSn3aTWzpfWHBR7LI7j1EbFT2VZPigRxk3UBT
ng1FUdQxQ6nDpJotXMEgv262A4z8F18kgwVVlH5Lma8BLjf5j36L4a22D5x+DJ6+
MB/FWGCp65cSU1R5IPPIPMY2gAa7+bazo1gDV7+5k/+RLGCZKTaaifAPRd1+nQ==
-----END CERTIFICATE-----
